
target/armv4t-none-eabi/release/gba-rt:     file format elf32-littlearm


Disassembly of section .entrypoint:

08000000 <.entrypoint>:
 8000000:	ea00002e 	b	0x80000c0
	...
 80000c0:	e59f001c 	ldr	r0, [pc, #28]	@ 0x80000e4
 80000c4:	e59f101c 	ldr	r1, [pc, #28]	@ 0x80000e8
 80000c8:	e5810000 	str	r0, [r1]
 80000cc:	e59f0018 	ldr	r0, [pc, #24]	@ 0x80000ec
 80000d0:	e59f1018 	ldr	r1, [pc, #24]	@ 0x80000f0
 80000d4:	e59f2018 	ldr	r2, [pc, #24]	@ 0x80000f4
 80000d8:	ef0b0000 	svc	0x000b0000
 80000dc:	e59f0014 	ldr	r0, [pc, #20]	@ 0x80000f8
 80000e0:	e12fff10 	bx	r0
 80000e4:	0300019c 	movweq	r0, #412	@ 0x19c
 80000e8:	03007ffc 	movweq	r7, #4092	@ 0xffc
 80000ec:	082ffc14 	stmdaeq	pc!, {r2, r4, sl, fp, ip, sp, lr, pc}	@ <UNPREDICTABLE>
 80000f0:	02000000 	andeq	r0, r0, #0
 80000f4:	00000878 	andeq	r0, r0, r8, ror r8
 80000f8:	080000fc 	stmdaeq	r0, {r2, r3, r4, r5, r6, r7}
 80000fc:	e59f003c 	ldr	r0, [pc, #60]	@ 0x8000140
 8000100:	e59f103c 	ldr	r1, [pc, #60]	@ 0x8000144
 8000104:	e1c010b0 	strh	r1, [r0]
 8000108:	e59f0038 	ldr	r0, [pc, #56]	@ 0x8000148
 800010c:	e59f1038 	ldr	r1, [pc, #56]	@ 0x800014c
 8000110:	e59f2038 	ldr	r2, [pc, #56]	@ 0x8000150
 8000114:	ef0b0000 	svc	0x000b0000
 8000118:	e59f0034 	ldr	r0, [pc, #52]	@ 0x8000154
 800011c:	e3a01001 	mov	r1, #1
 8000120:	e5801000 	str	r1, [r0]
 8000124:	e3a00000 	mov	r0, #0
 8000128:	e1a01000 	mov	r1, r0
 800012c:	e1a07000 	mov	r7, r0
 8000130:	e59f2020 	ldr	r2, [pc, #32]	@ 0x8000158
 8000134:	e1a0e00f 	mov	lr, pc
 8000138:	e12fff12 	bx	r2
 800013c:	eafffffe 	b	0x800013c
 8000140:	04000204 	streq	r0, [r0], #-516	@ 0xfffffdfc
 8000144:	00004317 	andeq	r4, r0, r7, lsl r3
 8000148:	082fe63c 	stmdaeq	pc!, {r2, r3, r4, r5, r9, sl, sp, lr, pc}	@ <UNPREDICTABLE>
 800014c:	03000000 	movweq	r0, #0
 8000150:	00000aec 	andeq	r0, r0, ip, ror #21
 8000154:	04000208 	streq	r0, [r0], #-520	@ 0xfffffdf8
 8000158:	08001094 	stmdaeq	r0, {r2, r4, r7, ip}

Disassembly of section .text:

0800015c <.text>:
 800015c:	e92d4ff0 	push	{r4, r5, r6, r7, r8, r9, sl, fp, lr}
 8000160:	e28db01c 	add	fp, sp, #28
 8000164:	e24dd0c4 	sub	sp, sp, #196	@ 0xc4
 8000168:	e58d000c 	str	r0, [sp, #12]
 800016c:	e59b000c 	ldr	r0, [fp, #12]
 8000170:	e58d2038 	str	r2, [sp, #56]	@ 0x38
 8000174:	e58d1034 	str	r1, [sp, #52]	@ 0x34
 8000178:	e3a06000 	mov	r6, #0
 800017c:	e3a02000 	mov	r2, #0
 8000180:	e3a01000 	mov	r1, #0
 8000184:	e31000ff 	tst	r0, #255	@ 0xff
 8000188:	0a0003a4 	beq	0x8001020
 800018c:	e593401c 	ldr	r4, [r3, #28]
 8000190:	e5930020 	ldr	r0, [r3, #32]
 8000194:	e5938024 	ldr	r8, [r3, #36]	@ 0x24
 8000198:	e5d3902c 	ldrb	r9, [r3, #44]	@ 0x2c
 800019c:	e5936028 	ldr	r6, [r3, #40]	@ 0x28
 80001a0:	e59bc010 	ldr	ip, [fp, #16]
 80001a4:	e59f5ec0 	ldr	r5, [pc, #3776]	@ 0x800106c
 80001a8:	e0c21494 	smull	r1, r2, r4, r4
 80001ac:	e3190001 	tst	r9, #1
 80001b0:	e385e806 	orr	lr, r5, #393216	@ 0x60000
 80001b4:	e58d4028 	str	r4, [sp, #40]	@ 0x28
 80001b8:	e58d0024 	str	r0, [sp, #36]	@ 0x24
 80001bc:	e50b005c 	str	r0, [fp, #-92]	@ 0xffffffa4
 80001c0:	e58d8020 	str	r8, [sp, #32]
 80001c4:	e50b8058 	str	r8, [fp, #-88]	@ 0xffffffa8
 80001c8:	e58d6008 	str	r6, [sp, #8]
 80001cc:	e58d9004 	str	r9, [sp, #4]
 80001d0:	e1a01821 	lsr	r1, r1, #16
 80001d4:	e50be068 	str	lr, [fp, #-104]	@ 0xffffff98
 80001d8:	e1811802 	orr	r1, r1, r2, lsl #16
 80001dc:	e0c72090 	smull	r2, r7, r0, r0
 80001e0:	e3a00801 	mov	r0, #65536	@ 0x10000
 80001e4:	e1a02822 	lsr	r2, r2, #16
 80001e8:	e58d0048 	str	r0, [sp, #72]	@ 0x48
 80001ec:	e1822807 	orr	r2, r2, r7, lsl #16
 80001f0:	e0821001 	add	r1, r2, r1
 80001f4:	e0c72898 	smull	r2, r7, r8, r8
 80001f8:	e1a02822 	lsr	r2, r2, #16
 80001fc:	e1822807 	orr	r2, r2, r7, lsl #16
 8000200:	e1a07006 	mov	r7, r6
 8000204:	00817002 	addeq	r7, r1, r2
 8000208:	e28c1008 	add	r1, ip, #8
 800020c:	e59d2034 	ldr	r2, [sp, #52]	@ 0x34
 8000210:	e2811b07 	add	r1, r1, #7168	@ 0x1c00
 8000214:	e58d701c 	str	r7, [sp, #28]
 8000218:	e3a07801 	mov	r7, #65536	@ 0x10000
 800021c:	e58d1018 	str	r1, [sp, #24]
 8000220:	e28c100c 	add	r1, ip, #12
 8000224:	e2811b0f 	add	r1, r1, #15360	@ 0x3c00
 8000228:	e58d1014 	str	r1, [sp, #20]
 800022c:	e59d1038 	ldr	r1, [sp, #56]	@ 0x38
 8000230:	e0811101 	add	r1, r1, r1, lsl #2
 8000234:	e0821181 	add	r1, r2, r1, lsl #3
 8000238:	e50b1050 	str	r1, [fp, #-80]	@ 0xffffffb0
 800023c:	e28c1004 	add	r1, ip, #4
 8000240:	e1a0c004 	mov	ip, r4
 8000244:	e3a04001 	mov	r4, #1
 8000248:	e58d1010 	str	r1, [sp, #16]
 800024c:	e5931000 	ldr	r1, [r3]
 8000250:	e50b1044 	str	r1, [fp, #-68]	@ 0xffffffbc
 8000254:	e5931004 	ldr	r1, [r3, #4]
 8000258:	e50b1040 	str	r1, [fp, #-64]	@ 0xffffffc0
 800025c:	e5931008 	ldr	r1, [r3, #8]
 8000260:	e3a03801 	mov	r3, #65536	@ 0x10000
 8000264:	e50b103c 	str	r1, [fp, #-60]	@ 0xffffffc4
 8000268:	ea00002e 	b	0x8000328
 800026c:	e59b1008 	ldr	r1, [fp, #8]
 8000270:	e24b0038 	sub	r0, fp, #56	@ 0x38
 8000274:	eb002c7b 	bl	0x800b468
 8000278:	e59d3068 	ldr	r3, [sp, #104]	@ 0x68
 800027c:	e24b2038 	sub	r2, fp, #56	@ 0x38
 8000280:	e51be068 	ldr	lr, [fp, #-104]	@ 0xffffff98
 8000284:	e59d4040 	ldr	r4, [sp, #64]	@ 0x40
 8000288:	e8920007 	ldm	r2, {r0, r1, r2}
 800028c:	e0822003 	add	r2, r2, r3
 8000290:	e50b2058 	str	r2, [fp, #-88]	@ 0xffffffa8
 8000294:	e59d206c 	ldr	r2, [sp, #108]	@ 0x6c
 8000298:	e0811002 	add	r1, r1, r2
 800029c:	e50b105c 	str	r1, [fp, #-92]	@ 0xffffffa4
 80002a0:	e59d1070 	ldr	r1, [sp, #112]	@ 0x70
 80002a4:	e080c001 	add	ip, r0, r1
 80002a8:	e59d0058 	ldr	r0, [sp, #88]	@ 0x58
 80002ac:	e59d1010 	ldr	r1, [sp, #16]
 80002b0:	e0600180 	rsb	r0, r0, r0, lsl #3
 80002b4:	e0811100 	add	r1, r1, r0, lsl #2
 80002b8:	e2810008 	add	r0, r1, #8
 80002bc:	e2812004 	add	r2, r1, #4
 80002c0:	e5900000 	ldr	r0, [r0]
 80002c4:	e59d6048 	ldr	r6, [sp, #72]	@ 0x48
 80002c8:	e2844001 	add	r4, r4, #1
 80002cc:	e3a09000 	mov	r9, #0
 80002d0:	e0c73690 	smull	r3, r7, r0, r6
 80002d4:	e3a06000 	mov	r6, #0
 80002d8:	e1a00823 	lsr	r0, r3, #16
 80002dc:	e1800807 	orr	r0, r0, r7, lsl #16
 80002e0:	e59d7044 	ldr	r7, [sp, #68]	@ 0x44
 80002e4:	e58d0048 	str	r0, [sp, #72]	@ 0x48
 80002e8:	e5920000 	ldr	r0, [r2]
 80002ec:	e0c32790 	smull	r2, r3, r0, r7
 80002f0:	e59d704c 	ldr	r7, [sp, #76]	@ 0x4c
 80002f4:	e1a00822 	lsr	r0, r2, #16
 80002f8:	e1803803 	orr	r3, r0, r3, lsl #16
 80002fc:	e5910000 	ldr	r0, [r1]
 8000300:	e0c21790 	smull	r1, r2, r0, r7
 8000304:	e1a00821 	lsr	r0, r1, #16
 8000308:	e20410ff 	and	r1, r4, #255	@ 0xff
 800030c:	e1807802 	orr	r7, r0, r2, lsl #16
 8000310:	e59b000c 	ldr	r0, [fp, #12]
 8000314:	e3a02000 	mov	r2, #0
 8000318:	e20000ff 	and	r0, r0, #255	@ 0xff
 800031c:	e1510000 	cmp	r1, r0
 8000320:	e3a01000 	mov	r1, #0
 8000324:	8a00033d 	bhi	0x8001020
 8000328:	e59d0038 	ldr	r0, [sp, #56]	@ 0x38
 800032c:	e3500000 	cmp	r0, #0
 8000330:	0a0002e8 	beq	0x8000ed8
 8000334:	e58d3044 	str	r3, [sp, #68]	@ 0x44
 8000338:	e51b305c 	ldr	r3, [fp, #-92]	@ 0xffffffa4
 800033c:	e0c10c9c 	smull	r0, r1, ip, ip
 8000340:	e59d8034 	ldr	r8, [sp, #52]	@ 0x34
 8000344:	e58d902c 	str	r9, [sp, #44]	@ 0x2c
 8000348:	e58d6030 	str	r6, [sp, #48]	@ 0x30
 800034c:	e58d4040 	str	r4, [sp, #64]	@ 0x40
 8000350:	e58d704c 	str	r7, [sp, #76]	@ 0x4c
 8000354:	e50bc060 	str	ip, [fp, #-96]	@ 0xffffffa0
 8000358:	e1a00820 	lsr	r0, r0, #16
 800035c:	e1800801 	orr	r0, r0, r1, lsl #16
 8000360:	e0c21393 	smull	r1, r2, r3, r3
 8000364:	e51b3058 	ldr	r3, [fp, #-88]	@ 0xffffffa8
 8000368:	e1a01821 	lsr	r1, r1, #16
 800036c:	e1811802 	orr	r1, r1, r2, lsl #16
 8000370:	e0810000 	add	r0, r1, r0
 8000374:	e0c21393 	smull	r1, r2, r3, r3
 8000378:	e3a03000 	mov	r3, #0
 800037c:	e1a01821 	lsr	r1, r1, #16
 8000380:	e1811802 	orr	r1, r1, r2, lsl #16
 8000384:	e3e02102 	mvn	r2, #-2147483648	@ 0x80000000
 8000388:	e090a001 	adds	sl, r0, r1
 800038c:	e3a01000 	mov	r1, #0
 8000390:	426a0000 	rsbmi	r0, sl, #0
 8000394:	e50ba054 	str	sl, [fp, #-84]	@ 0xffffffac
 8000398:	e50ba064 	str	sl, [fp, #-100]	@ 0xffffff9c
 800039c:	450b0054 	strmi	r0, [fp, #-84]	@ 0xffffffac
 80003a0:	e3a00000 	mov	r0, #0
 80003a4:	e58d0064 	str	r0, [sp, #100]	@ 0x64
 80003a8:	e58d0060 	str	r0, [sp, #96]	@ 0x60
 80003ac:	e58d005c 	str	r0, [sp, #92]	@ 0x5c
 80003b0:	e58d003c 	str	r0, [sp, #60]	@ 0x3c
 80003b4:	e58d0068 	str	r0, [sp, #104]	@ 0x68
 80003b8:	e58d006c 	str	r0, [sp, #108]	@ 0x6c
 80003bc:	e58d0070 	str	r0, [sp, #112]	@ 0x70
 80003c0:	e58d0058 	str	r0, [sp, #88]	@ 0x58
 80003c4:	e58d3050 	str	r3, [sp, #80]	@ 0x50
 80003c8:	e58d1054 	str	r1, [sp, #84]	@ 0x54
 80003cc:	e50b206c 	str	r2, [fp, #-108]	@ 0xffffff94
 80003d0:	ea00000b 	b	0x8000404
 80003d4:	e1a01441 	asr	r1, r1, #8
 80003d8:	e0811003 	add	r1, r1, r3
 80003dc:	e0c32190 	smull	r2, r3, r0, r1
 80003e0:	e1a00822 	lsr	r0, r2, #16
 80003e4:	e1802803 	orr	r2, r0, r3, lsl #16
 80003e8:	e3520042 	cmp	r2, #66	@ 0x42
 80003ec:	a51b006c 	ldrge	r0, [fp, #-108]	@ 0xffffff94
 80003f0:	a1500002 	cmpge	r0, r2
 80003f4:	ca000087 	bgt	0x8000618
 80003f8:	e51b0050 	ldr	r0, [fp, #-80]	@ 0xffffffb0
 80003fc:	e1580000 	cmp	r8, r0
 8000400:	0a00012c 	beq	0x80008b8
 8000404:	e288900c 	add	r9, r8, #12
 8000408:	e51b0044 	ldr	r0, [fp, #-68]	@ 0xffffffbc
 800040c:	e598c008 	ldr	ip, [r8, #8]
 8000410:	e1a07008 	mov	r7, r8
 8000414:	e2888028 	add	r8, r8, #40	@ 0x28
 8000418:	e899020a 	ldm	r9, {r1, r3, r9}
 800041c:	e50b304c 	str	r3, [fp, #-76]	@ 0xffffffb4
 8000420:	e0412000 	sub	r2, r1, r0
 8000424:	e51b0040 	ldr	r0, [fp, #-64]	@ 0xffffffc0
 8000428:	e50b1048 	str	r1, [fp, #-72]	@ 0xffffffb8
 800042c:	e0431000 	sub	r1, r3, r0
 8000430:	e51b003c 	ldr	r0, [fp, #-60]	@ 0xffffffc4
 8000434:	e0c63292 	smull	r3, r6, r2, r2
 8000438:	e1a03823 	lsr	r3, r3, #16
 800043c:	e1833806 	orr	r3, r3, r6, lsl #16
 8000440:	e0c46191 	smull	r6, r4, r1, r1
 8000444:	e1a06826 	lsr	r6, r6, #16
 8000448:	e1866804 	orr	r6, r6, r4, lsl #16
 800044c:	e0490000 	sub	r0, r9, r0
 8000450:	e0863003 	add	r3, r6, r3
 8000454:	e0c46090 	smull	r6, r4, r0, r0
 8000458:	e1a06826 	lsr	r6, r6, #16
 800045c:	e1866804 	orr	r6, r6, r4, lsl #16
 8000460:	e0833006 	add	r3, r3, r6
 8000464:	e0c46c9c 	smull	r6, r4, ip, ip
 8000468:	e1a06826 	lsr	r6, r6, #16
 800046c:	e1866804 	orr	r6, r6, r4, lsl #16
 8000470:	e0433006 	sub	r3, r3, r6
 8000474:	e0c46a93 	smull	r6, r4, r3, sl
 8000478:	e1a03826 	lsr	r3, r6, #16
 800047c:	e1836804 	orr	r6, r3, r4, lsl #16
 8000480:	e3560001 	cmp	r6, #1
 8000484:	baffffdb 	blt	0x80003f8
 8000488:	e51ba060 	ldr	sl, [fp, #-96]	@ 0xffffffa0
 800048c:	e51b4058 	ldr	r4, [fp, #-88]	@ 0xffffffa8
 8000490:	e0c53a92 	smull	r3, r5, r2, sl
 8000494:	e51ba05c 	ldr	sl, [fp, #-92]	@ 0xffffffa4
 8000498:	e1a02823 	lsr	r2, r3, #16
 800049c:	e1822805 	orr	r2, r2, r5, lsl #16
 80004a0:	e0c53a91 	smull	r3, r5, r1, sl
 80004a4:	e51ba064 	ldr	sl, [fp, #-100]	@ 0xffffff9c
 80004a8:	e1a01823 	lsr	r1, r3, #16
 80004ac:	e1811805 	orr	r1, r1, r5, lsl #16
 80004b0:	e59f5bb4 	ldr	r5, [pc, #2996]	@ 0x800106c
 80004b4:	e0811002 	add	r1, r1, r2
 80004b8:	e0c32490 	smull	r2, r3, r0, r4
 80004bc:	e1a00822 	lsr	r0, r2, #16
 80004c0:	e1800803 	orr	r0, r0, r3, lsl #16
 80004c4:	e0813000 	add	r3, r1, r0
 80004c8:	e0c10393 	smull	r0, r1, r3, r3
 80004cc:	e1a00820 	lsr	r0, r0, #16
 80004d0:	e1800801 	orr	r0, r0, r1, lsl #16
 80004d4:	e1500006 	cmp	r0, r6
 80004d8:	baffffc6 	blt	0x80003f8
 80004dc:	e0500006 	subs	r0, r0, r6
 80004e0:	4affffc4 	bmi	0x80003f8
 80004e4:	e3a02000 	mov	r2, #0
 80004e8:	e1500005 	cmp	r0, r5
 80004ec:	9a000007 	bls	0x8000510
 80004f0:	e3a01000 	mov	r1, #0
 80004f4:	e1a06120 	lsr	r6, r0, #2
 80004f8:	e150000e 	cmp	r0, lr
 80004fc:	e2811001 	add	r1, r1, #1
 8000500:	e1a00006 	mov	r0, r6
 8000504:	8afffffa 	bhi	0x80004f4
 8000508:	e201101f 	and	r1, r1, #31
 800050c:	ea000001 	b	0x8000518
 8000510:	e1a06000 	mov	r6, r0
 8000514:	e3a01000 	mov	r1, #0
 8000518:	e59f0b50 	ldr	r0, [pc, #2896]	@ 0x8001070
 800051c:	e790e106 	ldr	lr, [r0, r6, lsl #2]
 8000520:	e51b0054 	ldr	r0, [fp, #-84]	@ 0xffffffac
 8000524:	e3500801 	cmp	r0, #65536	@ 0x10000
 8000528:	ba000007 	blt	0x800054c
 800052c:	e51b6054 	ldr	r6, [fp, #-84]	@ 0xffffffac
 8000530:	e3a02000 	mov	r2, #0
 8000534:	e1a000a6 	lsr	r0, r6, #1
 8000538:	e1560005 	cmp	r6, r5
 800053c:	e2822001 	add	r2, r2, #1
 8000540:	e1a06000 	mov	r6, r0
 8000544:	8afffffa 	bhi	0x8000534
 8000548:	e202201f 	and	r2, r2, #31
 800054c:	e35a0001 	cmp	sl, #1
 8000550:	ba000005 	blt	0x800056c
 8000554:	e3500801 	cmp	r0, #65536	@ 0x10000
 8000558:	2a0002bd 	bcs	0x8001054
 800055c:	e59f5b14 	ldr	r5, [pc, #2836]	@ 0x8001078
 8000560:	e7950100 	ldr	r0, [r5, r0, lsl #2]
 8000564:	e1a00250 	asr	r0, r0, r2
 8000568:	ea000005 	b	0x8000584
 800056c:	e3500801 	cmp	r0, #65536	@ 0x10000
 8000570:	2a0002ba 	bcs	0x8001060
 8000574:	e59f5afc 	ldr	r5, [pc, #2812]	@ 0x8001078
 8000578:	e7950100 	ldr	r0, [r5, r0, lsl #2]
 800057c:	e3a05000 	mov	r5, #0
 8000580:	e0450250 	sub	r0, r5, r0, asr r2
 8000584:	e1a0111e 	lsl	r1, lr, r1
 8000588:	e51be068 	ldr	lr, [fp, #-104]	@ 0xffffff98
 800058c:	e0432441 	sub	r2, r3, r1, asr #8
 8000590:	e0c56290 	smull	r6, r5, r0, r2
 8000594:	e1a00826 	lsr	r0, r6, #16
 8000598:	e1802805 	orr	r2, r0, r5, lsl #16
 800059c:	e59f5ac8 	ldr	r5, [pc, #2760]	@ 0x800106c
 80005a0:	e3520042 	cmp	r2, #66	@ 0x42
 80005a4:	a51b006c 	ldrge	r0, [fp, #-108]	@ 0xffffff94
 80005a8:	a1500002 	cmpge	r0, r2
 80005ac:	ca000019 	bgt	0x8000618
 80005b0:	e51b0054 	ldr	r0, [fp, #-84]	@ 0xffffffac
 80005b4:	e3a02000 	mov	r2, #0
 80005b8:	e3500801 	cmp	r0, #65536	@ 0x10000
 80005bc:	ba000006 	blt	0x80005dc
 80005c0:	e51b6054 	ldr	r6, [fp, #-84]	@ 0xffffffac
 80005c4:	e1a000a6 	lsr	r0, r6, #1
 80005c8:	e1560005 	cmp	r6, r5
 80005cc:	e2822001 	add	r2, r2, #1
 80005d0:	e1a06000 	mov	r6, r0
 80005d4:	8afffffa 	bhi	0x80005c4
 80005d8:	e202201f 	and	r2, r2, #31
 80005dc:	e35a0001 	cmp	sl, #1
 80005e0:	ba000005 	blt	0x80005fc
 80005e4:	e3500801 	cmp	r0, #65536	@ 0x10000
 80005e8:	2a000299 	bcs	0x8001054
 80005ec:	e59f6a84 	ldr	r6, [pc, #2692]	@ 0x8001078
 80005f0:	e7960100 	ldr	r0, [r6, r0, lsl #2]
 80005f4:	e1a00250 	asr	r0, r0, r2
 80005f8:	eaffff75 	b	0x80003d4
 80005fc:	e3500801 	cmp	r0, #65536	@ 0x10000
 8000600:	2a000296 	bcs	0x8001060
 8000604:	e59f6a6c 	ldr	r6, [pc, #2668]	@ 0x8001078
 8000608:	e7960100 	ldr	r0, [r6, r0, lsl #2]
 800060c:	e3a06000 	mov	r6, #0
 8000610:	e0460250 	sub	r0, r6, r0, asr r2
 8000614:	eaffff6e 	b	0x80003d4
 8000618:	e35c0000 	cmp	ip, #0
 800061c:	e1a0600c 	mov	r6, ip
 8000620:	e3a03000 	mov	r3, #0
 8000624:	426c6000 	rsbmi	r6, ip, #0
 8000628:	e3560801 	cmp	r6, #65536	@ 0x10000
 800062c:	e1a00006 	mov	r0, r6
 8000630:	ba000006 	blt	0x8000650
 8000634:	e1a01006 	mov	r1, r6
 8000638:	e1a000a1 	lsr	r0, r1, #1
 800063c:	e1510005 	cmp	r1, r5
 8000640:	e2833001 	add	r3, r3, #1
 8000644:	e1a01000 	mov	r1, r0
 8000648:	8afffffa 	bhi	0x8000638
 800064c:	e203301f 	and	r3, r3, #31
 8000650:	e35c0001 	cmp	ip, #1
 8000654:	ba000014 	blt	0x80006ac
 8000658:	e3500801 	cmp	r0, #65536	@ 0x10000
 800065c:	2a00027c 	bcs	0x8001054
 8000660:	e59f1a10 	ldr	r1, [pc, #2576]	@ 0x8001078
 8000664:	e7910100 	ldr	r0, [r1, r0, lsl #2]
 8000668:	e1a0e350 	asr	lr, r0, r3
 800066c:	e3a03000 	mov	r3, #0
 8000670:	e3560801 	cmp	r6, #65536	@ 0x10000
 8000674:	e1a00006 	mov	r0, r6
 8000678:	aa000015 	bge	0x80006d4
 800067c:	e35c0001 	cmp	ip, #1
 8000680:	ba00001c 	blt	0x80006f8
 8000684:	e3500801 	cmp	r0, #65536	@ 0x10000
 8000688:	2a000271 	bcs	0x8001054
 800068c:	e59f19e4 	ldr	r1, [pc, #2532]	@ 0x8001078
 8000690:	e7910100 	ldr	r0, [r1, r0, lsl #2]
 8000694:	e1a00350 	asr	r0, r0, r3
 8000698:	e3a03000 	mov	r3, #0
 800069c:	e3560801 	cmp	r6, #65536	@ 0x10000
 80006a0:	e50b006c 	str	r0, [fp, #-108]	@ 0xffffff94
 80006a4:	aa00001d 	bge	0x8000720
 80006a8:	ea00002a 	b	0x8000758
 80006ac:	e3500801 	cmp	r0, #65536	@ 0x10000
 80006b0:	2a00026a 	bcs	0x8001060
 80006b4:	e59f19bc 	ldr	r1, [pc, #2492]	@ 0x8001078
 80006b8:	e7910100 	ldr	r0, [r1, r0, lsl #2]
 80006bc:	e3a01000 	mov	r1, #0
 80006c0:	e041e350 	sub	lr, r1, r0, asr r3
 80006c4:	e3a03000 	mov	r3, #0
 80006c8:	e3560801 	cmp	r6, #65536	@ 0x10000
 80006cc:	e1a00006 	mov	r0, r6
 80006d0:	baffffe9 	blt	0x800067c
 80006d4:	e1a01006 	mov	r1, r6
 80006d8:	e1a000a1 	lsr	r0, r1, #1
 80006dc:	e1510005 	cmp	r1, r5
 80006e0:	e2833001 	add	r3, r3, #1
 80006e4:	e1a01000 	mov	r1, r0
 80006e8:	8afffffa 	bhi	0x80006d8
 80006ec:	e203301f 	and	r3, r3, #31
 80006f0:	e35c0001 	cmp	ip, #1
 80006f4:	aaffffe2 	bge	0x8000684
 80006f8:	e3500801 	cmp	r0, #65536	@ 0x10000
 80006fc:	2a000257 	bcs	0x8001060
 8000700:	e59f1970 	ldr	r1, [pc, #2416]	@ 0x8001078
 8000704:	e7910100 	ldr	r0, [r1, r0, lsl #2]
 8000708:	e3a01000 	mov	r1, #0
 800070c:	e0410350 	sub	r0, r1, r0, asr r3
 8000710:	e3a03000 	mov	r3, #0
 8000714:	e3560801 	cmp	r6, #65536	@ 0x10000
 8000718:	e50b006c 	str	r0, [fp, #-108]	@ 0xffffff94
 800071c:	ba00000d 	blt	0x8000758
 8000720:	e1a000a6 	lsr	r0, r6, #1
 8000724:	e1560005 	cmp	r6, r5
 8000728:	e2833001 	add	r3, r3, #1
 800072c:	e1a06000 	mov	r6, r0
 8000730:	8afffffa 	bhi	0x8000720
 8000734:	e203301f 	and	r3, r3, #31
 8000738:	e35c0001 	cmp	ip, #1
 800073c:	ba000008 	blt	0x8000764
 8000740:	e3500801 	cmp	r0, #65536	@ 0x10000
 8000744:	2a000242 	bcs	0x8001054
 8000748:	e59f1928 	ldr	r1, [pc, #2344]	@ 0x8001078
 800074c:	e7910100 	ldr	r0, [r1, r0, lsl #2]
 8000750:	e1a0c350 	asr	ip, r0, r3
 8000754:	ea000008 	b	0x800077c
 8000758:	e1a00006 	mov	r0, r6
 800075c:	e35c0001 	cmp	ip, #1
 8000760:	aafffff6 	bge	0x8000740
 8000764:	e3500801 	cmp	r0, #65536	@ 0x10000
 8000768:	2a00023c 	bcs	0x8001060
 800076c:	e59f1904 	ldr	r1, [pc, #2308]	@ 0x8001078
 8000770:	e7910100 	ldr	r0, [r1, r0, lsl #2]
 8000774:	e3a01000 	mov	r1, #0
 8000778:	e041c350 	sub	ip, r1, r0, asr r3
 800077c:	e51b0058 	ldr	r0, [fp, #-88]	@ 0xffffffa8
 8000780:	e51ba05c 	ldr	sl, [fp, #-92]	@ 0xffffffa4
 8000784:	e51b4060 	ldr	r4, [fp, #-96]	@ 0xffffffa0
 8000788:	e0831092 	umull	r1, r3, r2, r0
 800078c:	e1a06fc0 	asr	r6, r0, #31
 8000790:	e51b003c 	ldr	r0, [fp, #-60]	@ 0xffffffc4
 8000794:	e0253692 	mla	r5, r2, r6, r3
 8000798:	e1a01821 	lsr	r1, r1, #16
 800079c:	e0863a92 	umull	r3, r6, r2, sl
 80007a0:	e1811805 	orr	r1, r1, r5, lsl #16
 80007a4:	e1a05fca 	asr	r5, sl, #31
 80007a8:	e1a03823 	lsr	r3, r3, #16
 80007ac:	e0800001 	add	r0, r0, r1
 80007b0:	e51b1040 	ldr	r1, [fp, #-64]	@ 0xffffffc0
 80007b4:	e58d0064 	str	r0, [sp, #100]	@ 0x64
 80007b8:	e0409009 	sub	r9, r0, r9
 80007bc:	e0206592 	mla	r0, r2, r5, r6
 80007c0:	e1a06fc4 	asr	r6, r4, #31
 80007c4:	e1830800 	orr	r0, r3, r0, lsl #16
 80007c8:	e0853492 	umull	r3, r5, r2, r4
 80007cc:	e1a03823 	lsr	r3, r3, #16
 80007d0:	e0811000 	add	r1, r1, r0
 80007d4:	e51b004c 	ldr	r0, [fp, #-76]	@ 0xffffffb4
 80007d8:	e58d1060 	str	r1, [sp, #96]	@ 0x60
 80007dc:	e0410000 	sub	r0, r1, r0
 80007e0:	e0215692 	mla	r1, r2, r6, r5
 80007e4:	e51b606c 	ldr	r6, [fp, #-108]	@ 0xffffff94
 80007e8:	e1831801 	orr	r1, r3, r1, lsl #16
 80007ec:	e51b3044 	ldr	r3, [fp, #-68]	@ 0xffffffbc
 80007f0:	e0833001 	add	r3, r3, r1
 80007f4:	e51b1048 	ldr	r1, [fp, #-72]	@ 0xffffffb8
 80007f8:	e58d305c 	str	r3, [sp, #92]	@ 0x5c
 80007fc:	e0431001 	sub	r1, r3, r1
 8000800:	e0c5319e 	smull	r3, r5, lr, r1
 8000804:	e1a01823 	lsr	r1, r3, #16
 8000808:	e1815805 	orr	r5, r1, r5, lsl #16
 800080c:	e0c31096 	smull	r1, r3, r6, r0
 8000810:	e1a00821 	lsr	r0, r1, #16
 8000814:	e1806803 	orr	r6, r0, r3, lsl #16
 8000818:	e0c10495 	smull	r0, r1, r5, r4
 800081c:	e1a00820 	lsr	r0, r0, #16
 8000820:	e1800801 	orr	r0, r0, r1, lsl #16
 8000824:	e0c31a96 	smull	r1, r3, r6, sl
 8000828:	e51ba064 	ldr	sl, [fp, #-100]	@ 0xffffff9c
 800082c:	e1a01821 	lsr	r1, r1, #16
 8000830:	e1811803 	orr	r1, r1, r3, lsl #16
 8000834:	e081e000 	add	lr, r1, r0
 8000838:	e0c3199c 	smull	r1, r3, ip, r9
 800083c:	e1a01821 	lsr	r1, r1, #16
 8000840:	e1810803 	orr	r0, r1, r3, lsl #16
 8000844:	e51b3058 	ldr	r3, [fp, #-88]	@ 0xffffffa8
 8000848:	e0c41390 	smull	r1, r4, r0, r3
 800084c:	e3a03001 	mov	r3, #1
 8000850:	e1a01821 	lsr	r1, r1, #16
 8000854:	e1811804 	orr	r1, r1, r4, lsl #16
 8000858:	e09e1001 	adds	r1, lr, r1
 800085c:	e51be068 	ldr	lr, [fp, #-104]	@ 0xffffff98
 8000860:	52600000 	rsbpl	r0, r0, #0
 8000864:	52655000 	rsbpl	r5, r5, #0
 8000868:	52666000 	rsbpl	r6, r6, #0
 800086c:	e58d0068 	str	r0, [sp, #104]	@ 0x68
 8000870:	e1a00fa1 	lsr	r0, r1, #31
 8000874:	e58d5070 	str	r5, [sp, #112]	@ 0x70
 8000878:	e5d71004 	ldrb	r1, [r7, #4]
 800087c:	e59f57e8 	ldr	r5, [pc, #2024]	@ 0x800106c
 8000880:	e58d606c 	str	r6, [sp, #108]	@ 0x6c
 8000884:	e58d003c 	str	r0, [sp, #60]	@ 0x3c
 8000888:	e5970000 	ldr	r0, [r7]
 800088c:	e58d0058 	str	r0, [sp, #88]	@ 0x58
 8000890:	e51b0050 	ldr	r0, [fp, #-80]	@ 0xffffffb0
 8000894:	e1580000 	cmp	r8, r0
 8000898:	1afffec9 	bne	0x80003c4
 800089c:	e59d0064 	ldr	r0, [sp, #100]	@ 0x64
 80008a0:	e50b003c 	str	r0, [fp, #-60]	@ 0xffffffc4
 80008a4:	e59d0060 	ldr	r0, [sp, #96]	@ 0x60
 80008a8:	e50b0040 	str	r0, [fp, #-64]	@ 0xffffffc0
 80008ac:	e59d005c 	ldr	r0, [sp, #92]	@ 0x5c
 80008b0:	e50b0044 	str	r0, [fp, #-68]	@ 0xffffffbc
 80008b4:	ea000009 	b	0x80008e0
 80008b8:	e59d0050 	ldr	r0, [sp, #80]	@ 0x50
 80008bc:	e59d1054 	ldr	r1, [sp, #84]	@ 0x54
 80008c0:	e3100001 	tst	r0, #1
 80008c4:	e59d0064 	ldr	r0, [sp, #100]	@ 0x64
 80008c8:	e50b003c 	str	r0, [fp, #-60]	@ 0xffffffc4
 80008cc:	e59d0060 	ldr	r0, [sp, #96]	@ 0x60
 80008d0:	e50b0040 	str	r0, [fp, #-64]	@ 0xffffffc0
 80008d4:	e59d005c 	ldr	r0, [sp, #92]	@ 0x5c
 80008d8:	e50b0044 	str	r0, [fp, #-68]	@ 0xffffffbc
 80008dc:	0a0001a5 	beq	0x8000f78
 80008e0:	e21100ff 	ands	r0, r1, #255	@ 0xff
 80008e4:	0afffe60 	beq	0x800026c
 80008e8:	e3500001 	cmp	r0, #1
 80008ec:	1a000038 	bne	0x80009d4
 80008f0:	e59d7028 	ldr	r7, [sp, #40]	@ 0x28
 80008f4:	e59d3070 	ldr	r3, [sp, #112]	@ 0x70
 80008f8:	e59d6024 	ldr	r6, [sp, #36]	@ 0x24
 80008fc:	e59d406c 	ldr	r4, [sp, #108]	@ 0x6c
 8000900:	e59dc020 	ldr	ip, [sp, #32]
 8000904:	e59da068 	ldr	sl, [sp, #104]	@ 0x68
 8000908:	e0c10793 	smull	r0, r1, r3, r7
 800090c:	e1a00820 	lsr	r0, r0, #16
 8000910:	e1800801 	orr	r0, r0, r1, lsl #16
 8000914:	e0c21694 	smull	r1, r2, r4, r6
 8000918:	e1a01821 	lsr	r1, r1, #16
 800091c:	e1811802 	orr	r1, r1, r2, lsl #16
 8000920:	e0810000 	add	r0, r1, r0
 8000924:	e0c21c9a 	smull	r1, r2, sl, ip
 8000928:	e1a01821 	lsr	r1, r1, #16
 800092c:	e1811802 	orr	r1, r1, r2, lsl #16
 8000930:	e0800001 	add	r0, r0, r1
 8000934:	e1a01083 	lsl	r1, r3, #1
 8000938:	e0c32190 	smull	r2, r3, r0, r1
 800093c:	e1a01822 	lsr	r1, r2, #16
 8000940:	e1811803 	orr	r1, r1, r3, lsl #16
 8000944:	e0479001 	sub	r9, r7, r1
 8000948:	e0c21999 	smull	r1, r2, r9, r9
 800094c:	e1a01821 	lsr	r1, r1, #16
 8000950:	e1811802 	orr	r1, r1, r2, lsl #16
 8000954:	e1a02084 	lsl	r2, r4, #1
 8000958:	e0c73290 	smull	r3, r7, r0, r2
 800095c:	e1a02823 	lsr	r2, r3, #16
 8000960:	e1822807 	orr	r2, r2, r7, lsl #16
 8000964:	e0468002 	sub	r8, r6, r2
 8000968:	e0c32898 	smull	r2, r3, r8, r8
 800096c:	e1a02822 	lsr	r2, r2, #16
 8000970:	e1822803 	orr	r2, r2, r3, lsl #16
 8000974:	e0821001 	add	r1, r2, r1
 8000978:	e1a0208a 	lsl	r2, sl, #1
 800097c:	e0c73290 	smull	r3, r7, r0, r2
 8000980:	e1a00823 	lsr	r0, r3, #16
 8000984:	e1800807 	orr	r0, r0, r7, lsl #16
 8000988:	e04c6000 	sub	r6, ip, r0
 800098c:	e0c20696 	smull	r0, r2, r6, r6
 8000990:	e1a00820 	lsr	r0, r0, #16
 8000994:	e1800802 	orr	r0, r0, r2, lsl #16
 8000998:	e0910000 	adds	r0, r1, r0
 800099c:	4a00005a 	bmi	0x8000b0c
 80009a0:	e3a02000 	mov	r2, #0
 80009a4:	e150000e 	cmp	r0, lr
 80009a8:	9a00005a 	bls	0x8000b18
 80009ac:	e59d4058 	ldr	r4, [sp, #88]	@ 0x58
 80009b0:	e385380e 	orr	r3, r5, #917504	@ 0xe0000
 80009b4:	e1a010a0 	lsr	r1, r0, #1
 80009b8:	e2822001 	add	r2, r2, #1
 80009bc:	e1500003 	cmp	r0, r3
 80009c0:	e1a00001 	mov	r0, r1
 80009c4:	8afffff9 	bhi	0x80009b0
 80009c8:	e3a0001f 	mov	r0, #31
 80009cc:	e00020a2 	and	r2, r0, r2, lsr #1
 80009d0:	ea000052 	b	0x8000b20
 80009d4:	e59d0058 	ldr	r0, [sp, #88]	@ 0x58
 80009d8:	e59d1014 	ldr	r1, [sp, #20]
 80009dc:	e3a03000 	mov	r3, #0
 80009e0:	e0800180 	add	r0, r0, r0, lsl #3
 80009e4:	e0819100 	add	r9, r1, r0, lsl #2
 80009e8:	e59d003c 	ldr	r0, [sp, #60]	@ 0x3c
 80009ec:	e59d101c 	ldr	r1, [sp, #28]
 80009f0:	e3100001 	tst	r0, #1
 80009f4:	e1a00009 	mov	r0, r9
 80009f8:	12800004 	addne	r0, r0, #4
 80009fc:	e3510000 	cmp	r1, #0
 8000a00:	e590a000 	ldr	sl, [r0]
 8000a04:	e3a00000 	mov	r0, #0
 8000a08:	4a000010 	bmi	0x8000a50
 8000a0c:	e59d601c 	ldr	r6, [sp, #28]
 8000a10:	e3a07000 	mov	r7, #0
 8000a14:	e156000e 	cmp	r6, lr
 8000a18:	9a000009 	bls	0x8000a44
 8000a1c:	e59d301c 	ldr	r3, [sp, #28]
 8000a20:	e59f1644 	ldr	r1, [pc, #1604]	@ 0x800106c
 8000a24:	e1a060a3 	lsr	r6, r3, #1
 8000a28:	e2877001 	add	r7, r7, #1
 8000a2c:	e381580e 	orr	r5, r1, #917504	@ 0xe0000
 8000a30:	e1530005 	cmp	r3, r5
 8000a34:	e1a03006 	mov	r3, r6
 8000a38:	8afffff8 	bhi	0x8000a20
 8000a3c:	e3a0101f 	mov	r1, #31
 8000a40:	e00170a7 	and	r7, r1, r7, lsr #1
 8000a44:	e59f1634 	ldr	r1, [pc, #1588]	@ 0x8001080
 8000a48:	e7913106 	ldr	r3, [r1, r6, lsl #2]
 8000a4c:	e1a03753 	asr	r3, r3, r7
 8000a50:	e59d1028 	ldr	r1, [sp, #40]	@ 0x28
 8000a54:	e0c67193 	smull	r7, r6, r3, r1
 8000a58:	e59d1070 	ldr	r1, [sp, #112]	@ 0x70
 8000a5c:	e1a07827 	lsr	r7, r7, #16
 8000a60:	e1878806 	orr	r8, r7, r6, lsl #16
 8000a64:	e0c57891 	smull	r7, r5, r1, r8
 8000a68:	e59d1024 	ldr	r1, [sp, #36]	@ 0x24
 8000a6c:	e1a07827 	lsr	r7, r7, #16
 8000a70:	e1877805 	orr	r7, r7, r5, lsl #16
 8000a74:	e0c45193 	smull	r5, r4, r3, r1
 8000a78:	e59d106c 	ldr	r1, [sp, #108]	@ 0x6c
 8000a7c:	e1a05825 	lsr	r5, r5, #16
 8000a80:	e185e804 	orr	lr, r5, r4, lsl #16
 8000a84:	e0c45e91 	smull	r5, r4, r1, lr
 8000a88:	e59d1020 	ldr	r1, [sp, #32]
 8000a8c:	e1a05825 	lsr	r5, r5, #16
 8000a90:	e1855804 	orr	r5, r5, r4, lsl #16
 8000a94:	e0854007 	add	r4, r5, r7
 8000a98:	e0c57193 	smull	r7, r5, r3, r1
 8000a9c:	e59d1068 	ldr	r1, [sp, #104]	@ 0x68
 8000aa0:	e1a03827 	lsr	r3, r7, #16
 8000aa4:	e183c805 	orr	ip, r3, r5, lsl #16
 8000aa8:	e0c53c91 	smull	r3, r5, r1, ip
 8000aac:	e3a01801 	mov	r1, #65536	@ 0x10000
 8000ab0:	e1a03823 	lsr	r3, r3, #16
 8000ab4:	e1833805 	orr	r3, r3, r5, lsl #16
 8000ab8:	e0843003 	add	r3, r4, r3
 8000abc:	e2635000 	rsb	r5, r3, #0
 8000ac0:	e3550801 	cmp	r5, #65536	@ 0x10000
 8000ac4:	a1a05001 	movge	r5, r1
 8000ac8:	e0c43595 	smull	r3, r4, r5, r5
 8000acc:	e1a03823 	lsr	r3, r3, #16
 8000ad0:	e1833804 	orr	r3, r3, r4, lsl #16
 8000ad4:	e2733801 	rsbs	r3, r3, #65536	@ 0x10000
 8000ad8:	4a00003f 	bmi	0x8000bdc
 8000adc:	e59f0588 	ldr	r0, [pc, #1416]	@ 0x800106c
 8000ae0:	e3a04000 	mov	r4, #0
 8000ae4:	e1530000 	cmp	r3, r0
 8000ae8:	9a000036 	bls	0x8000bc8
 8000aec:	e51b1068 	ldr	r1, [fp, #-104]	@ 0xffffff98
 8000af0:	e1a00123 	lsr	r0, r3, #2
 8000af4:	e1530001 	cmp	r3, r1
 8000af8:	e2844001 	add	r4, r4, #1
 8000afc:	e1a03000 	mov	r3, r0
 8000b00:	8afffffa 	bhi	0x8000af0
 8000b04:	e204401f 	and	r4, r4, #31
 8000b08:	ea00002f 	b	0x8000bcc
 8000b0c:	e59d4058 	ldr	r4, [sp, #88]	@ 0x58
 8000b10:	e3a07000 	mov	r7, #0
 8000b14:	ea000004 	b	0x8000b2c
 8000b18:	e59d4058 	ldr	r4, [sp, #88]	@ 0x58
 8000b1c:	e1a01000 	mov	r1, r0
 8000b20:	e59f0558 	ldr	r0, [pc, #1368]	@ 0x8001080
 8000b24:	e7900101 	ldr	r0, [r0, r1, lsl #2]
 8000b28:	e1a07250 	asr	r7, r0, r2
 8000b2c:	e59d0018 	ldr	r0, [sp, #24]
 8000b30:	e59b1008 	ldr	r1, [fp, #8]
 8000b34:	e0804284 	add	r4, r0, r4, lsl #5
 8000b38:	e24b0038 	sub	r0, fp, #56	@ 0x38
 8000b3c:	eb002a49 	bl	0x800b468
 8000b40:	e0c10697 	smull	r0, r1, r7, r6
 8000b44:	e51b5030 	ldr	r5, [fp, #-48]	@ 0xffffffd0
 8000b48:	e51b6034 	ldr	r6, [fp, #-52]	@ 0xffffffcc
 8000b4c:	e51bc038 	ldr	ip, [fp, #-56]	@ 0xffffffc8
 8000b50:	e1a00820 	lsr	r0, r0, #16
 8000b54:	e180e801 	orr	lr, r0, r1, lsl #16
 8000b58:	e1a00004 	mov	r0, r4
 8000b5c:	e490200c 	ldr	r2, [r0], #12
 8000b60:	e0c13592 	smull	r3, r1, r2, r5
 8000b64:	e1a03823 	lsr	r3, r3, #16
 8000b68:	e1831801 	orr	r1, r3, r1, lsl #16
 8000b6c:	e081100e 	add	r1, r1, lr
 8000b70:	e51be068 	ldr	lr, [fp, #-104]	@ 0xffffff98
 8000b74:	e50b1058 	str	r1, [fp, #-88]	@ 0xffffffa8
 8000b78:	e0c31897 	smull	r1, r3, r7, r8
 8000b7c:	e1a01821 	lsr	r1, r1, #16
 8000b80:	e1811803 	orr	r1, r1, r3, lsl #16
 8000b84:	e0c53692 	smull	r3, r5, r2, r6
 8000b88:	e1a03823 	lsr	r3, r3, #16
 8000b8c:	e1833805 	orr	r3, r3, r5, lsl #16
 8000b90:	e59f54d4 	ldr	r5, [pc, #1236]	@ 0x800106c
 8000b94:	e0831001 	add	r1, r3, r1
 8000b98:	e50b105c 	str	r1, [fp, #-92]	@ 0xffffffa4
 8000b9c:	e0c31997 	smull	r1, r3, r7, r9
 8000ba0:	e1a01821 	lsr	r1, r1, #16
 8000ba4:	e1811803 	orr	r1, r1, r3, lsl #16
 8000ba8:	e0c73c92 	smull	r3, r7, r2, ip
 8000bac:	e1a02823 	lsr	r2, r3, #16
 8000bb0:	e1822807 	orr	r2, r2, r7, lsl #16
 8000bb4:	e082c001 	add	ip, r2, r1
 8000bb8:	e2842008 	add	r2, r4, #8
 8000bbc:	e2841004 	add	r1, r4, #4
 8000bc0:	e59d4040 	ldr	r4, [sp, #64]	@ 0x40
 8000bc4:	eafffdbd 	b	0x80002c0
 8000bc8:	e1a00003 	mov	r0, r3
 8000bcc:	e59f149c 	ldr	r1, [pc, #1180]	@ 0x8001070
 8000bd0:	e7910100 	ldr	r0, [r1, r0, lsl #2]
 8000bd4:	e1a00410 	lsl	r0, r0, r4
 8000bd8:	e1a00440 	asr	r0, r0, #8
 8000bdc:	e0c43a90 	smull	r3, r4, r0, sl
 8000be0:	e1a00823 	lsr	r0, r3, #16
 8000be4:	e1800804 	orr	r0, r0, r4, lsl #16
 8000be8:	e3500801 	cmp	r0, #65536	@ 0x10000
 8000bec:	ca000041 	bgt	0x8000cf8
 8000bf0:	e29a7801 	adds	r7, sl, #65536	@ 0x10000
 8000bf4:	e3a03000 	mov	r3, #0
 8000bf8:	e1a04007 	mov	r4, r7
 8000bfc:	42674000 	rsbmi	r4, r7, #0
 8000c00:	e3540801 	cmp	r4, #65536	@ 0x10000
 8000c04:	ba00000e 	blt	0x8000c44
 8000c08:	e59f145c 	ldr	r1, [pc, #1116]	@ 0x800106c
 8000c0c:	e1a000a4 	lsr	r0, r4, #1
 8000c10:	e1540001 	cmp	r4, r1
 8000c14:	e2833001 	add	r3, r3, #1
 8000c18:	e1a04000 	mov	r4, r0
 8000c1c:	8afffffa 	bhi	0x8000c0c
 8000c20:	e203301f 	and	r3, r3, #31
 8000c24:	e3570001 	cmp	r7, #1
 8000c28:	ba000008 	blt	0x8000c50
 8000c2c:	e3500801 	cmp	r0, #65536	@ 0x10000
 8000c30:	2a000107 	bcs	0x8001054
 8000c34:	e59f143c 	ldr	r1, [pc, #1084]	@ 0x8001078
 8000c38:	e7910100 	ldr	r0, [r1, r0, lsl #2]
 8000c3c:	e1a03350 	asr	r3, r0, r3
 8000c40:	ea000008 	b	0x8000c68
 8000c44:	e1a00004 	mov	r0, r4
 8000c48:	e3570001 	cmp	r7, #1
 8000c4c:	aafffff6 	bge	0x8000c2c
 8000c50:	e3500801 	cmp	r0, #65536	@ 0x10000
 8000c54:	2a000101 	bcs	0x8001060
 8000c58:	e59f1418 	ldr	r1, [pc, #1048]	@ 0x8001078
 8000c5c:	e7910100 	ldr	r0, [r1, r0, lsl #2]
 8000c60:	e3a01000 	mov	r1, #0
 8000c64:	e0413350 	sub	r3, r1, r0, asr r3
 8000c68:	e59b1008 	ldr	r1, [fp, #8]
 8000c6c:	e59f2410 	ldr	r2, [pc, #1040]	@ 0x8001084
 8000c70:	e59f6410 	ldr	r6, [pc, #1040]	@ 0x8001088
 8000c74:	e26a4801 	rsb	r4, sl, #65536	@ 0x10000
 8000c78:	e5917000 	ldr	r7, [r1]
 8000c7c:	e0202697 	mla	r0, r7, r6, r2
 8000c80:	e2657801 	rsb	r7, r5, #65536	@ 0x10000
 8000c84:	e5810000 	str	r0, [r1]
 8000c88:	e0c16797 	smull	r6, r1, r7, r7
 8000c8c:	e1a01801 	lsl	r1, r1, #16
 8000c90:	e1811826 	orr	r1, r1, r6, lsr #16
 8000c94:	e0c26791 	smull	r6, r2, r1, r7
 8000c98:	e1a01802 	lsl	r1, r2, #16
 8000c9c:	e1811826 	orr	r1, r1, r6, lsr #16
 8000ca0:	e0c62791 	smull	r2, r6, r1, r7
 8000ca4:	e1a01806 	lsl	r1, r6, #16
 8000ca8:	e1811822 	orr	r1, r1, r2, lsr #16
 8000cac:	e0c62791 	smull	r2, r6, r1, r7
 8000cb0:	e1a01806 	lsl	r1, r6, #16
 8000cb4:	e1811822 	orr	r1, r1, r2, lsr #16
 8000cb8:	e0c62493 	smull	r2, r6, r3, r4
 8000cbc:	e1a03806 	lsl	r3, r6, #16
 8000cc0:	e1832822 	orr	r2, r3, r2, lsr #16
 8000cc4:	e0c43292 	smull	r3, r4, r2, r2
 8000cc8:	e1a02823 	lsr	r2, r3, #16
 8000ccc:	e1822804 	orr	r2, r2, r4, lsl #16
 8000cd0:	e2623801 	rsb	r3, r2, #65536	@ 0x10000
 8000cd4:	e0c64391 	smull	r4, r6, r1, r3
 8000cd8:	e1a01824 	lsr	r1, r4, #16
 8000cdc:	e1811806 	orr	r1, r1, r6, lsl #16
 8000ce0:	e0811002 	add	r1, r1, r2
 8000ce4:	e3a02001 	mov	r2, #1
 8000ce8:	e00220a0 	and	r2, r2, r0, lsr #1
 8000cec:	e0820840 	add	r0, r2, r0, asr #16
 8000cf0:	e1510000 	cmp	r1, r0
 8000cf4:	da000025 	ble	0x8000d90
 8000cf8:	e59dc028 	ldr	ip, [sp, #40]	@ 0x28
 8000cfc:	e59d4070 	ldr	r4, [sp, #112]	@ 0x70
 8000d00:	e59d6024 	ldr	r6, [sp, #36]	@ 0x24
 8000d04:	e59d706c 	ldr	r7, [sp, #108]	@ 0x6c
 8000d08:	e59d5020 	ldr	r5, [sp, #32]
 8000d0c:	e59d3068 	ldr	r3, [sp, #104]	@ 0x68
 8000d10:	e51be068 	ldr	lr, [fp, #-104]	@ 0xffffff98
 8000d14:	e0c10c94 	smull	r0, r1, r4, ip
 8000d18:	e1a00820 	lsr	r0, r0, #16
 8000d1c:	e1800801 	orr	r0, r0, r1, lsl #16
 8000d20:	e0c21697 	smull	r1, r2, r7, r6
 8000d24:	e1a01821 	lsr	r1, r1, #16
 8000d28:	e1811802 	orr	r1, r1, r2, lsl #16
 8000d2c:	e0810000 	add	r0, r1, r0
 8000d30:	e0c21593 	smull	r1, r2, r3, r5
 8000d34:	e1a01821 	lsr	r1, r1, #16
 8000d38:	e1811802 	orr	r1, r1, r2, lsl #16
 8000d3c:	e0800001 	add	r0, r0, r1
 8000d40:	e1a01083 	lsl	r1, r3, #1
 8000d44:	e0c32190 	smull	r2, r3, r0, r1
 8000d48:	e1a01822 	lsr	r1, r2, #16
 8000d4c:	e1811803 	orr	r1, r1, r3, lsl #16
 8000d50:	e0451001 	sub	r1, r5, r1
 8000d54:	e59f5310 	ldr	r5, [pc, #784]	@ 0x800106c
 8000d58:	e50b1058 	str	r1, [fp, #-88]	@ 0xffffffa8
 8000d5c:	e1a01087 	lsl	r1, r7, #1
 8000d60:	e0c32190 	smull	r2, r3, r0, r1
 8000d64:	e1a01822 	lsr	r1, r2, #16
 8000d68:	e1811803 	orr	r1, r1, r3, lsl #16
 8000d6c:	e0461001 	sub	r1, r6, r1
 8000d70:	e50b105c 	str	r1, [fp, #-92]	@ 0xffffffa4
 8000d74:	e1a01084 	lsl	r1, r4, #1
 8000d78:	e59d4040 	ldr	r4, [sp, #64]	@ 0x40
 8000d7c:	e0c32190 	smull	r2, r3, r0, r1
 8000d80:	e1a00822 	lsr	r0, r2, #16
 8000d84:	e1800803 	orr	r0, r0, r3, lsl #16
 8000d88:	e04cc000 	sub	ip, ip, r0
 8000d8c:	ea00004d 	b	0x8000ec8
 8000d90:	e59d2070 	ldr	r2, [sp, #112]	@ 0x70
 8000d94:	e59d406c 	ldr	r4, [sp, #108]	@ 0x6c
 8000d98:	e59d6068 	ldr	r6, [sp, #104]	@ 0x68
 8000d9c:	e0c10295 	smull	r0, r1, r5, r2
 8000da0:	e1a00820 	lsr	r0, r0, #16
 8000da4:	e1800801 	orr	r0, r0, r1, lsl #16
 8000da8:	e0800008 	add	r0, r0, r8
 8000dac:	e0c2109a 	smull	r1, r2, sl, r0
 8000db0:	e1a00821 	lsr	r0, r1, #16
 8000db4:	e1800802 	orr	r0, r0, r2, lsl #16
 8000db8:	e0c21090 	smull	r1, r2, r0, r0
 8000dbc:	e1a01821 	lsr	r1, r1, #16
 8000dc0:	e1811802 	orr	r1, r1, r2, lsl #16
 8000dc4:	e0c32495 	smull	r2, r3, r5, r4
 8000dc8:	e59d4040 	ldr	r4, [sp, #64]	@ 0x40
 8000dcc:	e1a02822 	lsr	r2, r2, #16
 8000dd0:	e1822803 	orr	r2, r2, r3, lsl #16
 8000dd4:	e082200e 	add	r2, r2, lr
 8000dd8:	e51be068 	ldr	lr, [fp, #-104]	@ 0xffffff98
 8000ddc:	e0c7329a 	smull	r3, r7, sl, r2
 8000de0:	e1a02823 	lsr	r2, r3, #16
 8000de4:	e1827807 	orr	r7, r2, r7, lsl #16
 8000de8:	e0c32797 	smull	r2, r3, r7, r7
 8000dec:	e1a02822 	lsr	r2, r2, #16
 8000df0:	e1822803 	orr	r2, r2, r3, lsl #16
 8000df4:	e0821001 	add	r1, r2, r1
 8000df8:	e0c32695 	smull	r2, r3, r5, r6
 8000dfc:	e1a02822 	lsr	r2, r2, #16
 8000e00:	e1822803 	orr	r2, r2, r3, lsl #16
 8000e04:	e082200c 	add	r2, r2, ip
 8000e08:	e0c6329a 	smull	r3, r6, sl, r2
 8000e0c:	e1a02823 	lsr	r2, r3, #16
 8000e10:	e1822806 	orr	r2, r2, r6, lsl #16
 8000e14:	e0c63292 	smull	r3, r6, r2, r2
 8000e18:	e1a03823 	lsr	r3, r3, #16
 8000e1c:	e1833806 	orr	r3, r3, r6, lsl #16
 8000e20:	e0811003 	add	r1, r1, r3
 8000e24:	e2716801 	rsbs	r6, r1, #65536	@ 0x10000
 8000e28:	42666000 	rsbmi	r6, r6, #0
 8000e2c:	e3560000 	cmp	r6, #0
 8000e30:	4a00000a 	bmi	0x8000e60
 8000e34:	e59f1230 	ldr	r1, [pc, #560]	@ 0x800106c
 8000e38:	e3a05000 	mov	r5, #0
 8000e3c:	e1560001 	cmp	r6, r1
 8000e40:	9a000008 	bls	0x8000e68
 8000e44:	e1a03126 	lsr	r3, r6, #2
 8000e48:	e156000e 	cmp	r6, lr
 8000e4c:	e2855001 	add	r5, r5, #1
 8000e50:	e1a06003 	mov	r6, r3
 8000e54:	8afffffa 	bhi	0x8000e44
 8000e58:	e205501f 	and	r5, r5, #31
 8000e5c:	ea000002 	b	0x8000e6c
 8000e60:	e3a03000 	mov	r3, #0
 8000e64:	ea000004 	b	0x8000e7c
 8000e68:	e1a03006 	mov	r3, r6
 8000e6c:	e59f11fc 	ldr	r1, [pc, #508]	@ 0x8001070
 8000e70:	e7911103 	ldr	r1, [r1, r3, lsl #2]
 8000e74:	e1a01511 	lsl	r1, r1, r5
 8000e78:	e1a03441 	asr	r3, r1, #8
 8000e7c:	e59d5068 	ldr	r5, [sp, #104]	@ 0x68
 8000e80:	e2631000 	rsb	r1, r3, #0
 8000e84:	e0c63591 	smull	r3, r6, r1, r5
 8000e88:	e59f51dc 	ldr	r5, [pc, #476]	@ 0x800106c
 8000e8c:	e1a03823 	lsr	r3, r3, #16
 8000e90:	e1833806 	orr	r3, r3, r6, lsl #16
 8000e94:	e59d606c 	ldr	r6, [sp, #108]	@ 0x6c
 8000e98:	e0822003 	add	r2, r2, r3
 8000e9c:	e50b2058 	str	r2, [fp, #-88]	@ 0xffffffa8
 8000ea0:	e0c32691 	smull	r2, r3, r1, r6
 8000ea4:	e1a02822 	lsr	r2, r2, #16
 8000ea8:	e1822803 	orr	r2, r2, r3, lsl #16
 8000eac:	e0872002 	add	r2, r7, r2
 8000eb0:	e59d7070 	ldr	r7, [sp, #112]	@ 0x70
 8000eb4:	e50b205c 	str	r2, [fp, #-92]	@ 0xffffffa4
 8000eb8:	e0c32791 	smull	r2, r3, r1, r7
 8000ebc:	e1a01822 	lsr	r1, r2, #16
 8000ec0:	e1811803 	orr	r1, r1, r3, lsl #16
 8000ec4:	e080c001 	add	ip, r0, r1
 8000ec8:	e2890010 	add	r0, r9, #16
 8000ecc:	e289200c 	add	r2, r9, #12
 8000ed0:	e2891008 	add	r1, r9, #8
 8000ed4:	eafffcf9 	b	0x80002c0
 8000ed8:	e3a01801 	mov	r1, #65536	@ 0x10000
 8000edc:	e59d3028 	ldr	r3, [sp, #40]	@ 0x28
 8000ee0:	e59d6008 	ldr	r6, [sp, #8]
 8000ee4:	e3a00c02 	mov	r0, #512	@ 0x200
 8000ee8:	e3a07801 	mov	r7, #65536	@ 0x10000
 8000eec:	e58d104c 	str	r1, [sp, #76]	@ 0x4c
 8000ef0:	e59d1004 	ldr	r1, [sp, #4]
 8000ef4:	e3110001 	tst	r1, #1
 8000ef8:	e59d1020 	ldr	r1, [sp, #32]
 8000efc:	e50b1058 	str	r1, [fp, #-88]	@ 0xffffffa8
 8000f00:	e59d1024 	ldr	r1, [sp, #36]	@ 0x24
 8000f04:	e50b105c 	str	r1, [fp, #-92]	@ 0xffffffa4
 8000f08:	1a00000c 	bne	0x8000f40
 8000f0c:	e51b605c 	ldr	r6, [fp, #-92]	@ 0xffffffa4
 8000f10:	e0c21393 	smull	r1, r2, r3, r3
 8000f14:	e1a01821 	lsr	r1, r1, #16
 8000f18:	e1811802 	orr	r1, r1, r2, lsl #16
 8000f1c:	e0c32696 	smull	r2, r3, r6, r6
 8000f20:	e51b6058 	ldr	r6, [fp, #-88]	@ 0xffffffa8
 8000f24:	e1a02822 	lsr	r2, r2, #16
 8000f28:	e1822803 	orr	r2, r2, r3, lsl #16
 8000f2c:	e0821001 	add	r1, r2, r1
 8000f30:	e0c32696 	smull	r2, r3, r6, r6
 8000f34:	e1a02822 	lsr	r2, r2, #16
 8000f38:	e1822803 	orr	r2, r2, r3, lsl #16
 8000f3c:	e0816002 	add	r6, r1, r2
 8000f40:	e3560000 	cmp	r6, #0
 8000f44:	4a000014 	bmi	0x8000f9c
 8000f48:	e3a01000 	mov	r1, #0
 8000f4c:	e156000e 	cmp	r6, lr
 8000f50:	9a000014 	bls	0x8000fa8
 8000f54:	e385380e 	orr	r3, r5, #917504	@ 0xe0000
 8000f58:	e1a020a6 	lsr	r2, r6, #1
 8000f5c:	e1560003 	cmp	r6, r3
 8000f60:	e2811001 	add	r1, r1, #1
 8000f64:	e1a06002 	mov	r6, r2
 8000f68:	8afffffa 	bhi	0x8000f58
 8000f6c:	e3a0301f 	mov	r3, #31
 8000f70:	e00310a1 	and	r1, r3, r1, lsr #1
 8000f74:	ea00000c 	b	0x8000fac
 8000f78:	e59d0048 	ldr	r0, [sp, #72]	@ 0x48
 8000f7c:	e59d102c 	ldr	r1, [sp, #44]	@ 0x2c
 8000f80:	e59d7044 	ldr	r7, [sp, #68]	@ 0x44
 8000f84:	e51b3060 	ldr	r3, [fp, #-96]	@ 0xffffffa0
 8000f88:	e59d6030 	ldr	r6, [sp, #48]	@ 0x30
 8000f8c:	e1a003c0 	asr	r0, r0, #7
 8000f90:	e3110001 	tst	r1, #1
 8000f94:	0affffdc 	beq	0x8000f0c
 8000f98:	eaffffe8 	b	0x8000f40
 8000f9c:	e1a04007 	mov	r4, r7
 8000fa0:	e3a01000 	mov	r1, #0
 8000fa4:	ea000004 	b	0x8000fbc
 8000fa8:	e1a02006 	mov	r2, r6
 8000fac:	e59f30cc 	ldr	r3, [pc, #204]	@ 0x8001080
 8000fb0:	e1a04007 	mov	r4, r7
 8000fb4:	e7932102 	ldr	r2, [r3, r2, lsl #2]
 8000fb8:	e1a01152 	asr	r1, r2, r1
 8000fbc:	e51b705c 	ldr	r7, [fp, #-92]	@ 0xffffffa4
 8000fc0:	e59d504c 	ldr	r5, [sp, #76]	@ 0x4c
 8000fc4:	e0c32791 	smull	r2, r3, r1, r7
 8000fc8:	e1a01822 	lsr	r1, r2, #16
 8000fcc:	e1811803 	orr	r1, r1, r3, lsl #16
 8000fd0:	e2812801 	add	r2, r1, #65536	@ 0x10000
 8000fd4:	e3a01801 	mov	r1, #65536	@ 0x10000
 8000fd8:	e04130c2 	sub	r3, r1, r2, asr #1
 8000fdc:	e0831142 	add	r1, r3, r2, asr #2
 8000fe0:	e1a020c2 	asr	r2, r2, #1
 8000fe4:	e0c67591 	smull	r7, r6, r1, r5
 8000fe8:	e1a01827 	lsr	r1, r7, #16
 8000fec:	e3a07033 	mov	r7, #51	@ 0x33
 8000ff0:	e3877cb3 	orr	r7, r7, #45824	@ 0xb300
 8000ff4:	e1811806 	orr	r1, r1, r6, lsl #16
 8000ff8:	e0c56792 	smull	r6, r5, r2, r7
 8000ffc:	e1a013c1 	asr	r1, r1, #7
 8001000:	e1a02826 	lsr	r2, r6, #16
 8001004:	e1a06000 	mov	r6, r0
 8001008:	e1822805 	orr	r2, r2, r5, lsl #16
 800100c:	e0832002 	add	r2, r3, r2
 8001010:	e0c73492 	smull	r3, r7, r2, r4
 8001014:	e1a02823 	lsr	r2, r3, #16
 8001018:	e1822807 	orr	r2, r2, r7, lsl #16
 800101c:	e1a023c2 	asr	r2, r2, #7
 8001020:	e59f0064 	ldr	r0, [pc, #100]	@ 0x800108c
 8001024:	e59d700c 	ldr	r7, [sp, #12]
 8001028:	e3a05000 	mov	r5, #0
 800102c:	e7903106 	ldr	r3, [r0, r6, lsl #2]
 8001030:	e7902102 	ldr	r2, [r0, r2, lsl #2]
 8001034:	e7900101 	ldr	r0, [r0, r1, lsl #2]
 8001038:	e5c75018 	strb	r5, [r7, #24]
 800103c:	e5875014 	str	r5, [r7, #20]
 8001040:	e5c75010 	strb	r5, [r7, #16]
 8001044:	e887002d 	stm	r7, {r0, r2, r3, r5}
 8001048:	e24bd01c 	sub	sp, fp, #28
 800104c:	e8bd4ff0 	pop	{r4, r5, r6, r7, r8, r9, sl, fp, lr}
 8001050:	e12fff1e 	bx	lr
 8001054:	e59f2018 	ldr	r2, [pc, #24]	@ 0x8001074
 8001058:	e3a01801 	mov	r1, #65536	@ 0x10000
 800105c:	eb00167a 	bl	0x8006a4c
 8001060:	e59f2014 	ldr	r2, [pc, #20]	@ 0x800107c
 8001064:	e3a01801 	mov	r1, #65536	@ 0x10000
 8001068:	eb001677 	bl	0x8006a4c
 800106c:	0001ffff 	strdeq	pc, [r1], -pc	@ <UNPREDICTABLE>
 8001070:	080136f4 	stmdaeq	r1, {r2, r4, r5, r6, r7, r9, sl, ip, sp}
 8001074:	080a3714 	stmdaeq	sl, {r2, r4, r8, r9, sl, ip, sp}
 8001078:	080a3734 	stmdaeq	sl, {r2, r4, r5, r8, r9, sl, ip, sp}
 800107c:	080a3724 	stmdaeq	sl, {r2, r5, r8, r9, sl, ip, sp}
 8001080:	080e3734 	stmdaeq	lr, {r2, r4, r5, r8, r9, sl, ip, sp}
 8001084:	31415927 	cmpcc	r1, r7, lsr #18
 8001088:	01010101 	tsteq	r1, r1, lsl #2
 800108c:	080936f4 	stmdaeq	r9, {r2, r4, r5, r6, r7, r9, sl, ip, sp}
 8001090:	eb0011e0 	bl	0x8005818
 8001094:	e92d4800 	push	{fp, lr}
 8001098:	e1a0b00d 	mov	fp, sp
 800109c:	e24dd080 	sub	sp, sp, #128	@ 0x80
 80010a0:	e59f4524 	ldr	r4, [pc, #1316]	@ 0x80015cc
 80010a4:	e3a00017 	mov	r0, #23
 80010a8:	e3a02000 	mov	r2, #0
 80010ac:	e3800c43 	orr	r0, r0, #17152	@ 0x4300
 80010b0:	e1c40fb6 	strh	r0, [r4, #246]	@ 0xf6
 80010b4:	e3a00301 	mov	r0, #67108864	@ 0x4000000
 80010b8:	e1d010b0 	ldrh	r1, [r0]
 80010bc:	e3811003 	orr	r1, r1, #3
 80010c0:	e3c11084 	bic	r1, r1, #132	@ 0x84
 80010c4:	e1c010b0 	strh	r1, [r0]
 80010c8:	e1d010b0 	ldrh	r1, [r0]
 80010cc:	e2011007 	and	r1, r1, #7
 80010d0:	e3811b01 	orr	r1, r1, #1024	@ 0x400
 80010d4:	e1c010b0 	strh	r1, [r0]
 80010d8:	e3a01406 	mov	r1, #100663296	@ 0x6000000
 80010dc:	e1d402b2 	ldrh	r0, [r4, #34]	@ 0x22
 80010e0:	e3a00000 	mov	r0, #0
 80010e4:	e14400b6 	strh	r0, [r4, #-6]
 80010e8:	e14400b4 	strh	r0, [r4, #-4]
 80010ec:	e14400b2 	strh	r0, [r4, #-2]
 80010f0:	e1c400b0 	strh	r0, [r4]
 80010f4:	e3a03000 	mov	r3, #0
 80010f8:	e0817003 	add	r7, r1, r3
 80010fc:	e2833002 	add	r3, r3, #2
 8001100:	e3530e1e 	cmp	r3, #480	@ 0x1e0
 8001104:	e1c700b0 	strh	r0, [r7]
 8001108:	1afffffa 	bne	0x80010f8
 800110c:	e2822001 	add	r2, r2, #1
 8001110:	e2811e1e 	add	r1, r1, #480	@ 0x1e0
 8001114:	e35200a0 	cmp	r2, #160	@ 0xa0
 8001118:	1afffff5 	bne	0x80010f4
 800111c:	e15400b4 	ldrh	r0, [r4, #-4]
 8001120:	e3800003 	orr	r0, r0, #3
 8001124:	e14400b4 	strh	r0, [r4, #-4]
 8001128:	e1d400b0 	ldrh	r0, [r4]
 800112c:	e3c00003 	bic	r0, r0, #3
 8001130:	e1c400b0 	strh	r0, [r4]
 8001134:	e1d400b0 	ldrh	r0, [r4]
 8001138:	e3800004 	orr	r0, r0, #4
 800113c:	e1c400b0 	strh	r0, [r4]
 8001140:	e1d400b0 	ldrh	r0, [r4]
 8001144:	e3800080 	orr	r0, r0, #128	@ 0x80
 8001148:	e1c400b0 	strh	r0, [r4]
 800114c:	e15400b4 	ldrh	r0, [r4, #-4]
 8001150:	e3800080 	orr	r0, r0, #128	@ 0x80
 8001154:	e14400b4 	strh	r0, [r4, #-4]
 8001158:	eb004276 	bl	0x8011b38
 800115c:	e15400b4 	ldrh	r0, [r4, #-4]
 8001160:	e59f2468 	ldr	r2, [pc, #1128]	@ 0x80015d0
 8001164:	e3a03000 	mov	r3, #0
 8001168:	e3a05000 	mov	r5, #0
 800116c:	e3c00080 	bic	r0, r0, #128	@ 0x80
 8001170:	e14400b4 	strh	r0, [r4, #-4]
 8001174:	e1d400b0 	ldrh	r0, [r4]
 8001178:	e3c00080 	bic	r0, r0, #128	@ 0x80
 800117c:	e1c400b0 	strh	r0, [r4]
 8001180:	e15400b2 	ldrh	r0, [r4, #-2]
 8001184:	e15410b6 	ldrh	r1, [r4, #-6]
 8001188:	e58d2040 	str	r2, [sp, #64]	@ 0x40
 800118c:	e24b203c 	sub	r2, fp, #60	@ 0x3c
 8001190:	e58d203c 	str	r2, [sp, #60]	@ 0x3c
 8001194:	e3a0206b 	mov	r2, #107	@ 0x6b
 8001198:	e3822cee 	orr	r2, r2, #60928	@ 0xee00
 800119c:	e1810800 	orr	r0, r1, r0, lsl #16
 80011a0:	e0814290 	umull	r4, r1, r0, r2
 80011a4:	e59f2428 	ldr	r2, [pc, #1064]	@ 0x80015d4
 80011a8:	e1a00004 	mov	r0, r4
 80011ac:	eb003e7a 	bl	0x8010b9c
 80011b0:	e59f1420 	ldr	r1, [pc, #1056]	@ 0x80015d8
 80011b4:	e0224190 	mla	r2, r0, r1, r4
 80011b8:	e59f141c 	ldr	r1, [pc, #1052]	@ 0x80015dc
 80011bc:	e0873192 	umull	r3, r7, r2, r1
 80011c0:	e3a02ffa 	mov	r2, #1000	@ 0x3e8
 80011c4:	e3a01000 	mov	r1, #0
 80011c8:	e1a03927 	lsr	r3, r7, #18
 80011cc:	e0846290 	umull	r6, r4, r0, r2
 80011d0:	e0a13290 	umlal	r3, r1, r0, r2
 80011d4:	e0960927 	adds	r0, r6, r7, lsr #18
 80011d8:	e2b40000 	adcs	r0, r4, #0
 80011dc:	e1a00003 	mov	r0, r3
 80011e0:	e2a52000 	adc	r2, r5, #0
 80011e4:	e3a03000 	mov	r3, #0
 80011e8:	eb00415e 	bl	0x8011768
 80011ec:	e59f33ec 	ldr	r3, [pc, #1004]	@ 0x80015e0
 80011f0:	e3a02000 	mov	r2, #0
 80011f4:	eb003ebf 	bl	0x8010cf8
 80011f8:	eb003c63 	bl	0x801038c
 80011fc:	e50b003c 	str	r0, [fp, #-60]	@ 0xffffffc4
 8001200:	e3a00003 	mov	r0, #3
 8001204:	e3a01020 	mov	r1, #32
 8001208:	e24b2038 	sub	r2, fp, #56	@ 0x38
 800120c:	e50b5020 	str	r5, [fp, #-32]	@ 0xffffffe0
 8001210:	e50b5024 	str	r5, [fp, #-36]	@ 0xffffffdc
 8001214:	e50b5038 	str	r5, [fp, #-56]	@ 0xffffffc8
 8001218:	e54b001c 	strb	r0, [fp, #-28]	@ 0xffffffe4
 800121c:	e50b0034 	str	r0, [fp, #-52]	@ 0xffffffcc
 8001220:	e3a00001 	mov	r0, #1
 8001224:	e50b1028 	str	r1, [fp, #-40]	@ 0xffffffd8
 8001228:	e3a01002 	mov	r1, #2
 800122c:	e50b2008 	str	r2, [fp, #-8]
 8001230:	e50b0004 	str	r0, [fp, #-4]
 8001234:	e50b000c 	str	r0, [fp, #-12]
 8001238:	e28d003c 	add	r0, sp, #60	@ 0x3c
 800123c:	e50b1030 	str	r1, [fp, #-48]	@ 0xffffffd0
 8001240:	e50b1014 	str	r1, [fp, #-20]	@ 0xffffffec
 8001244:	e24b1018 	sub	r1, fp, #24
 8001248:	e50b0010 	str	r0, [fp, #-16]
 800124c:	e59f0390 	ldr	r0, [pc, #912]	@ 0x80015e4
 8001250:	e50b0018 	str	r0, [fp, #-24]	@ 0xffffffe8
 8001254:	e28d0030 	add	r0, sp, #48	@ 0x30
 8001258:	eb00107b 	bl	0x800544c
 800125c:	e59d0034 	ldr	r0, [sp, #52]	@ 0x34
 8001260:	e58d0008 	str	r0, [sp, #8]
 8001264:	e59d0038 	ldr	r0, [sp, #56]	@ 0x38
 8001268:	e3500000 	cmp	r0, #0
 800126c:	0a0000a0 	beq	0x80014f4
 8001270:	e59d2008 	ldr	r2, [sp, #8]
 8001274:	e3a01000 	mov	r1, #0
 8001278:	e0820000 	add	r0, r2, r0
 800127c:	e1a04002 	mov	r4, r2
 8001280:	e58d0028 	str	r0, [sp, #40]	@ 0x28
 8001284:	e59f0364 	ldr	r0, [pc, #868]	@ 0x80015f0
 8001288:	e1a02004 	mov	r2, r4
 800128c:	e0d270d1 	ldrsb	r7, [r2], #1
 8001290:	e20730ff 	and	r3, r7, #255	@ 0xff
 8001294:	e3770001 	cmn	r7, #1
 8001298:	da000001 	ble	0x80012a4
 800129c:	e58d202c 	str	r2, [sp, #44]	@ 0x2c
 80012a0:	ea000018 	b	0x8001308
 80012a4:	e5d47001 	ldrb	r7, [r4, #1]
 80012a8:	e203201f 	and	r2, r3, #31
 80012ac:	e35300e0 	cmp	r3, #224	@ 0xe0
 80012b0:	e207703f 	and	r7, r7, #63	@ 0x3f
 80012b4:	3a00000d 	bcc	0x80012f0
 80012b8:	e5d46002 	ldrb	r6, [r4, #2]
 80012bc:	e35300f0 	cmp	r3, #240	@ 0xf0
 80012c0:	e206603f 	and	r6, r6, #63	@ 0x3f
 80012c4:	e1867307 	orr	r7, r6, r7, lsl #6
 80012c8:	3a00000b 	bcc	0x80012fc
 80012cc:	e5d43003 	ldrb	r3, [r4, #3]
 80012d0:	e2022007 	and	r2, r2, #7
 80012d4:	e203303f 	and	r3, r3, #63	@ 0x3f
 80012d8:	e1833307 	orr	r3, r3, r7, lsl #6
 80012dc:	e1833902 	orr	r3, r3, r2, lsl #18
 80012e0:	e3530811 	cmp	r3, #1114112	@ 0x110000
 80012e4:	0a000082 	beq	0x80014f4
 80012e8:	e2844004 	add	r4, r4, #4
 80012ec:	ea000004 	b	0x8001304
 80012f0:	e1873302 	orr	r3, r7, r2, lsl #6
 80012f4:	e2844002 	add	r4, r4, #2
 80012f8:	ea000001 	b	0x8001304
 80012fc:	e1873602 	orr	r3, r7, r2, lsl #12
 8001300:	e2844003 	add	r4, r4, #3
 8001304:	e58d402c 	str	r4, [sp, #44]	@ 0x2c
 8001308:	e24520e9 	sub	r2, r5, #233	@ 0xe9
 800130c:	e2433020 	sub	r3, r3, #32
 8001310:	e3a0e000 	mov	lr, #0
 8001314:	e3e0803f 	mvn	r8, #63	@ 0x3f
 8001318:	e37200f1 	cmn	r2, #241	@ 0xf1
 800131c:	e20330ff 	and	r3, r3, #255	@ 0xff
 8001320:	32811008 	addcc	r1, r1, #8
 8001324:	e37200f1 	cmn	r2, #241	@ 0xf1
 8001328:	e2817007 	add	r7, r1, #7
 800132c:	33a05000 	movcc	r5, #0
 8001330:	e58d7024 	str	r7, [sp, #36]	@ 0x24
 8001334:	e2817006 	add	r7, r1, #6
 8001338:	e35500f0 	cmp	r5, #240	@ 0xf0
 800133c:	e58d7020 	str	r7, [sp, #32]
 8001340:	e2817005 	add	r7, r1, #5
 8001344:	e58d701c 	str	r7, [sp, #28]
 8001348:	e2817004 	add	r7, r1, #4
 800134c:	e58d7018 	str	r7, [sp, #24]
 8001350:	e2817003 	add	r7, r1, #3
 8001354:	e58d7014 	str	r7, [sp, #20]
 8001358:	e2817002 	add	r7, r1, #2
 800135c:	e58d7010 	str	r7, [sp, #16]
 8001360:	e2817001 	add	r7, r1, #1
 8001364:	e58d700c 	str	r7, [sp, #12]
 8001368:	e0617201 	rsb	r7, r1, r1, lsl #4
 800136c:	e1a07287 	lsl	r7, r7, #5
 8001370:	e0872085 	add	r2, r7, r5, lsl #1
 8001374:	e59f726c 	ldr	r7, [pc, #620]	@ 0x80015e8
 8001378:	e2826406 	add	r6, r2, #100663296	@ 0x6000000
 800137c:	e1a02005 	mov	r2, r5
 8001380:	23a020f0 	movcs	r2, #240	@ 0xf0
 8001384:	e353005f 	cmp	r3, #95	@ 0x5f
 8001388:	23a0305f 	movcs	r3, #95	@ 0x5f
 800138c:	e0872082 	add	r2, r7, r2, lsl #1
 8001390:	e59f7254 	ldr	r7, [pc, #596]	@ 0x80015ec
 8001394:	e087c303 	add	ip, r7, r3, lsl #6
 8001398:	e1a07005 	mov	r7, r5
 800139c:	e04c910e 	sub	r9, ip, lr, lsl #2
 80013a0:	e5d93038 	ldrb	r3, [r9, #56]	@ 0x38
 80013a4:	e3530001 	cmp	r3, #1
 80013a8:	8a00005f 	bhi	0x800152c
 80013ac:	e3750001 	cmn	r5, #1
 80013b0:	da000056 	ble	0x8001510
 80013b4:	e351009f 	cmp	r1, #159	@ 0x9f
 80013b8:	8a000063 	bhi	0x800154c
 80013bc:	e092400e 	adds	r4, r2, lr
 80013c0:	0a00005d 	beq	0x800153c
 80013c4:	e0803083 	add	r3, r0, r3, lsl #1
 80013c8:	e086a00e 	add	sl, r6, lr
 80013cc:	e1d330b0 	ldrh	r3, [r3]
 80013d0:	e1ca30b0 	strh	r3, [sl]
 80013d4:	e5d93039 	ldrb	r3, [r9, #57]	@ 0x39
 80013d8:	e3530001 	cmp	r3, #1
 80013dc:	8a000052 	bhi	0x800152c
 80013e0:	e351009f 	cmp	r1, #159	@ 0x9f
 80013e4:	2a000064 	bcs	0x800157c
 80013e8:	e0803083 	add	r3, r0, r3, lsl #1
 80013ec:	e3a04e1e 	mov	r4, #480	@ 0x1e0
 80013f0:	e1d330b0 	ldrh	r3, [r3]
 80013f4:	e18a30b4 	strh	r3, [sl, r4]
 80013f8:	e5d9303a 	ldrb	r3, [r9, #58]	@ 0x3a
 80013fc:	e3530001 	cmp	r3, #1
 8001400:	8a000049 	bhi	0x800152c
 8001404:	e351009e 	cmp	r1, #158	@ 0x9e
 8001408:	2a000063 	bcs	0x800159c
 800140c:	e0803083 	add	r3, r0, r3, lsl #1
 8001410:	e3a04d0f 	mov	r4, #960	@ 0x3c0
 8001414:	e1d330b0 	ldrh	r3, [r3]
 8001418:	e18a30b4 	strh	r3, [sl, r4]
 800141c:	e5d9303b 	ldrb	r3, [r9, #59]	@ 0x3b
 8001420:	e3530001 	cmp	r3, #1
 8001424:	8a000040 	bhi	0x800152c
 8001428:	e351009d 	cmp	r1, #157	@ 0x9d
 800142c:	2a000056 	bcs	0x800158c
 8001430:	e0803083 	add	r3, r0, r3, lsl #1
 8001434:	e3a04e5a 	mov	r4, #1440	@ 0x5a0
 8001438:	e1d330b0 	ldrh	r3, [r3]
 800143c:	e18a30b4 	strh	r3, [sl, r4]
 8001440:	e5d9303c 	ldrb	r3, [r9, #60]	@ 0x3c
 8001444:	e3530001 	cmp	r3, #1
 8001448:	8a000037 	bhi	0x800152c
 800144c:	e351009c 	cmp	r1, #156	@ 0x9c
 8001450:	2a000045 	bcs	0x800156c
 8001454:	e0803083 	add	r3, r0, r3, lsl #1
 8001458:	e3a04d1e 	mov	r4, #1920	@ 0x780
 800145c:	e1d330b0 	ldrh	r3, [r3]
 8001460:	e18a30b4 	strh	r3, [sl, r4]
 8001464:	e5d9303d 	ldrb	r3, [r9, #61]	@ 0x3d
 8001468:	e3530001 	cmp	r3, #1
 800146c:	8a00002e 	bhi	0x800152c
 8001470:	e351009b 	cmp	r1, #155	@ 0x9b
 8001474:	2a000038 	bcs	0x800155c
 8001478:	e0803083 	add	r3, r0, r3, lsl #1
 800147c:	e3a04e96 	mov	r4, #2400	@ 0x960
 8001480:	e1d330b0 	ldrh	r3, [r3]
 8001484:	e18a30b4 	strh	r3, [sl, r4]
 8001488:	e5d9303e 	ldrb	r3, [r9, #62]	@ 0x3e
 800148c:	e3530001 	cmp	r3, #1
 8001490:	8a000025 	bhi	0x800152c
 8001494:	e351009a 	cmp	r1, #154	@ 0x9a
 8001498:	2a000043 	bcs	0x80015ac
 800149c:	e0803083 	add	r3, r0, r3, lsl #1
 80014a0:	e3a04d2d 	mov	r4, #2880	@ 0xb40
 80014a4:	e1d330b0 	ldrh	r3, [r3]
 80014a8:	e18a30b4 	strh	r3, [sl, r4]
 80014ac:	e5d9303f 	ldrb	r3, [r9, #63]	@ 0x3f
 80014b0:	e3530001 	cmp	r3, #1
 80014b4:	8a00001c 	bhi	0x800152c
 80014b8:	e3510099 	cmp	r1, #153	@ 0x99
 80014bc:	2a00003e 	bcs	0x80015bc
 80014c0:	e0803083 	add	r3, r0, r3, lsl #1
 80014c4:	e3a04ed2 	mov	r4, #3360	@ 0xd20
 80014c8:	e2988008 	adds	r8, r8, #8
 80014cc:	e2877001 	add	r7, r7, #1
 80014d0:	e28ee002 	add	lr, lr, #2
 80014d4:	e1d330b0 	ldrh	r3, [r3]
 80014d8:	e18a30b4 	strh	r3, [sl, r4]
 80014dc:	1affffae 	bne	0x800139c
 80014e0:	e59d2028 	ldr	r2, [sp, #40]	@ 0x28
 80014e4:	e59d402c 	ldr	r4, [sp, #44]	@ 0x2c
 80014e8:	e2855008 	add	r5, r5, #8
 80014ec:	e1540002 	cmp	r4, r2
 80014f0:	1affff64 	bne	0x8001288
 80014f4:	e59d1030 	ldr	r1, [sp, #48]	@ 0x30
 80014f8:	e3510000 	cmp	r1, #0
 80014fc:	0a000002 	beq	0x800150c
 8001500:	e59d0008 	ldr	r0, [sp, #8]
 8001504:	e3a02001 	mov	r2, #1
 8001508:	eb000eb7 	bl	0x8004fec
 800150c:	eafffffe 	b	0x800150c
 8001510:	e59f00dc 	ldr	r0, [pc, #220]	@ 0x80015f4
 8001514:	e59f30e0 	ldr	r3, [pc, #224]	@ 0x80015fc
 8001518:	e24b2038 	sub	r2, fp, #56	@ 0x38
 800151c:	e3a0102b 	mov	r1, #43	@ 0x2b
 8001520:	e58d0000 	str	r0, [sp]
 8001524:	e59f00cc 	ldr	r0, [pc, #204]	@ 0x80015f8
 8001528:	eb0027b3 	bl	0x800b3fc
 800152c:	e59f20d0 	ldr	r2, [pc, #208]	@ 0x8001604
 8001530:	e1a00003 	mov	r0, r3
 8001534:	e3a01002 	mov	r1, #2
 8001538:	eb001543 	bl	0x8006a4c
 800153c:	e59f20bc 	ldr	r2, [pc, #188]	@ 0x8001600
 8001540:	e1a00007 	mov	r0, r7
 8001544:	e3a010f0 	mov	r1, #240	@ 0xf0
 8001548:	eb00153f 	bl	0x8006a4c
 800154c:	e59f20ac 	ldr	r2, [pc, #172]	@ 0x8001600
 8001550:	e1a00001 	mov	r0, r1
 8001554:	e3a010a0 	mov	r1, #160	@ 0xa0
 8001558:	eb00153b 	bl	0x8006a4c
 800155c:	e59f209c 	ldr	r2, [pc, #156]	@ 0x8001600
 8001560:	e59d001c 	ldr	r0, [sp, #28]
 8001564:	e3a010a0 	mov	r1, #160	@ 0xa0
 8001568:	eb001537 	bl	0x8006a4c
 800156c:	e59f208c 	ldr	r2, [pc, #140]	@ 0x8001600
 8001570:	e59d0018 	ldr	r0, [sp, #24]
 8001574:	e3a010a0 	mov	r1, #160	@ 0xa0
 8001578:	eb001533 	bl	0x8006a4c
 800157c:	e59f207c 	ldr	r2, [pc, #124]	@ 0x8001600
 8001580:	e59d000c 	ldr	r0, [sp, #12]
 8001584:	e3a010a0 	mov	r1, #160	@ 0xa0
 8001588:	eb00152f 	bl	0x8006a4c
 800158c:	e59f206c 	ldr	r2, [pc, #108]	@ 0x8001600
 8001590:	e59d0014 	ldr	r0, [sp, #20]
 8001594:	e3a010a0 	mov	r1, #160	@ 0xa0
 8001598:	eb00152b 	bl	0x8006a4c
 800159c:	e59f205c 	ldr	r2, [pc, #92]	@ 0x8001600
 80015a0:	e59d0010 	ldr	r0, [sp, #16]
 80015a4:	e3a010a0 	mov	r1, #160	@ 0xa0
 80015a8:	eb001527 	bl	0x8006a4c
 80015ac:	e59f204c 	ldr	r2, [pc, #76]	@ 0x8001600
 80015b0:	e59d0020 	ldr	r0, [sp, #32]
 80015b4:	e3a010a0 	mov	r1, #160	@ 0xa0
 80015b8:	eb001523 	bl	0x8006a4c
 80015bc:	e59f203c 	ldr	r2, [pc, #60]	@ 0x8001600
 80015c0:	e59d0024 	ldr	r0, [sp, #36]	@ 0x24
 80015c4:	e3a010a0 	mov	r1, #160	@ 0xa0
 80015c8:	eb00151f 	bl	0x8006a4c
 80015cc:	0400010e 	streq	r0, [r0], #-270	@ 0xfffffef2
 80015d0:	0800ad50 	stmdaeq	r0, {r4, r6, r8, sl, fp, sp, pc}
 80015d4:	3b9aca00 	blcc	0x66b3ddc
 80015d8:	c4653600 	strbtgt	r3, [r5], #-1536	@ 0xfffffa00
 80015dc:	431bde83 	tstmi	fp, #2096	@ 0x830
 80015e0:	408f4000 	addmi	r4, pc, r0
 80015e4:	082e3738 	stmdaeq	lr!, {r3, r4, r5, r8, r9, sl, ip, sp}
 80015e8:	fffffe20 			@ <UNDEFINED> instruction: 0xfffffe20
 80015ec:	08011ef4 	stmdaeq	r1, {r2, r4, r5, r6, r7, r9, sl, fp, ip}
 80015f0:	08011df8 	stmdaeq	r1, {r3, r4, r5, r6, r7, r8, sl, fp, ip}
 80015f4:	082e3948 	stmdaeq	lr!, {r3, r6, r8, fp, ip, sp}
 80015f8:	082fcc34 	stmdaeq	pc!, {r2, r4, r5, sl, fp, lr, pc}	@ <UNPREDICTABLE>
 80015fc:	082e3820 	stmdaeq	lr!, {r5, fp, ip, sp}
 8001600:	082e3a30 	stmdaeq	lr!, {r4, r5, r9, fp, ip, sp}
 8001604:	082fdf34 	stmdaeq	pc!, {r2, r4, r5, r8, r9, sl, fp, ip, lr, pc}	@ <UNPREDICTABLE>
 8001608:	e92d4800 	push	{fp, lr}
 800160c:	e1a0b00d 	mov	fp, sp
 8001610:	e3a02f82 	mov	r2, #520	@ 0x208
 8001614:	e3822301 	orr	r2, r2, #67108864	@ 0x4000000
 8001618:	e1d230b0 	ldrh	r3, [r2]
 800161c:	e3a03000 	mov	r3, #0
 8001620:	e1c230b0 	strh	r3, [r2]
 8001624:	ebffffff 	bl	0x8001628
 8001628:	e92d4800 	push	{fp, lr}
 800162c:	e1a0b00d 	mov	fp, sp
 8001630:	e3a020ba 	mov	r2, #186	@ 0xba
 8001634:	e3a0c0ff 	mov	ip, #255	@ 0xff
 8001638:	e3822301 	orr	r2, r2, #67108864	@ 0x4000000
 800163c:	e38ccc7f 	orr	ip, ip, #32512	@ 0x7f00
 8001640:	e1d230b0 	ldrh	r3, [r2]
 8001644:	e1d2e0bc 	ldrh	lr, [r2, #12]
 8001648:	e1d241b8 	ldrh	r4, [r2, #24]
 800164c:	e003300c 	and	r3, r3, ip
 8001650:	e1c230b0 	strh	r3, [r2]
 8001654:	e00e300c 	and	r3, lr, ip
 8001658:	e1c230bc 	strh	r3, [r2, #12]
 800165c:	e004300c 	and	r3, r4, ip
 8001660:	e1c231b8 	strh	r3, [r2, #24]
 8001664:	ebffffff 	bl	0x8001668
 8001668:	e92d4800 	push	{fp, lr}
 800166c:	e1a0b00d 	mov	fp, sp
 8001670:	e24dd0e8 	sub	sp, sp, #232	@ 0xe8
 8001674:	e3a02006 	mov	r2, #6
 8001678:	e3a05000 	mov	r5, #0
 800167c:	e3a03301 	mov	r3, #67108864	@ 0x4000000
 8001680:	e3a06406 	mov	r6, #100663296	@ 0x6000000
 8001684:	e3822301 	orr	r2, r2, #67108864	@ 0x4000000
 8001688:	e58250d6 	str	r5, [r2, #214]	@ 0xd6
 800168c:	e1d320b0 	ldrh	r2, [r3]
 8001690:	e3822003 	orr	r2, r2, #3
 8001694:	e3c22084 	bic	r2, r2, #132	@ 0x84
 8001698:	e1c320b0 	strh	r2, [r3]
 800169c:	e1d320b0 	ldrh	r2, [r3]
 80016a0:	e2022007 	and	r2, r2, #7
 80016a4:	e3822b01 	orr	r2, r2, #1024	@ 0x400
 80016a8:	e1c320b0 	strh	r2, [r3]
 80016ac:	e3a020ff 	mov	r2, #255	@ 0xff
 80016b0:	e3822cff 	orr	r2, r2, #65280	@ 0xff00
 80016b4:	e3a03000 	mov	r3, #0
 80016b8:	e0867003 	add	r7, r6, r3
 80016bc:	e2833002 	add	r3, r3, #2
 80016c0:	e3530e1e 	cmp	r3, #480	@ 0x1e0
 80016c4:	e1c720b0 	strh	r2, [r7]
 80016c8:	1afffffa 	bne	0x80016b8
 80016cc:	e2855001 	add	r5, r5, #1
 80016d0:	e2866e1e 	add	r6, r6, #480	@ 0x1e0
 80016d4:	e35500a0 	cmp	r5, #160	@ 0xa0
 80016d8:	1afffff5 	bne	0x80016b4
 80016dc:	e58d1058 	str	r1, [sp, #88]	@ 0x58
 80016e0:	e59f1ff0 	ldr	r1, [pc, #4080]	@ 0x80026d8
 80016e4:	e58d0054 	str	r0, [sp, #84]	@ 0x54
 80016e8:	e50b0040 	str	r0, [fp, #-64]	@ 0xffffffc0
 80016ec:	e59f0fe8 	ldr	r0, [pc, #4072]	@ 0x80026dc
 80016f0:	e28d4064 	add	r4, sp, #100	@ 0x64
 80016f4:	e3a02002 	mov	r2, #2
 80016f8:	e3a05000 	mov	r5, #0
 80016fc:	e24b6048 	sub	r6, fp, #72	@ 0x48
 8001700:	e50b500c 	str	r5, [fp, #-12]
 8001704:	e50b2018 	str	r2, [fp, #-24]	@ 0xffffffe8
 8001708:	e50b2010 	str	r2, [fp, #-16]
 800170c:	e50b6014 	str	r6, [fp, #-20]	@ 0xffffffec
 8001710:	e50b101c 	str	r1, [fp, #-28]	@ 0xffffffe4
 8001714:	e59f1fc4 	ldr	r1, [pc, #4036]	@ 0x80026e0
 8001718:	e50b0044 	str	r0, [fp, #-68]	@ 0xffffffbc
 800171c:	e59f0fc0 	ldr	r0, [pc, #4032]	@ 0x80026e4
 8001720:	e50b103c 	str	r1, [fp, #-60]	@ 0xffffffc4
 8001724:	e50b0048 	str	r0, [fp, #-72]	@ 0xffffffb8
 8001728:	e24b101c 	sub	r1, fp, #28
 800172c:	e1a00004 	mov	r0, r4
 8001730:	eb000f45 	bl	0x800544c
 8001734:	e59f8ff4 	ldr	r8, [pc, #4084]	@ 0x8002730
 8001738:	e3e00021 	mvn	r0, #33	@ 0x21
 800173c:	e3a090ea 	mov	r9, #234	@ 0xea
 8001740:	e2400c3f 	sub	r0, r0, #16128	@ 0x3f00
 8001744:	e3899c1d 	orr	r9, r9, #7424	@ 0x1d00
 8001748:	e1c800b0 	strh	r0, [r8]
 800174c:	e1d800b0 	ldrh	r0, [r8]
 8001750:	e1500009 	cmp	r0, r9
 8001754:	1a00001d 	bne	0x80017d0
 8001758:	e59f1fd4 	ldr	r1, [pc, #4052]	@ 0x8002734
 800175c:	e3a00001 	mov	r0, #1
 8001760:	e24b201c 	sub	r2, fp, #28
 8001764:	e50b5038 	str	r5, [fp, #-56]	@ 0xffffffc8
 8001768:	e58d4070 	str	r4, [sp, #112]	@ 0x70
 800176c:	e50b5024 	str	r5, [fp, #-36]	@ 0xffffffdc
 8001770:	e50b500c 	str	r5, [fp, #-12]
 8001774:	e50b6060 	str	r6, [fp, #-96]	@ 0xffffffa0
 8001778:	e50b0044 	str	r0, [fp, #-68]	@ 0xffffffbc
 800177c:	e50b003c 	str	r0, [fp, #-60]	@ 0xffffffc4
 8001780:	e50b0018 	str	r0, [fp, #-24]	@ 0xffffffe8
 8001784:	e50b0010 	str	r0, [fp, #-16]
 8001788:	e24b0060 	sub	r0, fp, #96	@ 0x60
 800178c:	e50b0014 	str	r0, [fp, #-20]	@ 0xffffffec
 8001790:	e59f0ff0 	ldr	r0, [pc, #4080]	@ 0x8002788
 8001794:	e50b1048 	str	r1, [fp, #-72]	@ 0xffffffb8
 8001798:	e28d1070 	add	r1, sp, #112	@ 0x70
 800179c:	e50b1040 	str	r1, [fp, #-64]	@ 0xffffffc0
 80017a0:	e59f1fe4 	ldr	r1, [pc, #4068]	@ 0x800278c
 80017a4:	e50b005c 	str	r0, [fp, #-92]	@ 0xffffffa4
 80017a8:	e24b0024 	sub	r0, fp, #36	@ 0x24
 80017ac:	e58d1074 	str	r1, [sp, #116]	@ 0x74
 80017b0:	e59f1fd8 	ldr	r1, [pc, #4056]	@ 0x8002790
 80017b4:	e50b101c 	str	r1, [fp, #-28]	@ 0xffffffe4
 80017b8:	e59f1fd4 	ldr	r1, [pc, #4052]	@ 0x8002794
 80017bc:	eb001319 	bl	0x8006428
 80017c0:	e3500000 	cmp	r0, #0
 80017c4:	03a00003 	moveq	r0, #3
 80017c8:	03800c01 	orreq	r0, r0, #256	@ 0x100
 80017cc:	014808b0 	strheq	r0, [r8, #-128]	@ 0xffffff80
 80017d0:	e59f4fc0 	ldr	r4, [pc, #4032]	@ 0x8002798
 80017d4:	e59d0068 	ldr	r0, [sp, #104]	@ 0x68
 80017d8:	e3a0a0de 	mov	sl, #222	@ 0xde
 80017dc:	e38aa903 	orr	sl, sl, #49152	@ 0xc000
 80017e0:	e594600c 	ldr	r6, [r4, #12]
 80017e4:	e58d005c 	str	r0, [sp, #92]	@ 0x5c
 80017e8:	e59d006c 	ldr	r0, [sp, #108]	@ 0x6c
 80017ec:	e3560000 	cmp	r6, #0
 80017f0:	e58d0050 	str	r0, [sp, #80]	@ 0x50
 80017f4:	0a000009 	beq	0x8001820
 80017f8:	e284000c 	add	r0, r4, #12
 80017fc:	e5961000 	ldr	r1, [r6]
 8001800:	e35100d8 	cmp	r1, #216	@ 0xd8
 8001804:	0a00001b 	beq	0x8001878
 8001808:	e35100e0 	cmp	r1, #224	@ 0xe0
 800180c:	2a00001f 	bcs	0x8001890
 8001810:	e1a00006 	mov	r0, r6
 8001814:	e5b06004 	ldr	r6, [r0, #4]!
 8001818:	e3560000 	cmp	r6, #0
 800181c:	1afffff6 	bne	0x80017fc
 8001820:	e5940008 	ldr	r0, [r4, #8]
 8001824:	e3500000 	cmp	r0, #0
 8001828:	1a000002 	bne	0x8001838
 800182c:	e5940000 	ldr	r0, [r4]
 8001830:	e1a0e00f 	mov	lr, pc
 8001834:	e12fff10 	bx	r0
 8001838:	e2601000 	rsb	r1, r0, #0
 800183c:	e2011007 	and	r1, r1, #7
 8001840:	e0816000 	add	r6, r1, r0
 8001844:	e5940004 	ldr	r0, [r4, #4]
 8001848:	e28650d8 	add	r5, r6, #216	@ 0xd8
 800184c:	e1a0e00f 	mov	lr, pc
 8001850:	e12fff10 	bx	r0
 8001854:	e1550000 	cmp	r5, r0
 8001858:	2a000034 	bcs	0x8001930
 800185c:	e3560000 	cmp	r6, #0
 8001860:	e5845008 	str	r5, [r4, #8]
 8001864:	0a000031 	beq	0x8001930
 8001868:	e594700c 	ldr	r7, [r4, #12]
 800186c:	e3570000 	cmp	r7, #0
 8001870:	1a00000f 	bne	0x80018b4
 8001874:	ea000018 	b	0x80018dc
 8001878:	e5961004 	ldr	r1, [r6, #4]
 800187c:	e5801000 	str	r1, [r0]
 8001880:	e594700c 	ldr	r7, [r4, #12]
 8001884:	e3570000 	cmp	r7, #0
 8001888:	1a000009 	bne	0x80018b4
 800188c:	ea000012 	b	0x80018dc
 8001890:	e24110d8 	sub	r1, r1, #216	@ 0xd8
 8001894:	e1a02006 	mov	r2, r6
 8001898:	e5a210d8 	str	r1, [r2, #216]!	@ 0xd8
 800189c:	e51210d4 	ldr	r1, [r2, #-212]	@ 0xffffff2c
 80018a0:	e5821004 	str	r1, [r2, #4]
 80018a4:	e5802000 	str	r2, [r0]
 80018a8:	e594700c 	ldr	r7, [r4, #12]
 80018ac:	e3570000 	cmp	r7, #0
 80018b0:	0a000009 	beq	0x80018dc
 80018b4:	e284000c 	add	r0, r4, #12
 80018b8:	e5971000 	ldr	r1, [r7]
 80018bc:	e35100d8 	cmp	r1, #216	@ 0xd8
 80018c0:	0a00003d 	beq	0x80019bc
 80018c4:	e35100e0 	cmp	r1, #224	@ 0xe0
 80018c8:	2a00003e 	bcs	0x80019c8
 80018cc:	e1a00007 	mov	r0, r7
 80018d0:	e5b07004 	ldr	r7, [r0, #4]!
 80018d4:	e3570000 	cmp	r7, #0
 80018d8:	1afffff6 	bne	0x80018b8
 80018dc:	e5940008 	ldr	r0, [r4, #8]
 80018e0:	e3500000 	cmp	r0, #0
 80018e4:	1a000002 	bne	0x80018f4
 80018e8:	e5940000 	ldr	r0, [r4]
 80018ec:	e1a0e00f 	mov	lr, pc
 80018f0:	e12fff10 	bx	r0
 80018f4:	e2601000 	rsb	r1, r0, #0
 80018f8:	e2011007 	and	r1, r1, #7
 80018fc:	e0817000 	add	r7, r1, r0
 8001900:	e5940004 	ldr	r0, [r4, #4]
 8001904:	e28750d8 	add	r5, r7, #216	@ 0xd8
 8001908:	e1a0e00f 	mov	lr, pc
 800190c:	e12fff10 	bx	r0
 8001910:	e1550000 	cmp	r5, r0
 8001914:	2a000002 	bcs	0x8001924
 8001918:	e3570000 	cmp	r7, #0
 800191c:	e5845008 	str	r5, [r4, #8]
 8001920:	1a00002e 	bne	0x80019e0
 8001924:	e1a00006 	mov	r0, r6
 8001928:	e3a010d4 	mov	r1, #212	@ 0xd4
 800192c:	eb000aa5 	bl	0x80043c8
 8001930:	e1c8a0b0 	strh	sl, [r8]
 8001934:	e3a06008 	mov	r6, #8
 8001938:	e1d800b0 	ldrh	r0, [r8]
 800193c:	e1500009 	cmp	r0, r9
 8001940:	1a0004db 	bne	0x8002cb4
 8001944:	e3a00000 	mov	r0, #0
 8001948:	e59f2fb0 	ldr	r2, [pc, #4016]	@ 0x8002900
 800194c:	e3a01001 	mov	r1, #1
 8001950:	e50b0038 	str	r0, [fp, #-56]	@ 0xffffffc8
 8001954:	e50b003c 	str	r0, [fp, #-60]	@ 0xffffffc4
 8001958:	e58d0070 	str	r0, [sp, #112]	@ 0x70
 800195c:	e50b000c 	str	r0, [fp, #-12]
 8001960:	e59f0e28 	ldr	r0, [pc, #3624]	@ 0x8002790
 8001964:	e50b1044 	str	r1, [fp, #-68]	@ 0xffffffbc
 8001968:	e50b1018 	str	r1, [fp, #-24]	@ 0xffffffe8
 800196c:	e50b1010 	str	r1, [fp, #-16]
 8001970:	e59f1e1c 	ldr	r1, [pc, #3612]	@ 0x8002794
 8001974:	e50b2048 	str	r2, [fp, #-72]	@ 0xffffffb8
 8001978:	e3a02004 	mov	r2, #4
 800197c:	e50b001c 	str	r0, [fp, #-28]	@ 0xffffffe4
 8001980:	e24b0060 	sub	r0, fp, #96	@ 0x60
 8001984:	e50b2040 	str	r2, [fp, #-64]	@ 0xffffffc0
 8001988:	e24b201c 	sub	r2, fp, #28
 800198c:	e50b0014 	str	r0, [fp, #-20]	@ 0xffffffec
 8001990:	e59f0df0 	ldr	r0, [pc, #3568]	@ 0x8002788
 8001994:	e50b005c 	str	r0, [fp, #-92]	@ 0xffffffa4
 8001998:	e24b0048 	sub	r0, fp, #72	@ 0x48
 800199c:	e50b0060 	str	r0, [fp, #-96]	@ 0xffffffa0
 80019a0:	e28d0070 	add	r0, sp, #112	@ 0x70
 80019a4:	eb00129f 	bl	0x8006428
 80019a8:	e3500000 	cmp	r0, #0
 80019ac:	03a00003 	moveq	r0, #3
 80019b0:	03800c01 	orreq	r0, r0, #256	@ 0x100
 80019b4:	014808b0 	strheq	r0, [r8, #-128]	@ 0xffffff80
 80019b8:	ea0004bd 	b	0x8002cb4
 80019bc:	e5971004 	ldr	r1, [r7, #4]
 80019c0:	e5801000 	str	r1, [r0]
 80019c4:	ea000005 	b	0x80019e0
 80019c8:	e24110d8 	sub	r1, r1, #216	@ 0xd8
 80019cc:	e1a02007 	mov	r2, r7
 80019d0:	e5a210d8 	str	r1, [r2, #216]!	@ 0xd8
 80019d4:	e51210d4 	ldr	r1, [r2, #-212]	@ 0xffffff2c
 80019d8:	e5821004 	str	r1, [r2, #4]
 80019dc:	e5802000 	str	r2, [r0]
 80019e0:	e1a00006 	mov	r0, r6
 80019e4:	e3a010d3 	mov	r1, #211	@ 0xd3
 80019e8:	eb004054 	bl	0x8011b40
 80019ec:	e3a04000 	mov	r4, #0
 80019f0:	e1a00007 	mov	r0, r7
 80019f4:	e3a010d3 	mov	r1, #211	@ 0xd3
 80019f8:	e5c640d3 	strb	r4, [r6, #211]	@ 0xd3
 80019fc:	eb00404f 	bl	0x8011b40
 8001a00:	e59d0050 	ldr	r0, [sp, #80]	@ 0x50
 8001a04:	e5c740d3 	strb	r4, [r7, #211]	@ 0xd3
 8001a08:	e58d604c 	str	r6, [sp, #76]	@ 0x4c
 8001a0c:	e58d7048 	str	r7, [sp, #72]	@ 0x48
 8001a10:	e3500000 	cmp	r0, #0
 8001a14:	0a000028 	beq	0x8001abc
 8001a18:	e59d105c 	ldr	r1, [sp, #92]	@ 0x5c
 8001a1c:	e24b501c 	sub	r5, fp, #28
 8001a20:	e081e000 	add	lr, r1, r0
 8001a24:	e1a00001 	mov	r0, r1
 8001a28:	ea000003 	b	0x8001a3c
 8001a2c:	e1a00002 	mov	r0, r2
 8001a30:	e2411030 	sub	r1, r1, #48	@ 0x30
 8001a34:	e351000a 	cmp	r1, #10
 8001a38:	2a000077 	bcs	0x8001c1c
 8001a3c:	e150000e 	cmp	r0, lr
 8001a40:	0a000030 	beq	0x8001b08
 8001a44:	e1a02000 	mov	r2, r0
 8001a48:	e0d230d1 	ldrsb	r3, [r2], #1
 8001a4c:	e20310ff 	and	r1, r3, #255	@ 0xff
 8001a50:	e3730001 	cmn	r3, #1
 8001a54:	cafffff4 	bgt	0x8001a2c
 8001a58:	e5d03001 	ldrb	r3, [r0, #1]
 8001a5c:	e201201f 	and	r2, r1, #31
 8001a60:	e35100e0 	cmp	r1, #224	@ 0xe0
 8001a64:	e203303f 	and	r3, r3, #63	@ 0x3f
 8001a68:	3a00000d 	bcc	0x8001aa4
 8001a6c:	e5d07002 	ldrb	r7, [r0, #2]
 8001a70:	e35100f0 	cmp	r1, #240	@ 0xf0
 8001a74:	e207703f 	and	r7, r7, #63	@ 0x3f
 8001a78:	e1873303 	orr	r3, r7, r3, lsl #6
 8001a7c:	3a00000b 	bcc	0x8001ab0
 8001a80:	e5d01003 	ldrb	r1, [r0, #3]
 8001a84:	e2022007 	and	r2, r2, #7
 8001a88:	e201103f 	and	r1, r1, #63	@ 0x3f
 8001a8c:	e1811303 	orr	r1, r1, r3, lsl #6
 8001a90:	e1811902 	orr	r1, r1, r2, lsl #18
 8001a94:	e3510811 	cmp	r1, #1114112	@ 0x110000
 8001a98:	0a00001a 	beq	0x8001b08
 8001a9c:	e2800004 	add	r0, r0, #4
 8001aa0:	eaffffe2 	b	0x8001a30
 8001aa4:	e1831302 	orr	r1, r3, r2, lsl #6
 8001aa8:	e2800002 	add	r0, r0, #2
 8001aac:	eaffffdf 	b	0x8001a30
 8001ab0:	e1831602 	orr	r1, r3, r2, lsl #12
 8001ab4:	e2800003 	add	r0, r0, #3
 8001ab8:	eaffffdc 	b	0x8001a30
 8001abc:	e3a040d4 	mov	r4, #212	@ 0xd4
 8001ac0:	e24b001c 	sub	r0, fp, #28
 8001ac4:	e3a01004 	mov	r1, #4
 8001ac8:	e3a02000 	mov	r2, #0
 8001acc:	e1a03007 	mov	r3, r7
 8001ad0:	e58d4000 	str	r4, [sp]
 8001ad4:	eb00269d 	bl	0x800b550
 8001ad8:	e51b201c 	ldr	r2, [fp, #-28]	@ 0xffffffe4
 8001adc:	e55b0013 	ldrb	r0, [fp, #-19]	@ 0xffffffed
 8001ae0:	e55b1014 	ldrb	r1, [fp, #-20]	@ 0xffffffec
 8001ae4:	e51b3018 	ldr	r3, [fp, #-24]	@ 0xffffffe8
 8001ae8:	e3520002 	cmp	r2, #2
 8001aec:	1a0002d2 	bne	0x800263c
 8001af0:	e58d000c 	str	r0, [sp, #12]
 8001af4:	e24b0060 	sub	r0, fp, #96	@ 0x60
 8001af8:	e58d6000 	str	r6, [sp]
 8001afc:	e58d4004 	str	r4, [sp, #4]
 8001b00:	e58d1008 	str	r1, [sp, #8]
 8001b04:	ea0003f2 	b	0x8002ad4
 8001b08:	e59d3050 	ldr	r3, [sp, #80]	@ 0x50
 8001b0c:	e3a0000a 	mov	r0, #10
 8001b10:	e3a06007 	mov	r6, #7
 8001b14:	e0821093 	umull	r1, r2, r3, r0
 8001b18:	e59f0fdc 	ldr	r0, [pc, #4060]	@ 0x8002afc
 8001b1c:	e2811002 	add	r1, r1, #2
 8001b20:	e0873091 	umull	r3, r7, r1, r0
 8001b24:	e11600a7 	tst	r6, r7, lsr #1
 8001b28:	e3a03001 	mov	r3, #1
 8001b2c:	e1a00227 	lsr	r0, r7, #4
 8001b30:	e59d604c 	ldr	r6, [sp, #76]	@ 0x4c
 8001b34:	10830227 	addne	r0, r3, r7, lsr #4
 8001b38:	e2713000 	rsbs	r3, r1, #0
 8001b3c:	e0a11003 	adc	r1, r1, r3
 8001b40:	e3520000 	cmp	r2, #0
 8001b44:	13a02001 	movne	r2, #1
 8001b48:	e1921001 	orrs	r1, r2, r1
 8001b4c:	1a000032 	bne	0x8001c1c
 8001b50:	e35000d4 	cmp	r0, #212	@ 0xd4
 8001b54:	8a000030 	bhi	0x8001c1c
 8001b58:	e3a000d4 	mov	r0, #212	@ 0xd4
 8001b5c:	e3a01000 	mov	r1, #0
 8001b60:	e24b401c 	sub	r4, fp, #28
 8001b64:	e50b601c 	str	r6, [fp, #-28]	@ 0xffffffe4
 8001b68:	e50b0018 	str	r0, [fp, #-24]	@ 0xffffffe8
 8001b6c:	e59d0050 	ldr	r0, [sp, #80]	@ 0x50
 8001b70:	e50b1014 	str	r1, [fp, #-20]	@ 0xffffffec
 8001b74:	e2405001 	sub	r5, r0, #1
 8001b78:	e3a00000 	mov	r0, #0
 8001b7c:	ea000007 	b	0x8001ba0
 8001b80:	e1a00004 	mov	r0, r4
 8001b84:	e3a0200a 	mov	r2, #10
 8001b88:	eb00313b 	bl	0x800e07c
 8001b8c:	e3a01000 	mov	r1, #0
 8001b90:	e3550000 	cmp	r5, #0
 8001b94:	e3a00000 	mov	r0, #0
 8001b98:	0a000013 	beq	0x8001bec
 8001b9c:	e2455001 	sub	r5, r5, #1
 8001ba0:	e59d305c 	ldr	r3, [sp, #92]	@ 0x5c
 8001ba4:	e4d32001 	ldrb	r2, [r3], #1
 8001ba8:	e2422030 	sub	r2, r2, #48	@ 0x30
 8001bac:	e58d305c 	str	r3, [sp, #92]	@ 0x5c
 8001bb0:	e20220ff 	and	r2, r2, #255	@ 0xff
 8001bb4:	e352000a 	cmp	r2, #10
 8001bb8:	2a0004ca 	bcs	0x8002ee8
 8001bbc:	e0811101 	add	r1, r1, r1, lsl #2
 8001bc0:	e2800001 	add	r0, r0, #1
 8001bc4:	e0821081 	add	r1, r2, r1, lsl #1
 8001bc8:	e20020ff 	and	r2, r0, #255	@ 0xff
 8001bcc:	e3520003 	cmp	r2, #3
 8001bd0:	0affffea 	beq	0x8001b80
 8001bd4:	e3550000 	cmp	r5, #0
 8001bd8:	1affffef 	bne	0x8001b9c
 8001bdc:	e0800080 	add	r0, r0, r0, lsl #1
 8001be0:	e2802001 	add	r2, r0, #1
 8001be4:	e24b001c 	sub	r0, fp, #28
 8001be8:	eb003123 	bl	0x800e07c
 8001bec:	e51b1014 	ldr	r1, [fp, #-20]	@ 0xffffffec
 8001bf0:	e51b0018 	ldr	r0, [fp, #-24]	@ 0xffffffe8
 8001bf4:	e3510000 	cmp	r1, #0
 8001bf8:	0a000003 	beq	0x8001c0c
 8001bfc:	e2412001 	sub	r2, r1, #1
 8001c00:	e1a021a2 	lsr	r2, r2, #3
 8001c04:	e1520000 	cmp	r2, r0
 8001c08:	2a0004c8 	bcs	0x8002f30
 8001c0c:	e51b701c 	ldr	r7, [fp, #-28]	@ 0xffffffe4
 8001c10:	e3a02000 	mov	r2, #0
 8001c14:	e59d3050 	ldr	r3, [sp, #80]	@ 0x50
 8001c18:	ea000394 	b	0x8002a70
 8001c1c:	e59f1fa8 	ldr	r1, [pc, #4008]	@ 0x8002bcc
 8001c20:	e59fafa8 	ldr	sl, [pc, #4008]	@ 0x8002bd0
 8001c24:	e59fcfa8 	ldr	ip, [pc, #4008]	@ 0x8002bd4
 8001c28:	e59d905c 	ldr	r9, [sp, #92]	@ 0x5c
 8001c2c:	e58de040 	str	lr, [sp, #64]	@ 0x40
 8001c30:	e2810003 	add	r0, r1, #3
 8001c34:	e3c00003 	bic	r0, r0, #3
 8001c38:	e0404001 	sub	r4, r0, r1
 8001c3c:	e0412000 	sub	r2, r1, r0
 8001c40:	e2450001 	sub	r0, r5, #1
 8001c44:	e58d002c 	str	r0, [sp, #44]	@ 0x2c
 8001c48:	e3850003 	orr	r0, r5, #3
 8001c4c:	e58d203c 	str	r2, [sp, #60]	@ 0x3c
 8001c50:	e58d4034 	str	r4, [sp, #52]	@ 0x34
 8001c54:	e58d0028 	str	r0, [sp, #40]	@ 0x28
 8001c58:	e3850002 	orr	r0, r5, #2
 8001c5c:	e58d0024 	str	r0, [sp, #36]	@ 0x24
 8001c60:	e3850001 	orr	r0, r5, #1
 8001c64:	e58d0030 	str	r0, [sp, #48]	@ 0x30
 8001c68:	ea000002 	b	0x8001c78
 8001c6c:	e59d4034 	ldr	r4, [sp, #52]	@ 0x34
 8001c70:	e159000e 	cmp	r9, lr
 8001c74:	0a000276 	beq	0x8002654
 8001c78:	e1a00009 	mov	r0, r9
 8001c7c:	e0d010d1 	ldrsb	r1, [r0], #1
 8001c80:	e20180ff 	and	r8, r1, #255	@ 0xff
 8001c84:	e3710001 	cmn	r1, #1
 8001c88:	da00000c 	ble	0x8001cc0
 8001c8c:	e1a09000 	mov	r9, r0
 8001c90:	e20800ff 	and	r0, r8, #255	@ 0xff
 8001c94:	e3540000 	cmp	r4, #0
 8001c98:	0a00001d 	beq	0x8001d14
 8001c9c:	e59f1f28 	ldr	r1, [pc, #3880]	@ 0x8002bcc
 8001ca0:	e59d203c 	ldr	r2, [sp, #60]	@ 0x3c
 8001ca4:	e4d13001 	ldrb	r3, [r1], #1
 8001ca8:	e1530000 	cmp	r3, r0
 8001cac:	0affffef 	beq	0x8001c70
 8001cb0:	e2922001 	adds	r2, r2, #1
 8001cb4:	3afffffa 	bcc	0x8001ca4
 8001cb8:	e1a01004 	mov	r1, r4
 8001cbc:	ea000015 	b	0x8001d18
 8001cc0:	e5d91001 	ldrb	r1, [r9, #1]
 8001cc4:	e208001f 	and	r0, r8, #31
 8001cc8:	e35800e0 	cmp	r8, #224	@ 0xe0
 8001ccc:	e201103f 	and	r1, r1, #63	@ 0x3f
 8001cd0:	3a000062 	bcc	0x8001e60
 8001cd4:	e5d92002 	ldrb	r2, [r9, #2]
 8001cd8:	e35800f0 	cmp	r8, #240	@ 0xf0
 8001cdc:	e202203f 	and	r2, r2, #63	@ 0x3f
 8001ce0:	e1821301 	orr	r1, r2, r1, lsl #6
 8001ce4:	3a000062 	bcc	0x8001e74
 8001ce8:	e5d92003 	ldrb	r2, [r9, #3]
 8001cec:	e2000007 	and	r0, r0, #7
 8001cf0:	e202203f 	and	r2, r2, #63	@ 0x3f
 8001cf4:	e1821301 	orr	r1, r2, r1, lsl #6
 8001cf8:	e1818900 	orr	r8, r1, r0, lsl #18
 8001cfc:	e3580811 	cmp	r8, #1114112	@ 0x110000
 8001d00:	0a000253 	beq	0x8002654
 8001d04:	e2899004 	add	r9, r9, #4
 8001d08:	e3580080 	cmp	r8, #128	@ 0x80
 8001d0c:	3affffdf 	bcc	0x8001c90
 8001d10:	ea00005b 	b	0x8001e84
 8001d14:	e3a01000 	mov	r1, #0
 8001d18:	e59f4eac 	ldr	r4, [pc, #3756]	@ 0x8002bcc
 8001d1c:	e28a2001 	add	r2, sl, #1
 8001d20:	e0030298 	mul	r3, r8, r2
 8001d24:	e1a02004 	mov	r2, r4
 8001d28:	e7b27001 	ldr	r7, [r2, r1]!
 8001d2c:	e5922004 	ldr	r2, [r2, #4]
 8001d30:	e0277003 	eor	r7, r7, r3
 8001d34:	e0222003 	eor	r2, r2, r3
 8001d38:	e04a6002 	sub	r6, sl, r2
 8001d3c:	e1862002 	orr	r2, r6, r2
 8001d40:	e04a6007 	sub	r6, sl, r7
 8001d44:	e1867007 	orr	r7, r6, r7
 8001d48:	e007700c 	and	r7, r7, ip
 8001d4c:	e0072002 	and	r2, r7, r2
 8001d50:	e152000c 	cmp	r2, ip
 8001d54:	1a000038 	bne	0x8001e3c
 8001d58:	e3812008 	orr	r2, r1, #8
 8001d5c:	e1a07004 	mov	r7, r4
 8001d60:	e7b76002 	ldr	r6, [r7, r2]!
 8001d64:	e5977004 	ldr	r7, [r7, #4]
 8001d68:	e0266003 	eor	r6, r6, r3
 8001d6c:	e0277003 	eor	r7, r7, r3
 8001d70:	e04a5007 	sub	r5, sl, r7
 8001d74:	e1857007 	orr	r7, r5, r7
 8001d78:	e04a5006 	sub	r5, sl, r6
 8001d7c:	e1856006 	orr	r6, r5, r6
 8001d80:	e006600c 	and	r6, r6, ip
 8001d84:	e0067007 	and	r7, r6, r7
 8001d88:	e157000c 	cmp	r7, ip
 8001d8c:	1a00002b 	bne	0x8001e40
 8001d90:	e3812010 	orr	r2, r1, #16
 8001d94:	e1a07004 	mov	r7, r4
 8001d98:	e7b76002 	ldr	r6, [r7, r2]!
 8001d9c:	e5977004 	ldr	r7, [r7, #4]
 8001da0:	e0266003 	eor	r6, r6, r3
 8001da4:	e0277003 	eor	r7, r7, r3
 8001da8:	e04a5007 	sub	r5, sl, r7
 8001dac:	e1857007 	orr	r7, r5, r7
 8001db0:	e04a5006 	sub	r5, sl, r6
 8001db4:	e1856006 	orr	r6, r5, r6
 8001db8:	e006600c 	and	r6, r6, ip
 8001dbc:	e0067007 	and	r7, r6, r7
 8001dc0:	e157000c 	cmp	r7, ip
 8001dc4:	1a00001d 	bne	0x8001e40
 8001dc8:	e3812018 	orr	r2, r1, #24
 8001dcc:	e1a07004 	mov	r7, r4
 8001dd0:	e7b76002 	ldr	r6, [r7, r2]!
 8001dd4:	e5977004 	ldr	r7, [r7, #4]
 8001dd8:	e0266003 	eor	r6, r6, r3
 8001ddc:	e0277003 	eor	r7, r7, r3
 8001de0:	e04a5007 	sub	r5, sl, r7
 8001de4:	e1857007 	orr	r7, r5, r7
 8001de8:	e04a5006 	sub	r5, sl, r6
 8001dec:	e1856006 	orr	r6, r5, r6
 8001df0:	e006600c 	and	r6, r6, ip
 8001df4:	e0067007 	and	r7, r6, r7
 8001df8:	e157000c 	cmp	r7, ip
 8001dfc:	1a00000f 	bne	0x8001e40
 8001e00:	e3812020 	orr	r2, r1, #32
 8001e04:	e1a07004 	mov	r7, r4
 8001e08:	e7b76002 	ldr	r6, [r7, r2]!
 8001e0c:	e5977004 	ldr	r7, [r7, #4]
 8001e10:	e0277003 	eor	r7, r7, r3
 8001e14:	e0263003 	eor	r3, r6, r3
 8001e18:	e04a6003 	sub	r6, sl, r3
 8001e1c:	e04a5007 	sub	r5, sl, r7
 8001e20:	e1863003 	orr	r3, r6, r3
 8001e24:	e1857007 	orr	r7, r5, r7
 8001e28:	e003300c 	and	r3, r3, ip
 8001e2c:	e0033007 	and	r3, r3, r7
 8001e30:	e153000c 	cmp	r3, ip
 8001e34:	03812028 	orreq	r2, r1, #40	@ 0x28
 8001e38:	ea000000 	b	0x8001e40
 8001e3c:	e1a02001 	mov	r2, r1
 8001e40:	e59d604c 	ldr	r6, [sp, #76]	@ 0x4c
 8001e44:	e7d41002 	ldrb	r1, [r4, r2]
 8001e48:	e1510000 	cmp	r1, r0
 8001e4c:	0affff86 	beq	0x8001c6c
 8001e50:	e2822001 	add	r2, r2, #1
 8001e54:	e352002d 	cmp	r2, #45	@ 0x2d
 8001e58:	1afffff9 	bne	0x8001e44
 8001e5c:	ea0002e8 	b	0x8002a04
 8001e60:	e1818300 	orr	r8, r1, r0, lsl #6
 8001e64:	e2899002 	add	r9, r9, #2
 8001e68:	e3580080 	cmp	r8, #128	@ 0x80
 8001e6c:	2a000004 	bcs	0x8001e84
 8001e70:	eaffff86 	b	0x8001c90
 8001e74:	e1818600 	orr	r8, r1, r0, lsl #12
 8001e78:	e2899003 	add	r9, r9, #3
 8001e7c:	e3580080 	cmp	r8, #128	@ 0x80
 8001e80:	3affff82 	bcc	0x8001c90
 8001e84:	e3a00000 	mov	r0, #0
 8001e88:	e3580b02 	cmp	r8, #2048	@ 0x800
 8001e8c:	e58d901c 	str	r9, [sp, #28]
 8001e90:	e50b001c 	str	r0, [fp, #-28]	@ 0xffffffe4
 8001e94:	2a000007 	bcs	0x8001eb8
 8001e98:	e3a000c0 	mov	r0, #192	@ 0xc0
 8001e9c:	e3a09002 	mov	r9, #2
 8001ea0:	e3a0e000 	mov	lr, #0
 8001ea4:	e24b701c 	sub	r7, fp, #28
 8001ea8:	e1800328 	orr	r0, r0, r8, lsr #6
 8001eac:	e54b001c 	strb	r0, [fp, #-28]	@ 0xffffffe4
 8001eb0:	e59d0030 	ldr	r0, [sp, #48]	@ 0x30
 8001eb4:	ea00001a 	b	0x8001f24
 8001eb8:	e3580801 	cmp	r8, #65536	@ 0x10000
 8001ebc:	e24b701c 	sub	r7, fp, #28
 8001ec0:	2a00000a 	bcs	0x8001ef0
 8001ec4:	e3a000e0 	mov	r0, #224	@ 0xe0
 8001ec8:	e3a09003 	mov	r9, #3
 8001ecc:	e3a0e001 	mov	lr, #1
 8001ed0:	e1800628 	orr	r0, r0, r8, lsr #12
 8001ed4:	e54b001c 	strb	r0, [fp, #-28]	@ 0xffffffe4
 8001ed8:	e3a0003f 	mov	r0, #63	@ 0x3f
 8001edc:	e0000328 	and	r0, r0, r8, lsr #6
 8001ee0:	e3800080 	orr	r0, r0, #128	@ 0x80
 8001ee4:	e54b001b 	strb	r0, [fp, #-27]	@ 0xffffffe5
 8001ee8:	e59d0024 	ldr	r0, [sp, #36]	@ 0x24
 8001eec:	ea00000c 	b	0x8001f24
 8001ef0:	e3a000f0 	mov	r0, #240	@ 0xf0
 8001ef4:	e3a0103f 	mov	r1, #63	@ 0x3f
 8001ef8:	e3a09004 	mov	r9, #4
 8001efc:	e3a0e000 	mov	lr, #0
 8001f00:	e1800928 	orr	r0, r0, r8, lsr #18
 8001f04:	e54b001c 	strb	r0, [fp, #-28]	@ 0xffffffe4
 8001f08:	e0010328 	and	r0, r1, r8, lsr #6
 8001f0c:	e3800080 	orr	r0, r0, #128	@ 0x80
 8001f10:	e54b001a 	strb	r0, [fp, #-26]	@ 0xffffffe6
 8001f14:	e0010628 	and	r0, r1, r8, lsr #12
 8001f18:	e3800080 	orr	r0, r0, #128	@ 0x80
 8001f1c:	e54b001b 	strb	r0, [fp, #-27]	@ 0xffffffe5
 8001f20:	e59d0028 	ldr	r0, [sp, #40]	@ 0x28
 8001f24:	e208103f 	and	r1, r8, #63	@ 0x3f
 8001f28:	e3a02000 	mov	r2, #0
 8001f2c:	e3a04001 	mov	r4, #1
 8001f30:	e3a03000 	mov	r3, #0
 8001f34:	e3a0c001 	mov	ip, #1
 8001f38:	e3811080 	orr	r1, r1, #128	@ 0x80
 8001f3c:	e5c01000 	strb	r1, [r0]
 8001f40:	e3a00001 	mov	r0, #1
 8001f44:	ea000006 	b	0x8001f64
 8001f48:	e0810003 	add	r0, r1, r3
 8001f4c:	e3a03000 	mov	r3, #0
 8001f50:	e2800001 	add	r0, r0, #1
 8001f54:	e040c002 	sub	ip, r0, r2
 8001f58:	e0804003 	add	r4, r0, r3
 8001f5c:	e1540009 	cmp	r4, r9
 8001f60:	2a000014 	bcs	0x8001fb8
 8001f64:	e1a01000 	mov	r1, r0
 8001f68:	e0830002 	add	r0, r3, r2
 8001f6c:	e1500009 	cmp	r0, r9
 8001f70:	2a0003f2 	bcs	0x8002f40
 8001f74:	e7d74004 	ldrb	r4, [r7, r4]
 8001f78:	e7d70000 	ldrb	r0, [r7, r0]
 8001f7c:	e1540000 	cmp	r4, r0
 8001f80:	3afffff0 	bcc	0x8001f48
 8001f84:	1a000006 	bne	0x8001fa4
 8001f88:	e2830001 	add	r0, r3, #1
 8001f8c:	e050300c 	subs	r3, r0, ip
 8001f90:	11a03000 	movne	r3, r0
 8001f94:	e150000c 	cmp	r0, ip
 8001f98:	00811000 	addeq	r1, r1, r0
 8001f9c:	e1a00001 	mov	r0, r1
 8001fa0:	eaffffec 	b	0x8001f58
 8001fa4:	e2810001 	add	r0, r1, #1
 8001fa8:	e3a03000 	mov	r3, #0
 8001fac:	e3a0c001 	mov	ip, #1
 8001fb0:	e1a02001 	mov	r2, r1
 8001fb4:	eaffffe7 	b	0x8001f58
 8001fb8:	e3a05000 	mov	r5, #0
 8001fbc:	e3a04001 	mov	r4, #1
 8001fc0:	e3a00001 	mov	r0, #1
 8001fc4:	e3a03000 	mov	r3, #0
 8001fc8:	e3a06001 	mov	r6, #1
 8001fcc:	ea000006 	b	0x8001fec
 8001fd0:	e0810003 	add	r0, r1, r3
 8001fd4:	e3a03000 	mov	r3, #0
 8001fd8:	e2800001 	add	r0, r0, #1
 8001fdc:	e0406005 	sub	r6, r0, r5
 8001fe0:	e0804003 	add	r4, r0, r3
 8001fe4:	e1540009 	cmp	r4, r9
 8001fe8:	2a000014 	bcs	0x8002040
 8001fec:	e1a01000 	mov	r1, r0
 8001ff0:	e0830005 	add	r0, r3, r5
 8001ff4:	e1500009 	cmp	r0, r9
 8001ff8:	2a0003d0 	bcs	0x8002f40
 8001ffc:	e7d74004 	ldrb	r4, [r7, r4]
 8002000:	e7d70000 	ldrb	r0, [r7, r0]
 8002004:	e1540000 	cmp	r4, r0
 8002008:	8afffff0 	bhi	0x8001fd0
 800200c:	1a000006 	bne	0x800202c
 8002010:	e2830001 	add	r0, r3, #1
 8002014:	e0503006 	subs	r3, r0, r6
 8002018:	11a03000 	movne	r3, r0
 800201c:	e1500006 	cmp	r0, r6
 8002020:	00811000 	addeq	r1, r1, r0
 8002024:	e1a00001 	mov	r0, r1
 8002028:	eaffffec 	b	0x8001fe0
 800202c:	e2810001 	add	r0, r1, #1
 8002030:	e3a03000 	mov	r3, #0
 8002034:	e3a06001 	mov	r6, #1
 8002038:	e1a05001 	mov	r5, r1
 800203c:	eaffffe7 	b	0x8001fe0
 8002040:	e1520005 	cmp	r2, r5
 8002044:	81a05002 	movhi	r5, r2
 8002048:	81a0600c 	movhi	r6, ip
 800204c:	e1590005 	cmp	r9, r5
 8002050:	3a0003a9 	bcc	0x8002efc
 8002054:	e0961005 	adds	r1, r6, r5
 8002058:	2a0003ab 	bcs	0x8002f0c
 800205c:	e1510009 	cmp	r1, r9
 8002060:	e58de060 	str	lr, [sp, #96]	@ 0x60
 8002064:	8a0003ab 	bhi	0x8002f18
 8002068:	e0871006 	add	r1, r7, r6
 800206c:	e1a00007 	mov	r0, r7
 8002070:	e1a02005 	mov	r2, r5
 8002074:	e58d5044 	str	r5, [sp, #68]	@ 0x44
 8002078:	eb003ab6 	bl	0x8010b58
 800207c:	e3500000 	cmp	r0, #0
 8002080:	0a00001b 	beq	0x80020f4
 8002084:	e55b001c 	ldrb	r0, [fp, #-28]	@ 0xffffffe4
 8002088:	e55b101b 	ldrb	r1, [fp, #-27]	@ 0xffffffe5
 800208c:	e3a07001 	mov	r7, #1
 8002090:	e200003f 	and	r0, r0, #63	@ 0x3f
 8002094:	e201103f 	and	r1, r1, #63	@ 0x3f
 8002098:	e1a02017 	lsl	r2, r7, r0
 800209c:	e2503020 	subs	r3, r0, #32
 80020a0:	e2600020 	rsb	r0, r0, #32
 80020a4:	e1a06117 	lsl	r6, r7, r1
 80020a8:	53a02000 	movpl	r2, #0
 80020ac:	e2514020 	subs	r4, r1, #32
 80020b0:	e2611020 	rsb	r1, r1, #32
 80020b4:	e1a00037 	lsr	r0, r7, r0
 80020b8:	53a06000 	movpl	r6, #0
 80020bc:	e3530000 	cmp	r3, #0
 80020c0:	e1a01137 	lsr	r1, r7, r1
 80020c4:	51a00317 	lslpl	r0, r7, r3
 80020c8:	e3540000 	cmp	r4, #0
 80020cc:	e1866002 	orr	r6, r6, r2
 80020d0:	51a01417 	lslpl	r1, r7, r4
 80020d4:	e3580b02 	cmp	r8, #2048	@ 0x800
 80020d8:	e1815000 	orr	r5, r1, r0
 80020dc:	2a000071 	bcs	0x80022a8
 80020e0:	e59f8f04 	ldr	r8, [pc, #3844]	@ 0x8002fec
 80020e4:	e59d3044 	ldr	r3, [sp, #68]	@ 0x44
 80020e8:	e24bc01c 	sub	ip, fp, #28
 80020ec:	e1a04006 	mov	r4, r6
 80020f0:	ea000086 	b	0x8002310
 80020f4:	e59f8ef0 	ldr	r8, [pc, #3824]	@ 0x8002fec
 80020f8:	e3a07000 	mov	r7, #0
 80020fc:	e3a0e001 	mov	lr, #1
 8002100:	e3a01001 	mov	r1, #1
 8002104:	e3a0c000 	mov	ip, #0
 8002108:	e58d6060 	str	r6, [sp, #96]	@ 0x60
 800210c:	ea000005 	b	0x8002128
 8002110:	e2841001 	add	r1, r4, #1
 8002114:	e3a07000 	mov	r7, #0
 8002118:	e041e00c 	sub	lr, r1, ip
 800211c:	e59d2060 	ldr	r2, [sp, #96]	@ 0x60
 8002120:	e15e0002 	cmp	lr, r2
 8002124:	0a00001f 	beq	0x80021a8
 8002128:	e0814007 	add	r4, r1, r7
 800212c:	e1540009 	cmp	r4, r9
 8002130:	2a00001c 	bcs	0x80021a8
 8002134:	e1a06001 	mov	r6, r1
 8002138:	e0491007 	sub	r1, r9, r7
 800213c:	e1e03006 	mvn	r3, r6
 8002140:	e0811003 	add	r1, r1, r3
 8002144:	e1510009 	cmp	r1, r9
 8002148:	2a00038a 	bcs	0x8002f78
 800214c:	e1e03007 	mvn	r3, r7
 8002150:	e0893003 	add	r3, r9, r3
 8002154:	e043300c 	sub	r3, r3, ip
 8002158:	e1530009 	cmp	r3, r9
 800215c:	2a000389 	bcs	0x8002f88
 8002160:	e24b201c 	sub	r2, fp, #28
 8002164:	e7d21001 	ldrb	r1, [r2, r1]
 8002168:	e7d23003 	ldrb	r3, [r2, r3]
 800216c:	e1510003 	cmp	r1, r3
 8002170:	3affffe6 	bcc	0x8002110
 8002174:	1a000006 	bne	0x8002194
 8002178:	e2871001 	add	r1, r7, #1
 800217c:	e051700e 	subs	r7, r1, lr
 8002180:	11a07001 	movne	r7, r1
 8002184:	e151000e 	cmp	r1, lr
 8002188:	00866001 	addeq	r6, r6, r1
 800218c:	e1a01006 	mov	r1, r6
 8002190:	eaffffe1 	b	0x800211c
 8002194:	e2861001 	add	r1, r6, #1
 8002198:	e3a07000 	mov	r7, #0
 800219c:	e3a0e001 	mov	lr, #1
 80021a0:	e1a0c006 	mov	ip, r6
 80021a4:	eaffffdc 	b	0x800211c
 80021a8:	e3a07000 	mov	r7, #0
 80021ac:	e3a0e001 	mov	lr, #1
 80021b0:	e3a01001 	mov	r1, #1
 80021b4:	e3a0c000 	mov	ip, #0
 80021b8:	ea000005 	b	0x80021d4
 80021bc:	e2841001 	add	r1, r4, #1
 80021c0:	e3a07000 	mov	r7, #0
 80021c4:	e041e00c 	sub	lr, r1, ip
 80021c8:	e59d2060 	ldr	r2, [sp, #96]	@ 0x60
 80021cc:	e15e0002 	cmp	lr, r2
 80021d0:	0a00001f 	beq	0x8002254
 80021d4:	e0814007 	add	r4, r1, r7
 80021d8:	e1540009 	cmp	r4, r9
 80021dc:	2a00001c 	bcs	0x8002254
 80021e0:	e1a06001 	mov	r6, r1
 80021e4:	e0491007 	sub	r1, r9, r7
 80021e8:	e1e03006 	mvn	r3, r6
 80021ec:	e0811003 	add	r1, r1, r3
 80021f0:	e1510009 	cmp	r1, r9
 80021f4:	2a00035f 	bcs	0x8002f78
 80021f8:	e1e03007 	mvn	r3, r7
 80021fc:	e0893003 	add	r3, r9, r3
 8002200:	e043300c 	sub	r3, r3, ip
 8002204:	e1530009 	cmp	r3, r9
 8002208:	2a00035e 	bcs	0x8002f88
 800220c:	e24b201c 	sub	r2, fp, #28
 8002210:	e7d21001 	ldrb	r1, [r2, r1]
 8002214:	e7d23003 	ldrb	r3, [r2, r3]
 8002218:	e1510003 	cmp	r1, r3
 800221c:	8affffe6 	bhi	0x80021bc
 8002220:	1a000006 	bne	0x8002240
 8002224:	e2871001 	add	r1, r7, #1
 8002228:	e051700e 	subs	r7, r1, lr
 800222c:	11a07001 	movne	r7, r1
 8002230:	e151000e 	cmp	r1, lr
 8002234:	00866001 	addeq	r6, r6, r1
 8002238:	e1a01006 	mov	r1, r6
 800223c:	eaffffe1 	b	0x80021c8
 8002240:	e2861001 	add	r1, r6, #1
 8002244:	e3a07000 	mov	r7, #0
 8002248:	e3a0e001 	mov	lr, #1
 800224c:	e1a0c006 	mov	ip, r6
 8002250:	eaffffdc 	b	0x80021c8
 8002254:	e59d7060 	ldr	r7, [sp, #96]	@ 0x60
 8002258:	e3570000 	cmp	r7, #0
 800225c:	0a000032 	beq	0x800232c
 8002260:	e24bc01c 	sub	ip, fp, #28
 8002264:	e3a04000 	mov	r4, #0
 8002268:	e3a05000 	mov	r5, #0
 800226c:	e3a03001 	mov	r3, #1
 8002270:	e1a0100c 	mov	r1, ip
 8002274:	e4d12001 	ldrb	r2, [r1], #1
 8002278:	e202203f 	and	r2, r2, #63	@ 0x3f
 800227c:	e1a06213 	lsl	r6, r3, r2
 8002280:	e252e020 	subs	lr, r2, #32
 8002284:	e2622020 	rsb	r2, r2, #32
 8002288:	e1a02233 	lsr	r2, r3, r2
 800228c:	53a06000 	movpl	r6, #0
 8002290:	51a02e13 	lslpl	r2, r3, lr
 8002294:	e1864004 	orr	r4, r6, r4
 8002298:	e2577001 	subs	r7, r7, #1
 800229c:	e1825005 	orr	r5, r2, r5
 80022a0:	1afffff3 	bne	0x8002274
 80022a4:	ea000025 	b	0x8002340
 80022a8:	e55b001a 	ldrb	r0, [fp, #-26]	@ 0xffffffe6
 80022ac:	e59f8d38 	ldr	r8, [pc, #3384]	@ 0x8002fec
 80022b0:	e59d3044 	ldr	r3, [sp, #68]	@ 0x44
 80022b4:	e24bc01c 	sub	ip, fp, #28
 80022b8:	e200003f 	and	r0, r0, #63	@ 0x3f
 80022bc:	e1a01017 	lsl	r1, r7, r0
 80022c0:	e2502020 	subs	r2, r0, #32
 80022c4:	e2600020 	rsb	r0, r0, #32
 80022c8:	e1a00037 	lsr	r0, r7, r0
 80022cc:	53a01000 	movpl	r1, #0
 80022d0:	51a00217 	lslpl	r0, r7, r2
 80022d4:	e1814006 	orr	r4, r1, r6
 80022d8:	e1805005 	orr	r5, r0, r5
 80022dc:	e59d0060 	ldr	r0, [sp, #96]	@ 0x60
 80022e0:	e3500000 	cmp	r0, #0
 80022e4:	1a000009 	bne	0x8002310
 80022e8:	e55b0019 	ldrb	r0, [fp, #-25]	@ 0xffffffe7
 80022ec:	e200003f 	and	r0, r0, #63	@ 0x3f
 80022f0:	e1a01017 	lsl	r1, r7, r0
 80022f4:	e2502020 	subs	r2, r0, #32
 80022f8:	e2600020 	rsb	r0, r0, #32
 80022fc:	e1a00037 	lsr	r0, r7, r0
 8002300:	53a01000 	movpl	r1, #0
 8002304:	51a00217 	lslpl	r0, r7, r2
 8002308:	e1814004 	orr	r4, r1, r4
 800230c:	e1805005 	orr	r5, r0, r5
 8002310:	e0490003 	sub	r0, r9, r3
 8002314:	e1530000 	cmp	r3, r0
 8002318:	81a00003 	movhi	r0, r3
 800231c:	e2800001 	add	r0, r0, #1
 8002320:	e58d0060 	str	r0, [sp, #96]	@ 0x60
 8002324:	e2490001 	sub	r0, r9, #1
 8002328:	ea000009 	b	0x8002354
 800232c:	e3a01000 	mov	r1, #0
 8002330:	e3a04000 	mov	r4, #0
 8002334:	e3a05000 	mov	r5, #0
 8002338:	e24bc01c 	sub	ip, fp, #28
 800233c:	e58d1060 	str	r1, [sp, #96]	@ 0x60
 8002340:	e59d3044 	ldr	r3, [sp, #68]	@ 0x44
 8002344:	e2491001 	sub	r1, r9, #1
 8002348:	e3500000 	cmp	r0, #0
 800234c:	0a000073 	beq	0x8002520
 8002350:	e1a00001 	mov	r0, r1
 8002354:	e2631001 	rsb	r1, r3, #1
 8002358:	e1530009 	cmp	r3, r9
 800235c:	e1a0e009 	mov	lr, r9
 8002360:	e58d0038 	str	r0, [sp, #56]	@ 0x38
 8002364:	e58d1020 	str	r1, [sp, #32]
 8002368:	e2431001 	sub	r1, r3, #1
 800236c:	81a0e003 	movhi	lr, r3
 8002370:	e1510009 	cmp	r1, r9
 8002374:	e58d1018 	str	r1, [sp, #24]
 8002378:	2a000038 	bcs	0x8002460
 800237c:	e59d102c 	ldr	r1, [sp, #44]	@ 0x2c
 8002380:	e3a07000 	mov	r7, #0
 8002384:	e0811003 	add	r1, r1, r3
 8002388:	e58d1014 	str	r1, [sp, #20]
 800238c:	e1a01000 	mov	r1, r0
 8002390:	ea000005 	b	0x80023ac
 8002394:	e0877009 	add	r7, r7, r9
 8002398:	e59d1038 	ldr	r1, [sp, #56]	@ 0x38
 800239c:	e1a04000 	mov	r4, r0
 80023a0:	e0871001 	add	r1, r7, r1
 80023a4:	e351002d 	cmp	r1, #45	@ 0x2d
 80023a8:	2a000194 	bcs	0x8002a00
 80023ac:	e7d81001 	ldrb	r1, [r8, r1]
 80023b0:	e1a00004 	mov	r0, r4
 80023b4:	e201103f 	and	r1, r1, #63	@ 0x3f
 80023b8:	e1a02134 	lsr	r2, r4, r1
 80023bc:	e2614020 	rsb	r4, r1, #32
 80023c0:	e2511020 	subs	r1, r1, #32
 80023c4:	e1822415 	orr	r2, r2, r5, lsl r4
 80023c8:	51a02135 	lsrpl	r2, r5, r1
 80023cc:	e3120001 	tst	r2, #1
 80023d0:	0affffef 	beq	0x8002394
 80023d4:	e59d2044 	ldr	r2, [sp, #68]	@ 0x44
 80023d8:	e0881007 	add	r1, r8, r7
 80023dc:	e15e0002 	cmp	lr, r2
 80023e0:	0a00000c 	beq	0x8002418
 80023e4:	e1a04002 	mov	r4, r2
 80023e8:	e0872002 	add	r2, r7, r2
 80023ec:	e352002c 	cmp	r2, #44	@ 0x2c
 80023f0:	8a0002d5 	bhi	0x8002f4c
 80023f4:	e7d13004 	ldrb	r3, [r1, r4]
 80023f8:	e7dc6004 	ldrb	r6, [ip, r4]
 80023fc:	e2842001 	add	r2, r4, #1
 8002400:	e1560003 	cmp	r6, r3
 8002404:	0afffff4 	beq	0x80023dc
 8002408:	e59d1020 	ldr	r1, [sp, #32]
 800240c:	e0871001 	add	r1, r7, r1
 8002410:	e0817004 	add	r7, r1, r4
 8002414:	eaffffdf 	b	0x8002398
 8002418:	e59d1018 	ldr	r1, [sp, #24]
 800241c:	e59d4014 	ldr	r4, [sp, #20]
 8002420:	e59dc044 	ldr	ip, [sp, #68]	@ 0x44
 8002424:	e0811007 	add	r1, r1, r7
 8002428:	e35c0000 	cmp	ip, #0
 800242c:	0a000036 	beq	0x800250c
 8002430:	e351002c 	cmp	r1, #44	@ 0x2c
 8002434:	8a0002cb 	bhi	0x8002f68
 8002438:	e7d82001 	ldrb	r2, [r8, r1]
 800243c:	e4543001 	ldrb	r3, [r4], #-1
 8002440:	e24cc001 	sub	ip, ip, #1
 8002444:	e2411001 	sub	r1, r1, #1
 8002448:	e1530002 	cmp	r3, r2
 800244c:	0afffff5 	beq	0x8002428
 8002450:	e59d1060 	ldr	r1, [sp, #96]	@ 0x60
 8002454:	e24bc01c 	sub	ip, fp, #28
 8002458:	e0877001 	add	r7, r7, r1
 800245c:	eaffffcd 	b	0x8002398
 8002460:	e3a07000 	mov	r7, #0
 8002464:	e1a01000 	mov	r1, r0
 8002468:	ea000004 	b	0x8002480
 800246c:	e0877009 	add	r7, r7, r9
 8002470:	e59d0038 	ldr	r0, [sp, #56]	@ 0x38
 8002474:	e0871000 	add	r1, r7, r0
 8002478:	e351002d 	cmp	r1, #45	@ 0x2d
 800247c:	2a00015f 	bcs	0x8002a00
 8002480:	e7d81001 	ldrb	r1, [r8, r1]
 8002484:	e201103f 	and	r1, r1, #63	@ 0x3f
 8002488:	e1a02134 	lsr	r2, r4, r1
 800248c:	e2613020 	rsb	r3, r1, #32
 8002490:	e2511020 	subs	r1, r1, #32
 8002494:	e1822315 	orr	r2, r2, r5, lsl r3
 8002498:	51a02135 	lsrpl	r2, r5, r1
 800249c:	e3120001 	tst	r2, #1
 80024a0:	0afffff1 	beq	0x800246c
 80024a4:	e59d2044 	ldr	r2, [sp, #68]	@ 0x44
 80024a8:	e1a00004 	mov	r0, r4
 80024ac:	e0881007 	add	r1, r8, r7
 80024b0:	e15e0002 	cmp	lr, r2
 80024b4:	0a000011 	beq	0x8002500
 80024b8:	e1a04002 	mov	r4, r2
 80024bc:	e0872002 	add	r2, r7, r2
 80024c0:	e352002d 	cmp	r2, #45	@ 0x2d
 80024c4:	2a0002a0 	bcs	0x8002f4c
 80024c8:	e7d13004 	ldrb	r3, [r1, r4]
 80024cc:	e7dc6004 	ldrb	r6, [ip, r4]
 80024d0:	e2842001 	add	r2, r4, #1
 80024d4:	e1560003 	cmp	r6, r3
 80024d8:	0afffff4 	beq	0x80024b0
 80024dc:	e59d1020 	ldr	r1, [sp, #32]
 80024e0:	e0871001 	add	r1, r7, r1
 80024e4:	e0817004 	add	r7, r1, r4
 80024e8:	e1a04000 	mov	r4, r0
 80024ec:	e59d0038 	ldr	r0, [sp, #56]	@ 0x38
 80024f0:	e0871000 	add	r1, r7, r0
 80024f4:	e351002d 	cmp	r1, #45	@ 0x2d
 80024f8:	3affffe0 	bcc	0x8002480
 80024fc:	ea00013f 	b	0x8002a00
 8002500:	e59d1044 	ldr	r1, [sp, #68]	@ 0x44
 8002504:	e3510000 	cmp	r1, #0
 8002508:	1a0002a8 	bne	0x8002fb0
 800250c:	e59de040 	ldr	lr, [sp, #64]	@ 0x40
 8002510:	e59fcad8 	ldr	ip, [pc, #2776]	@ 0x8002ff0
 8002514:	e59d4034 	ldr	r4, [sp, #52]	@ 0x34
 8002518:	e59d901c 	ldr	r9, [sp, #28]
 800251c:	eafffdd3 	b	0x8001c70
 8002520:	e59d0060 	ldr	r0, [sp, #96]	@ 0x60
 8002524:	e3a02000 	mov	r2, #0
 8002528:	e3a06000 	mov	r6, #0
 800252c:	e58d1038 	str	r1, [sp, #56]	@ 0x38
 8002530:	e58d4020 	str	r4, [sp, #32]
 8002534:	e0490000 	sub	r0, r9, r0
 8002538:	e58d0014 	str	r0, [sp, #20]
 800253c:	e1a00001 	mov	r0, r1
 8002540:	ea000005 	b	0x800255c
 8002544:	e0866009 	add	r6, r6, r9
 8002548:	e3a02000 	mov	r2, #0
 800254c:	e59d0038 	ldr	r0, [sp, #56]	@ 0x38
 8002550:	e0860000 	add	r0, r6, r0
 8002554:	e350002d 	cmp	r0, #45	@ 0x2d
 8002558:	2a000128 	bcs	0x8002a00
 800255c:	e7d80000 	ldrb	r0, [r8, r0]
 8002560:	e200003f 	and	r0, r0, #63	@ 0x3f
 8002564:	e1a01034 	lsr	r1, r4, r0
 8002568:	e2607020 	rsb	r7, r0, #32
 800256c:	e2500020 	subs	r0, r0, #32
 8002570:	e1811715 	orr	r1, r1, r5, lsl r7
 8002574:	51a01035 	lsrpl	r1, r5, r0
 8002578:	e3110001 	tst	r1, #1
 800257c:	0afffff0 	beq	0x8002544
 8002580:	e59d3044 	ldr	r3, [sp, #68]	@ 0x44
 8002584:	e1a01002 	mov	r1, r2
 8002588:	e1a04009 	mov	r4, r9
 800258c:	e0880006 	add	r0, r8, r6
 8002590:	e1a0e002 	mov	lr, r2
 8002594:	e1530002 	cmp	r3, r2
 8002598:	81a01003 	movhi	r1, r3
 800259c:	e1510009 	cmp	r1, r9
 80025a0:	e58d1018 	str	r1, [sp, #24]
 80025a4:	81a04001 	movhi	r4, r1
 80025a8:	e1540001 	cmp	r4, r1
 80025ac:	0a00000f 	beq	0x80025f0
 80025b0:	e1a0c001 	mov	ip, r1
 80025b4:	e0861001 	add	r1, r6, r1
 80025b8:	e351002d 	cmp	r1, #45	@ 0x2d
 80025bc:	2a000275 	bcs	0x8002f98
 80025c0:	e24b101c 	sub	r1, fp, #28
 80025c4:	e7d0200c 	ldrb	r2, [r0, ip]
 80025c8:	e7d1700c 	ldrb	r7, [r1, ip]
 80025cc:	e28c1001 	add	r1, ip, #1
 80025d0:	e1570002 	cmp	r7, r2
 80025d4:	0afffff3 	beq	0x80025a8
 80025d8:	e59d4020 	ldr	r4, [sp, #32]
 80025dc:	e0460003 	sub	r0, r6, r3
 80025e0:	e3a02000 	mov	r2, #0
 80025e4:	e080000c 	add	r0, r0, ip
 80025e8:	e2806001 	add	r6, r0, #1
 80025ec:	eaffffd6 	b	0x800254c
 80025f0:	e1a00003 	mov	r0, r3
 80025f4:	e15e0000 	cmp	lr, r0
 80025f8:	2affffc3 	bcs	0x800250c
 80025fc:	e2400001 	sub	r0, r0, #1
 8002600:	e1500009 	cmp	r0, r9
 8002604:	2a000266 	bcs	0x8002fa4
 8002608:	e0801006 	add	r1, r0, r6
 800260c:	e24b201c 	sub	r2, fp, #28
 8002610:	e351002d 	cmp	r1, #45	@ 0x2d
 8002614:	2a000253 	bcs	0x8002f68
 8002618:	e7d81001 	ldrb	r1, [r8, r1]
 800261c:	e7d27000 	ldrb	r7, [r2, r0]
 8002620:	e1570001 	cmp	r7, r1
 8002624:	0afffff2 	beq	0x80025f4
 8002628:	e59d0060 	ldr	r0, [sp, #96]	@ 0x60
 800262c:	e59d2014 	ldr	r2, [sp, #20]
 8002630:	e59d4020 	ldr	r4, [sp, #32]
 8002634:	e0866000 	add	r6, r6, r0
 8002638:	eaffffc3 	b	0x800254c
 800263c:	e15b71b2 	ldrh	r7, [fp, #-18]	@ 0xffffffee
 8002640:	e54b0053 	strb	r0, [fp, #-83]	@ 0xffffffad
 8002644:	e54b1054 	strb	r1, [fp, #-84]	@ 0xffffffac
 8002648:	e50b3058 	str	r3, [fp, #-88]	@ 0xffffffa8
 800264c:	e50b205c 	str	r2, [fp, #-92]	@ 0xffffffa4
 8002650:	ea000166 	b	0x8002bf0
 8002654:	e59d3050 	ldr	r3, [sp, #80]	@ 0x50
 8002658:	e3a0000b 	mov	r0, #11
 800265c:	e3a06007 	mov	r6, #7
 8002660:	e3a07001 	mov	r7, #1
 8002664:	e0821093 	umull	r1, r2, r3, r0
 8002668:	e3a00000 	mov	r0, #0
 800266c:	e2911001 	adds	r1, r1, #1
 8002670:	e2a03000 	adc	r3, r0, #0
 8002674:	e11600a1 	tst	r6, r1, lsr #1
 8002678:	e1a00221 	lsr	r0, r1, #4
 800267c:	e59d604c 	ldr	r6, [sp, #76]	@ 0x4c
 8002680:	10870221 	addne	r0, r7, r1, lsr #4
 8002684:	e3520000 	cmp	r2, #0
 8002688:	13a02001 	movne	r2, #1
 800268c:	e1921003 	orrs	r1, r2, r3
 8002690:	1a0000db 	bne	0x8002a04
 8002694:	e35000d4 	cmp	r0, #212	@ 0xd4
 8002698:	8a0000d9 	bhi	0x8002a04
 800269c:	e3a000d4 	mov	r0, #212	@ 0xd4
 80026a0:	e59f5944 	ldr	r5, [pc, #2372]	@ 0x8002fec
 80026a4:	e59d705c 	ldr	r7, [sp, #92]	@ 0x5c
 80026a8:	e3a0e000 	mov	lr, #0
 80026ac:	e50b6048 	str	r6, [fp, #-72]	@ 0xffffffb8
 80026b0:	e3a0902d 	mov	r9, #45	@ 0x2d
 80026b4:	e3a04000 	mov	r4, #0
 80026b8:	e50b0044 	str	r0, [fp, #-68]	@ 0xffffffbc
 80026bc:	e24b001c 	sub	r0, fp, #28
 80026c0:	e50be040 	str	lr, [fp, #-64]	@ 0xffffffc0
 80026c4:	e2801013 	add	r1, r0, #19
 80026c8:	e2800014 	add	r0, r0, #20
 80026cc:	e58d1038 	str	r1, [sp, #56]	@ 0x38
 80026d0:	e58d0060 	str	r0, [sp, #96]	@ 0x60
 80026d4:	ea00000a 	b	0x8002704
 80026d8:	082e3788 	stmdaeq	lr!, {r3, r7, r8, r9, sl, ip, sp}
 80026dc:	08006a3c 	stmdaeq	r0, {r2, r3, r4, r5, r9, fp, sp, lr}
 80026e0:	0800304c 	stmdaeq	r0, {r2, r3, r6, ip, sp}
 80026e4:	082fccc8 	stmdaeq	pc!, {r3, r6, r7, sl, fp, lr, pc}	@ <UNPREDICTABLE>
 80026e8:	e59d705c 	ldr	r7, [sp, #92]	@ 0x5c
 80026ec:	e59d0040 	ldr	r0, [sp, #64]	@ 0x40
 80026f0:	e59d604c 	ldr	r6, [sp, #76]	@ 0x4c
 80026f4:	e3a04001 	mov	r4, #1
 80026f8:	e1a0e001 	mov	lr, r1
 80026fc:	e1570000 	cmp	r7, r0
 8002700:	0a0001e5 	beq	0x8002e9c
 8002704:	e1a02007 	mov	r2, r7
 8002708:	e58de044 	str	lr, [sp, #68]	@ 0x44
 800270c:	e58d403c 	str	r4, [sp, #60]	@ 0x3c
 8002710:	e0d210d1 	ldrsb	r1, [r2], #1
 8002714:	e20100ff 	and	r0, r1, #255	@ 0xff
 8002718:	e3710001 	cmn	r1, #1
 800271c:	da000005 	ble	0x8002738
 8002720:	e3a08001 	mov	r8, #1
 8002724:	e3a01000 	mov	r1, #0
 8002728:	e58d205c 	str	r2, [sp, #92]	@ 0x5c
 800272c:	ea000022 	b	0x80027bc
 8002730:	04fff780 	ldrbteq	pc, [pc], #1920	@ 0x8002738	@ <UNPREDICTABLE>
 8002734:	082e37b8 	stmdaeq	lr!, {r3, r4, r5, r7, r8, r9, sl, ip, sp}
 8002738:	e5d72001 	ldrb	r2, [r7, #1]
 800273c:	e200101f 	and	r1, r0, #31
 8002740:	e35000df 	cmp	r0, #223	@ 0xdf
 8002744:	e202203f 	and	r2, r2, #63	@ 0x3f
 8002748:	9a00000b 	bls	0x800277c
 800274c:	e5d73002 	ldrb	r3, [r7, #2]
 8002750:	e35000f0 	cmp	r0, #240	@ 0xf0
 8002754:	e203303f 	and	r3, r3, #63	@ 0x3f
 8002758:	e1832302 	orr	r2, r3, r2, lsl #6
 800275c:	3a00000e 	bcc	0x800279c
 8002760:	e5d70003 	ldrb	r0, [r7, #3]
 8002764:	e2011007 	and	r1, r1, #7
 8002768:	e2877004 	add	r7, r7, #4
 800276c:	e200003f 	and	r0, r0, #63	@ 0x3f
 8002770:	e1800302 	orr	r0, r0, r2, lsl #6
 8002774:	e1800901 	orr	r0, r0, r1, lsl #18
 8002778:	ea000009 	b	0x80027a4
 800277c:	e1820301 	orr	r0, r2, r1, lsl #6
 8002780:	e2877002 	add	r7, r7, #2
 8002784:	ea000006 	b	0x80027a4
 8002788:	08006bf4 	stmdaeq	r0, {r2, r4, r5, r6, r7, r8, r9, fp, sp, lr}
 800278c:	0800303c 	stmdaeq	r0, {r2, r3, r4, r5, ip, sp}
 8002790:	082e3e54 	stmdaeq	lr!, {r2, r4, r6, r9, sl, fp, ip, sp}
 8002794:	082e3858 	stmdaeq	lr!, {r3, r4, r6, fp, ip, sp}
 8002798:	020010e0 	andeq	r1, r0, #224	@ 0xe0
 800279c:	e1820601 	orr	r0, r2, r1, lsl #12
 80027a0:	e2877003 	add	r7, r7, #3
 80027a4:	e3a0203f 	mov	r2, #63	@ 0x3f
 80027a8:	e3a08001 	mov	r8, #1
 80027ac:	e3a01000 	mov	r1, #0
 80027b0:	e3500080 	cmp	r0, #128	@ 0x80
 80027b4:	e58d705c 	str	r7, [sp, #92]	@ 0x5c
 80027b8:	2a000072 	bcs	0x8002988
 80027bc:	e3a06000 	mov	r6, #0
 80027c0:	e3a03000 	mov	r3, #0
 80027c4:	e1a02000 	mov	r2, r0
 80027c8:	e1811806 	orr	r1, r1, r6, lsl #16
 80027cc:	e50b900c 	str	r9, [fp, #-12]
 80027d0:	e54b8004 	strb	r8, [fp, #-4]
 80027d4:	e1811403 	orr	r1, r1, r3, lsl #8
 80027d8:	e1811002 	orr	r1, r1, r2
 80027dc:	e50b1008 	str	r1, [fp, #-8]
 80027e0:	e24b101c 	sub	r1, fp, #28
 80027e4:	e8810221 	stm	r1, {r0, r5, r9}
 80027e8:	e59d0038 	ldr	r0, [sp, #56]	@ 0x38
 80027ec:	e3a09000 	mov	r9, #0
 80027f0:	e7d04008 	ldrb	r4, [r0, r8]
 80027f4:	e28a0001 	add	r0, sl, #1
 80027f8:	e0060094 	mul	r6, r4, r0
 80027fc:	ea000001 	b	0x8002808
 8002800:	e359002d 	cmp	r9, #45	@ 0x2d
 8002804:	8a0001bb 	bhi	0x8002ef8
 8002808:	e0850009 	add	r0, r5, r9
 800280c:	e3590026 	cmp	r9, #38	@ 0x26
 8002810:	3a000009 	bcc	0x800283c
 8002814:	e259102d 	subs	r1, r9, #45	@ 0x2d
 8002818:	0a0001b6 	beq	0x8002ef8
 800281c:	e3a02000 	mov	r2, #0
 8002820:	e7503002 	ldrb	r3, [r0, -r2]
 8002824:	e1530004 	cmp	r3, r4
 8002828:	0a00000a 	beq	0x8002858
 800282c:	e2422001 	sub	r2, r2, #1
 8002830:	e1510002 	cmp	r1, r2
 8002834:	1afffff9 	bne	0x8002820
 8002838:	ea0001ae 	b	0x8002ef8
 800283c:	e2801003 	add	r1, r0, #3
 8002840:	e3c11003 	bic	r1, r1, #3
 8002844:	e0511000 	subs	r1, r1, r0
 8002848:	1a000004 	bne	0x8002860
 800284c:	e2692025 	rsb	r2, r9, #37	@ 0x25
 8002850:	e3a01000 	mov	r1, #0
 8002854:	ea00000a 	b	0x8002884
 8002858:	e2622000 	rsb	r2, r2, #0
 800285c:	ea000029 	b	0x8002908
 8002860:	e3a02000 	mov	r2, #0
 8002864:	e7d03002 	ldrb	r3, [r0, r2]
 8002868:	e1530004 	cmp	r3, r4
 800286c:	0a000025 	beq	0x8002908
 8002870:	e2822001 	add	r2, r2, #1
 8002874:	e1510002 	cmp	r1, r2
 8002878:	1afffff9 	bne	0x8002864
 800287c:	e2692025 	rsb	r2, r9, #37	@ 0x25
 8002880:	ea00000d 	b	0x80028bc
 8002884:	e1a03000 	mov	r3, r0
 8002888:	e7b37001 	ldr	r7, [r3, r1]!
 800288c:	e5933004 	ldr	r3, [r3, #4]
 8002890:	e0277006 	eor	r7, r7, r6
 8002894:	e0233006 	eor	r3, r3, r6
 8002898:	e04a5003 	sub	r5, sl, r3
 800289c:	e1853003 	orr	r3, r5, r3
 80028a0:	e04a5007 	sub	r5, sl, r7
 80028a4:	e1857007 	orr	r7, r5, r7
 80028a8:	e007700c 	and	r7, r7, ip
 80028ac:	e0073003 	and	r3, r7, r3
 80028b0:	e153000c 	cmp	r3, ip
 80028b4:	1a000002 	bne	0x80028c4
 80028b8:	e2811008 	add	r1, r1, #8
 80028bc:	e1510002 	cmp	r1, r2
 80028c0:	9affffef 	bls	0x8002884
 80028c4:	e59f5720 	ldr	r5, [pc, #1824]	@ 0x8002fec
 80028c8:	e269202d 	rsb	r2, r9, #45	@ 0x2d
 80028cc:	e1510002 	cmp	r1, r2
 80028d0:	0a000188 	beq	0x8002ef8
 80028d4:	e0812009 	add	r2, r1, r9
 80028d8:	e0800001 	add	r0, r0, r1
 80028dc:	e262302d 	rsb	r3, r2, #45	@ 0x2d
 80028e0:	e3a02000 	mov	r2, #0
 80028e4:	e7d07002 	ldrb	r7, [r0, r2]
 80028e8:	e1570004 	cmp	r7, r4
 80028ec:	0a000004 	beq	0x8002904
 80028f0:	e2822001 	add	r2, r2, #1
 80028f4:	e1530002 	cmp	r3, r2
 80028f8:	1afffff9 	bne	0x80028e4
 80028fc:	ea00017d 	b	0x8002ef8
 8002900:	082fcd24 	stmdaeq	pc!, {r2, r5, r8, sl, fp, lr, pc}	@ <UNPREDICTABLE>
 8002904:	e0822001 	add	r2, r2, r1
 8002908:	e0890002 	add	r0, r9, r2
 800290c:	e2809001 	add	r9, r0, #1
 8002910:	e1590008 	cmp	r9, r8
 8002914:	3affffb9 	bcc	0x8002800
 8002918:	e359002d 	cmp	r9, #45	@ 0x2d
 800291c:	8a000175 	bhi	0x8002ef8
 8002920:	e59d1060 	ldr	r1, [sp, #96]	@ 0x60
 8002924:	e0497008 	sub	r7, r9, r8
 8002928:	e1a02008 	mov	r2, r8
 800292c:	e0850007 	add	r0, r5, r7
 8002930:	eb003888 	bl	0x8010b58
 8002934:	e59fc6b4 	ldr	ip, [pc, #1716]	@ 0x8002ff0
 8002938:	e3500000 	cmp	r0, #0
 800293c:	1affffaf 	bne	0x8002800
 8002940:	e59d0044 	ldr	r0, [sp, #68]	@ 0x44
 8002944:	e3a0902d 	mov	r9, #45	@ 0x2d
 8002948:	e0217990 	mla	r1, r0, r9, r7
 800294c:	e59d003c 	ldr	r0, [sp, #60]	@ 0x3c
 8002950:	e3100001 	tst	r0, #1
 8002954:	0affff63 	beq	0x80026e8
 8002958:	e24b0048 	sub	r0, fp, #72	@ 0x48
 800295c:	e3a0200b 	mov	r2, #11
 8002960:	eb002dc5 	bl	0x800e07c
 8002964:	e59d705c 	ldr	r7, [sp, #92]	@ 0x5c
 8002968:	e59d0040 	ldr	r0, [sp, #64]	@ 0x40
 800296c:	e59fc67c 	ldr	ip, [pc, #1660]	@ 0x8002ff0
 8002970:	e59d604c 	ldr	r6, [sp, #76]	@ 0x4c
 8002974:	e3a0e000 	mov	lr, #0
 8002978:	e3a04000 	mov	r4, #0
 800297c:	e1570000 	cmp	r7, r0
 8002980:	1affff5f 	bne	0x8002704
 8002984:	ea000147 	b	0x8002ea8
 8002988:	e3500b02 	cmp	r0, #2048	@ 0x800
 800298c:	2a000006 	bcs	0x80029ac
 8002990:	e3a020c0 	mov	r2, #192	@ 0xc0
 8002994:	e200303f 	and	r3, r0, #63	@ 0x3f
 8002998:	e3a08002 	mov	r8, #2
 800299c:	e3a06000 	mov	r6, #0
 80029a0:	e1822320 	orr	r2, r2, r0, lsr #6
 80029a4:	e3833080 	orr	r3, r3, #128	@ 0x80
 80029a8:	eaffff86 	b	0x80027c8
 80029ac:	e3500801 	cmp	r0, #65536	@ 0x10000
 80029b0:	e0023320 	and	r3, r2, r0, lsr #6
 80029b4:	e3a0703f 	mov	r7, #63	@ 0x3f
 80029b8:	2a000006 	bcs	0x80029d8
 80029bc:	e3a020e0 	mov	r2, #224	@ 0xe0
 80029c0:	e200703f 	and	r7, r0, #63	@ 0x3f
 80029c4:	e3833080 	orr	r3, r3, #128	@ 0x80
 80029c8:	e3a08003 	mov	r8, #3
 80029cc:	e1822620 	orr	r2, r2, r0, lsr #12
 80029d0:	e3876080 	orr	r6, r7, #128	@ 0x80
 80029d4:	eaffff7b 	b	0x80027c8
 80029d8:	e3a010f0 	mov	r1, #240	@ 0xf0
 80029dc:	e3836080 	orr	r6, r3, #128	@ 0x80
 80029e0:	e0073620 	and	r3, r7, r0, lsr #12
 80029e4:	e3a08004 	mov	r8, #4
 80029e8:	e1812920 	orr	r2, r1, r0, lsr #18
 80029ec:	e3a0143f 	mov	r1, #1056964608	@ 0x3f000000
 80029f0:	e3833080 	orr	r3, r3, #128	@ 0x80
 80029f4:	e0011c00 	and	r1, r1, r0, lsl #24
 80029f8:	e3811102 	orr	r1, r1, #-2147483648	@ 0x80000000
 80029fc:	eaffff71 	b	0x80027c8
 8002a00:	e59d604c 	ldr	r6, [sp, #76]	@ 0x4c
 8002a04:	e59d3050 	ldr	r3, [sp, #80]	@ 0x50
 8002a08:	e373021e 	cmn	r3, #-536870911	@ 0xe0000001
 8002a0c:	93c3020e 	bicls	r0, r3, #-536870912	@ 0xe0000000
 8002a10:	935000d4 	cmpls	r0, #212	@ 0xd4
 8002a14:	9a000007 	bls	0x8002a38
 8002a18:	e59f85ac 	ldr	r8, [pc, #1452]	@ 0x8002fcc
 8002a1c:	e3a090ea 	mov	r9, #234	@ 0xea
 8002a20:	e3a0a0de 	mov	sl, #222	@ 0xde
 8002a24:	e3a00000 	mov	r0, #0
 8002a28:	e50b005c 	str	r0, [fp, #-92]	@ 0xffffffa4
 8002a2c:	e3899c1d 	orr	r9, r9, #7424	@ 0x1d00
 8002a30:	e38aa903 	orr	sl, sl, #49152	@ 0xc000
 8002a34:	ea00006e 	b	0x8002bf4
 8002a38:	e59f858c 	ldr	r8, [pc, #1420]	@ 0x8002fcc
 8002a3c:	e3e00000 	mvn	r0, #0
 8002a40:	e3a090ea 	mov	r9, #234	@ 0xea
 8002a44:	e3a0a0de 	mov	sl, #222	@ 0xde
 8002a48:	e2431001 	sub	r1, r3, #1
 8002a4c:	e0800183 	add	r0, r0, r3, lsl #3
 8002a50:	e3899c1d 	orr	r9, r9, #7424	@ 0x1d00
 8002a54:	e38aa903 	orr	sl, sl, #49152	@ 0xc000
 8002a58:	e15101a0 	cmp	r1, r0, lsr #3
 8002a5c:	3a000133 	bcc	0x8002f30
 8002a60:	e59d705c 	ldr	r7, [sp, #92]	@ 0x5c
 8002a64:	e1a01183 	lsl	r1, r3, #3
 8002a68:	e3a02002 	mov	r2, #2
 8002a6c:	e1a00003 	mov	r0, r3
 8002a70:	e50b701c 	str	r7, [fp, #-28]	@ 0xffffffe4
 8002a74:	e59d7048 	ldr	r7, [sp, #72]	@ 0x48
 8002a78:	e54b200c 	strb	r2, [fp, #-12]
 8002a7c:	e50b1010 	str	r1, [fp, #-16]
 8002a80:	e50b3014 	str	r3, [fp, #-20]	@ 0xffffffec
 8002a84:	e50b0018 	str	r0, [fp, #-24]	@ 0xffffffe8
 8002a88:	e3a040d4 	mov	r4, #212	@ 0xd4
 8002a8c:	e24b0048 	sub	r0, fp, #72	@ 0x48
 8002a90:	e24b101c 	sub	r1, fp, #28
 8002a94:	e3a02001 	mov	r2, #1
 8002a98:	e3a05001 	mov	r5, #1
 8002a9c:	e58d4000 	str	r4, [sp]
 8002aa0:	e1a03007 	mov	r3, r7
 8002aa4:	eb0022a9 	bl	0x800b550
 8002aa8:	e51b0048 	ldr	r0, [fp, #-72]	@ 0xffffffb8
 8002aac:	e55b103f 	ldrb	r1, [fp, #-63]	@ 0xffffffc1
 8002ab0:	e55b2040 	ldrb	r2, [fp, #-64]	@ 0xffffffc0
 8002ab4:	e51b3044 	ldr	r3, [fp, #-68]	@ 0xffffffbc
 8002ab8:	e3500002 	cmp	r0, #2
 8002abc:	1a000045 	bne	0x8002bd8
 8002ac0:	e24b0060 	sub	r0, fp, #96	@ 0x60
 8002ac4:	e58d6000 	str	r6, [sp]
 8002ac8:	e58d4004 	str	r4, [sp, #4]
 8002acc:	e58d2008 	str	r2, [sp, #8]
 8002ad0:	e58d100c 	str	r1, [sp, #12]
 8002ad4:	e2800004 	add	r0, r0, #4
 8002ad8:	e1a01007 	mov	r1, r7
 8002adc:	e3a020d4 	mov	r2, #212	@ 0xd4
 8002ae0:	eb002563 	bl	0x800c074
 8002ae4:	e51b805c 	ldr	r8, [fp, #-92]	@ 0xffffffa4
 8002ae8:	e51b9058 	ldr	r9, [fp, #-88]	@ 0xffffffa8
 8002aec:	e51b1054 	ldr	r1, [fp, #-84]	@ 0xffffffac
 8002af0:	e3a02000 	mov	r2, #0
 8002af4:	e3a05406 	mov	r5, #100663296	@ 0x6000000
 8002af8:	ea000005 	b	0x8002b14
 8002afc:	aaaaaaab 	bge	0x6aad5b0
 8002b00:	e59d5060 	ldr	r5, [sp, #96]	@ 0x60
 8002b04:	e2822001 	add	r2, r2, #1
 8002b08:	e35200a0 	cmp	r2, #160	@ 0xa0
 8002b0c:	e2855e1e 	add	r5, r5, #480	@ 0x1e0
 8002b10:	0a000023 	beq	0x8002ba4
 8002b14:	e3e00003 	mvn	r0, #3
 8002b18:	e3a06000 	mov	r6, #0
 8002b1c:	e58d5060 	str	r5, [sp, #96]	@ 0x60
 8002b20:	e08070a2 	add	r7, r0, r2, lsr #1
 8002b24:	e207a0ff 	and	sl, r7, #255	@ 0xff
 8002b28:	ea000004 	b	0x8002b40
 8002b2c:	e2866001 	add	r6, r6, #1
 8002b30:	e2400001 	sub	r0, r0, #1
 8002b34:	e0c500b2 	strh	r0, [r5], #2
 8002b38:	e35600f0 	cmp	r6, #240	@ 0xf0
 8002b3c:	0affffef 	beq	0x8002b00
 8002b40:	e3a00000 	mov	r0, #0
 8002b44:	e3560008 	cmp	r6, #8
 8002b48:	3afffff7 	bcc	0x8002b2c
 8002b4c:	e5d8c000 	ldrb	ip, [r8]
 8002b50:	e3e03003 	mvn	r3, #3
 8002b54:	e08340a6 	add	r4, r3, r6, lsr #1
 8002b58:	e154000c 	cmp	r4, ip
 8002b5c:	2afffff2 	bcs	0x8002b2c
 8002b60:	e3520008 	cmp	r2, #8
 8002b64:	3afffff0 	bcc	0x8002b2c
 8002b68:	e157000c 	cmp	r7, ip
 8002b6c:	2affffee 	bcs	0x8002b2c
 8002b70:	e20400ff 	and	r0, r4, #255	@ 0xff
 8002b74:	e15c0000 	cmp	ip, r0
 8002b78:	815c000a 	cmphi	ip, sl
 8002b7c:	9a0000c2 	bls	0x8002e8c
 8002b80:	e02e4c97 	mla	lr, r7, ip, r4
 8002b84:	e1a001ae 	lsr	r0, lr, #3
 8002b88:	e15101ae 	cmp	r1, lr, lsr #3
 8002b8c:	9a0000e5 	bls	0x8002f28
 8002b90:	e7d90000 	ldrb	r0, [r9, r0]
 8002b94:	e20e4007 	and	r4, lr, #7
 8002b98:	e3a03001 	mov	r3, #1
 8002b9c:	e0030430 	and	r0, r3, r0, lsr r4
 8002ba0:	eaffffe1 	b	0x8002b2c
 8002ba4:	e59d004c 	ldr	r0, [sp, #76]	@ 0x4c
 8002ba8:	e5d84000 	ldrb	r4, [r8]
 8002bac:	e3a010d4 	mov	r1, #212	@ 0xd4
 8002bb0:	eb000604 	bl	0x80043c8
 8002bb4:	e59d0048 	ldr	r0, [sp, #72]	@ 0x48
 8002bb8:	e3a010d4 	mov	r1, #212	@ 0xd4
 8002bbc:	eb000601 	bl	0x80043c8
 8002bc0:	e3a00010 	mov	r0, #16
 8002bc4:	e0806084 	add	r6, r0, r4, lsl #1
 8002bc8:	ea000039 	b	0x8002cb4
 8002bcc:	082fe520 	stmdaeq	pc!, {r5, r8, sl, sp, lr, pc}	@ <UNPREDICTABLE>
 8002bd0:	01010100 	mrseq	r0, (UNDEF: 17)
 8002bd4:	80808080 	addhi	r8, r0, r0, lsl #1
 8002bd8:	e15b73be 	ldrh	r7, [fp, #-62]	@ 0xffffffc2
 8002bdc:	e54b1053 	strb	r1, [fp, #-83]	@ 0xffffffad
 8002be0:	e54b2054 	strb	r2, [fp, #-84]	@ 0xffffffac
 8002be4:	e50b3058 	str	r3, [fp, #-88]	@ 0xffffffa8
 8002be8:	e50b005c 	str	r0, [fp, #-92]	@ 0xffffffa4
 8002bec:	e50b5060 	str	r5, [fp, #-96]	@ 0xffffffa0
 8002bf0:	e14b75b2 	strh	r7, [fp, #-82]	@ 0xffffffae
 8002bf4:	e24b205c 	sub	r2, fp, #92	@ 0x5c
 8002bf8:	e28d3070 	add	r3, sp, #112	@ 0x70
 8002bfc:	e8920007 	ldm	r2, {r0, r1, r2}
 8002c00:	e8830007 	stm	r3, {r0, r1, r2}
 8002c04:	e1c8a0b0 	strh	sl, [r8]
 8002c08:	e1d800b0 	ldrh	r0, [r8]
 8002c0c:	e1500009 	cmp	r0, r9
 8002c10:	1a000020 	bne	0x8002c98
 8002c14:	e3a00000 	mov	r0, #0
 8002c18:	e59f23f4 	ldr	r2, [pc, #1012]	@ 0x8003014
 8002c1c:	e3a01001 	mov	r1, #1
 8002c20:	e50b0038 	str	r0, [fp, #-56]	@ 0xffffffc8
 8002c24:	e50b0028 	str	r0, [fp, #-40]	@ 0xffffffd8
 8002c28:	e50b000c 	str	r0, [fp, #-12]
 8002c2c:	e59f039c 	ldr	r0, [pc, #924]	@ 0x8002fd0
 8002c30:	e50b1044 	str	r1, [fp, #-68]	@ 0xffffffbc
 8002c34:	e50b103c 	str	r1, [fp, #-60]	@ 0xffffffc4
 8002c38:	e50b1018 	str	r1, [fp, #-24]	@ 0xffffffe8
 8002c3c:	e50b1010 	str	r1, [fp, #-16]
 8002c40:	e59f1390 	ldr	r1, [pc, #912]	@ 0x8002fd8
 8002c44:	e50b2048 	str	r2, [fp, #-72]	@ 0xffffffb8
 8002c48:	e24b2030 	sub	r2, fp, #48	@ 0x30
 8002c4c:	e50b001c 	str	r0, [fp, #-28]	@ 0xffffffe4
 8002c50:	e24b0024 	sub	r0, fp, #36	@ 0x24
 8002c54:	e50b2040 	str	r2, [fp, #-64]	@ 0xffffffc0
 8002c58:	e59f23b8 	ldr	r2, [pc, #952]	@ 0x8003018
 8002c5c:	e50b0014 	str	r0, [fp, #-20]	@ 0xffffffec
 8002c60:	e59f036c 	ldr	r0, [pc, #876]	@ 0x8002fd4
 8002c64:	e50b202c 	str	r2, [fp, #-44]	@ 0xffffffd4
 8002c68:	e28d2070 	add	r2, sp, #112	@ 0x70
 8002c6c:	e50b0020 	str	r0, [fp, #-32]	@ 0xffffffe0
 8002c70:	e24b0048 	sub	r0, fp, #72	@ 0x48
 8002c74:	e50b2030 	str	r2, [fp, #-48]	@ 0xffffffd0
 8002c78:	e24b201c 	sub	r2, fp, #28
 8002c7c:	e50b0024 	str	r0, [fp, #-36]	@ 0xffffffdc
 8002c80:	e24b0028 	sub	r0, fp, #40	@ 0x28
 8002c84:	eb000de7 	bl	0x8006428
 8002c88:	e3500000 	cmp	r0, #0
 8002c8c:	03a00003 	moveq	r0, #3
 8002c90:	03800c01 	orreq	r0, r0, #256	@ 0x100
 8002c94:	014808b0 	strheq	r0, [r8, #-128]	@ 0xffffff80
 8002c98:	e1a00006 	mov	r0, r6
 8002c9c:	e3a010d4 	mov	r1, #212	@ 0xd4
 8002ca0:	eb0005c8 	bl	0x80043c8
 8002ca4:	e59d0048 	ldr	r0, [sp, #72]	@ 0x48
 8002ca8:	e3a010d4 	mov	r1, #212	@ 0xd4
 8002cac:	eb0005c5 	bl	0x80043c8
 8002cb0:	e3a06008 	mov	r6, #8
 8002cb4:	e3a00811 	mov	r0, #1114112	@ 0x110000
 8002cb8:	e59f4308 	ldr	r4, [pc, #776]	@ 0x8002fc8
 8002cbc:	e59f2300 	ldr	r2, [pc, #768]	@ 0x8002fc4
 8002cc0:	e59d1054 	ldr	r1, [sp, #84]	@ 0x54
 8002cc4:	e59f9364 	ldr	r9, [pc, #868]	@ 0x8003030
 8002cc8:	e59f32f0 	ldr	r3, [pc, #752]	@ 0x8002fc0
 8002ccc:	e3a07000 	mov	r7, #0
 8002cd0:	e24b501c 	sub	r5, fp, #28
 8002cd4:	e3a0a008 	mov	sl, #8
 8002cd8:	e3a08001 	mov	r8, #1
 8002cdc:	e58d6080 	str	r6, [sp, #128]	@ 0x80
 8002ce0:	e58d6078 	str	r6, [sp, #120]	@ 0x78
 8002ce4:	e58d0070 	str	r0, [sp, #112]	@ 0x70
 8002ce8:	e3a00004 	mov	r0, #4
 8002cec:	e58da07c 	str	sl, [sp, #124]	@ 0x7c
 8002cf0:	e1cd78b4 	strh	r7, [sp, #132]	@ 0x84
 8002cf4:	e58d5074 	str	r5, [sp, #116]	@ 0x74
 8002cf8:	e50b7038 	str	r7, [fp, #-56]	@ 0xffffffc8
 8002cfc:	e50b5040 	str	r5, [fp, #-64]	@ 0xffffffc0
 8002d00:	e50b805c 	str	r8, [fp, #-92]	@ 0xffffffa4
 8002d04:	e50b0044 	str	r0, [fp, #-68]	@ 0xffffffbc
 8002d08:	e59f0318 	ldr	r0, [pc, #792]	@ 0x8003028
 8002d0c:	e50b4014 	str	r4, [fp, #-20]	@ 0xffffffec
 8002d10:	e24b4048 	sub	r4, fp, #72	@ 0x48
 8002d14:	e50b100c 	str	r1, [fp, #-12]
 8002d18:	e50b2010 	str	r2, [fp, #-16]
 8002d1c:	e50b2018 	str	r2, [fp, #-24]	@ 0xffffffe8
 8002d20:	e1a01009 	mov	r1, r9
 8002d24:	e50b3008 	str	r3, [fp, #-8]
 8002d28:	e1a02004 	mov	r2, r4
 8002d2c:	e50b0048 	str	r0, [fp, #-72]	@ 0xffffffb8
 8002d30:	e3a00003 	mov	r0, #3
 8002d34:	e50b003c 	str	r0, [fp, #-60]	@ 0xffffffc4
 8002d38:	e24b0060 	sub	r0, fp, #96	@ 0x60
 8002d3c:	e50b001c 	str	r0, [fp, #-28]	@ 0xffffffe4
 8002d40:	e59f02e4 	ldr	r0, [pc, #740]	@ 0x800302c
 8002d44:	e50b0060 	str	r0, [fp, #-96]	@ 0xffffffa0
 8002d48:	e28d0070 	add	r0, sp, #112	@ 0x70
 8002d4c:	eb000db5 	bl	0x8006428
 8002d50:	e59d007c 	ldr	r0, [sp, #124]	@ 0x7c
 8002d54:	e14b74bc 	strh	r7, [fp, #-76]	@ 0xffffffb4
 8002d58:	e50b700c 	str	r7, [fp, #-12]
 8002d5c:	e59f72d0 	ldr	r7, [pc, #720]	@ 0x8003034
 8002d60:	e50b8018 	str	r8, [fp, #-24]	@ 0xffffffe8
 8002d64:	e50b8010 	str	r8, [fp, #-16]
 8002d68:	e1a08004 	mov	r8, r4
 8002d6c:	e50b4014 	str	r4, [fp, #-20]	@ 0xffffffec
 8002d70:	e59d4058 	ldr	r4, [sp, #88]	@ 0x58
 8002d74:	e24b201c 	sub	r2, fp, #28
 8002d78:	e1a01009 	mov	r1, r9
 8002d7c:	e50ba050 	str	sl, [fp, #-80]	@ 0xffffffb0
 8002d80:	e50ba058 	str	sl, [fp, #-88]	@ 0xffffffa8
 8002d84:	e50b505c 	str	r5, [fp, #-92]	@ 0xffffffa4
 8002d88:	e2800008 	add	r0, r0, #8
 8002d8c:	e50b7044 	str	r7, [fp, #-68]	@ 0xffffffbc
 8002d90:	e50b4048 	str	r4, [fp, #-72]	@ 0xffffffb8
 8002d94:	e1560000 	cmp	r6, r0
 8002d98:	c1a00006 	movgt	r0, r6
 8002d9c:	e59f622c 	ldr	r6, [pc, #556]	@ 0x8002fd0
 8002da0:	e50b0054 	str	r0, [fp, #-84]	@ 0xffffffac
 8002da4:	e3a00811 	mov	r0, #1114112	@ 0x110000
 8002da8:	e50b0060 	str	r0, [fp, #-96]	@ 0xffffffa0
 8002dac:	e24b0060 	sub	r0, fp, #96	@ 0x60
 8002db0:	e50b601c 	str	r6, [fp, #-28]	@ 0xffffffe4
 8002db4:	eb000d9b 	bl	0x8006428
 8002db8:	e3a01006 	mov	r1, #6
 8002dbc:	e3811301 	orr	r1, r1, #67108864	@ 0x4000000
 8002dc0:	e1d100b0 	ldrh	r0, [r1]
 8002dc4:	e350009f 	cmp	r0, #159	@ 0x9f
 8002dc8:	8afffffc 	bhi	0x8002dc0
 8002dcc:	e1d100b0 	ldrh	r0, [r1]
 8002dd0:	e35000a0 	cmp	r0, #160	@ 0xa0
 8002dd4:	3afffffc 	bcc	0x8002dcc
 8002dd8:	e59f51ec 	ldr	r5, [pc, #492]	@ 0x8002fcc
 8002ddc:	e3a020ea 	mov	r2, #234	@ 0xea
 8002de0:	e3a030de 	mov	r3, #222	@ 0xde
 8002de4:	e3822c1d 	orr	r2, r2, #7424	@ 0x1d00
 8002de8:	e3833903 	orr	r3, r3, #49152	@ 0xc000
 8002dec:	e1d100b0 	ldrh	r0, [r1]
 8002df0:	e350009f 	cmp	r0, #159	@ 0x9f
 8002df4:	8afffffc 	bhi	0x8002dec
 8002df8:	e1d100b0 	ldrh	r0, [r1]
 8002dfc:	e35000a0 	cmp	r0, #160	@ 0xa0
 8002e00:	3afffffc 	bcc	0x8002df8
 8002e04:	e1c530b0 	strh	r3, [r5]
 8002e08:	e1d500b0 	ldrh	r0, [r5]
 8002e0c:	e1500002 	cmp	r0, r2
 8002e10:	1a00001b 	bne	0x8002e84
 8002e14:	e3a00000 	mov	r0, #0
 8002e18:	e59f2218 	ldr	r2, [pc, #536]	@ 0x8003038
 8002e1c:	e3a01001 	mov	r1, #1
 8002e20:	e50b702c 	str	r7, [fp, #-44]	@ 0xffffffd4
 8002e24:	e50b4030 	str	r4, [fp, #-48]	@ 0xffffffd0
 8002e28:	e50b601c 	str	r6, [fp, #-28]	@ 0xffffffe4
 8002e2c:	e50b8024 	str	r8, [fp, #-36]	@ 0xffffffdc
 8002e30:	e50b0038 	str	r0, [fp, #-56]	@ 0xffffffc8
 8002e34:	e50b0028 	str	r0, [fp, #-40]	@ 0xffffffd8
 8002e38:	e50b000c 	str	r0, [fp, #-12]
 8002e3c:	e24b0024 	sub	r0, fp, #36	@ 0x24
 8002e40:	e50b1044 	str	r1, [fp, #-68]	@ 0xffffffbc
 8002e44:	e50b103c 	str	r1, [fp, #-60]	@ 0xffffffc4
 8002e48:	e50b1018 	str	r1, [fp, #-24]	@ 0xffffffe8
 8002e4c:	e50b1010 	str	r1, [fp, #-16]
 8002e50:	e59f1180 	ldr	r1, [pc, #384]	@ 0x8002fd8
 8002e54:	e50b0014 	str	r0, [fp, #-20]	@ 0xffffffec
 8002e58:	e59f0174 	ldr	r0, [pc, #372]	@ 0x8002fd4
 8002e5c:	e50b2048 	str	r2, [fp, #-72]	@ 0xffffffb8
 8002e60:	e24b2030 	sub	r2, fp, #48	@ 0x30
 8002e64:	e50b2040 	str	r2, [fp, #-64]	@ 0xffffffc0
 8002e68:	e24b201c 	sub	r2, fp, #28
 8002e6c:	e50b0020 	str	r0, [fp, #-32]	@ 0xffffffe0
 8002e70:	e24b0028 	sub	r0, fp, #40	@ 0x28
 8002e74:	eb000d6b 	bl	0x8006428
 8002e78:	e3500000 	cmp	r0, #0
 8002e7c:	03a00c01 	moveq	r0, #256	@ 0x100
 8002e80:	014508b0 	strheq	r0, [r5, #-128]	@ 0xffffff80
 8002e84:	ef020000 	svc	0x00020000
 8002e88:	eafffffd 	b	0x8002e84
 8002e8c:	e59f0188 	ldr	r0, [pc, #392]	@ 0x800301c
 8002e90:	e59f2188 	ldr	r2, [pc, #392]	@ 0x8003020
 8002e94:	e3a0103a 	mov	r1, #58	@ 0x3a
 8002e98:	eb000ed6 	bl	0x80069f8
 8002e9c:	e24b0048 	sub	r0, fp, #72	@ 0x48
 8002ea0:	e3a02006 	mov	r2, #6
 8002ea4:	eb002c74 	bl	0x800e07c
 8002ea8:	e51b1040 	ldr	r1, [fp, #-64]	@ 0xffffffc0
 8002eac:	e51b0044 	ldr	r0, [fp, #-68]	@ 0xffffffbc
 8002eb0:	e3510000 	cmp	r1, #0
 8002eb4:	0a000003 	beq	0x8002ec8
 8002eb8:	e2412001 	sub	r2, r1, #1
 8002ebc:	e1a021a2 	lsr	r2, r2, #3
 8002ec0:	e1520000 	cmp	r2, r0
 8002ec4:	2a000019 	bcs	0x8002f30
 8002ec8:	e51b7048 	ldr	r7, [fp, #-72]	@ 0xffffffb8
 8002ecc:	e59f80f8 	ldr	r8, [pc, #248]	@ 0x8002fcc
 8002ed0:	e3a090ea 	mov	r9, #234	@ 0xea
 8002ed4:	e3a0a0de 	mov	sl, #222	@ 0xde
 8002ed8:	e3a02001 	mov	r2, #1
 8002edc:	e3899c1d 	orr	r9, r9, #7424	@ 0x1d00
 8002ee0:	e38aa903 	orr	sl, sl, #49152	@ 0xc000
 8002ee4:	eafffb4a 	b	0x8001c14
 8002ee8:	e59f00ec 	ldr	r0, [pc, #236]	@ 0x8002fdc
 8002eec:	e59f20ec 	ldr	r2, [pc, #236]	@ 0x8002fe0
 8002ef0:	e3a01026 	mov	r1, #38	@ 0x26
 8002ef4:	eb000ebf 	bl	0x80069f8
 8002ef8:	eb001fa7 	bl	0x800ad9c
 8002efc:	e59f210c 	ldr	r2, [pc, #268]	@ 0x8003010
 8002f00:	e1a00005 	mov	r0, r5
 8002f04:	e1a01009 	mov	r1, r9
 8002f08:	eb000aea 	bl	0x8005ab8
 8002f0c:	e59f20f8 	ldr	r2, [pc, #248]	@ 0x800300c
 8002f10:	e1a00006 	mov	r0, r6
 8002f14:	eb000b03 	bl	0x8005b28
 8002f18:	e59f20ec 	ldr	r2, [pc, #236]	@ 0x800300c
 8002f1c:	e1a00001 	mov	r0, r1
 8002f20:	e1a01009 	mov	r1, r9
 8002f24:	eb000ae3 	bl	0x8005ab8
 8002f28:	e59f20f4 	ldr	r2, [pc, #244]	@ 0x8003024
 8002f2c:	eb000ec6 	bl	0x8006a4c
 8002f30:	e59f00ac 	ldr	r0, [pc, #172]	@ 0x8002fe4
 8002f34:	e59f20ac 	ldr	r2, [pc, #172]	@ 0x8002fe8
 8002f38:	e3a01044 	mov	r1, #68	@ 0x44
 8002f3c:	eb000ead 	bl	0x80069f8
 8002f40:	e59f20ac 	ldr	r2, [pc, #172]	@ 0x8002ff4
 8002f44:	e1a01009 	mov	r1, r9
 8002f48:	eb000ebf 	bl	0x8006a4c
 8002f4c:	e59d0044 	ldr	r0, [sp, #68]	@ 0x44
 8002f50:	e0870000 	add	r0, r7, r0
 8002f54:	e59f20a8 	ldr	r2, [pc, #168]	@ 0x8003004
 8002f58:	e3a0102d 	mov	r1, #45	@ 0x2d
 8002f5c:	e350002d 	cmp	r0, #45	@ 0x2d
 8002f60:	91a00001 	movls	r0, r1
 8002f64:	eb000eb8 	bl	0x8006a4c
 8002f68:	e59f2098 	ldr	r2, [pc, #152]	@ 0x8003008
 8002f6c:	e1a00001 	mov	r0, r1
 8002f70:	e3a0102d 	mov	r1, #45	@ 0x2d
 8002f74:	eb000eb4 	bl	0x8006a4c
 8002f78:	e59f2078 	ldr	r2, [pc, #120]	@ 0x8002ff8
 8002f7c:	e1a00001 	mov	r0, r1
 8002f80:	e1a01009 	mov	r1, r9
 8002f84:	eb000eb0 	bl	0x8006a4c
 8002f88:	e59f206c 	ldr	r2, [pc, #108]	@ 0x8002ffc
 8002f8c:	e1a00003 	mov	r0, r3
 8002f90:	e1a01009 	mov	r1, r9
 8002f94:	eb000eac 	bl	0x8006a4c
 8002f98:	e59d0018 	ldr	r0, [sp, #24]
 8002f9c:	e0860000 	add	r0, r6, r0
 8002fa0:	eaffffeb 	b	0x8002f54
 8002fa4:	e59f2054 	ldr	r2, [pc, #84]	@ 0x8003000
 8002fa8:	e1a01009 	mov	r1, r9
 8002fac:	eb000ea6 	bl	0x8006a4c
 8002fb0:	e59f2048 	ldr	r2, [pc, #72]	@ 0x8003000
 8002fb4:	e59d0018 	ldr	r0, [sp, #24]
 8002fb8:	e1a01009 	mov	r1, r9
 8002fbc:	eb000ea2 	bl	0x8006a4c
 8002fc0:	0800304c 	stmdaeq	r0, {r2, r3, r6, ip, sp}
 8002fc4:	08006a3c 	stmdaeq	r0, {r2, r3, r4, r5, r9, fp, sp, lr}
 8002fc8:	082fccc8 	stmdaeq	pc!, {r3, r6, r7, sl, fp, lr, pc}	@ <UNPREDICTABLE>
 8002fcc:	04fff780 	ldrbteq	pc, [pc], #1920	@ 0x8002fd4	@ <UNPREDICTABLE>
 8002fd0:	082e3e54 	stmdaeq	lr!, {r2, r4, r6, r9, sl, fp, ip, sp}
 8002fd4:	08006bf4 	stmdaeq	r0, {r2, r4, r5, r6, r7, r8, r9, fp, sp, lr}
 8002fd8:	082e3858 	stmdaeq	lr!, {r3, r4, r6, fp, ip, sp}
 8002fdc:	082fe448 	stmdaeq	pc!, {r3, r6, sl, sp, lr, pc}	@ <UNPREDICTABLE>
 8002fe0:	082fe470 	stmdaeq	pc!, {r4, r5, r6, sl, sp, lr, pc}	@ <UNPREDICTABLE>
 8002fe4:	082fe4cc 	stmdaeq	pc!, {r2, r3, r6, r7, sl, sp, lr, pc}	@ <UNPREDICTABLE>
 8002fe8:	082fe510 	stmdaeq	pc!, {r4, r8, sl, sp, lr, pc}	@ <UNPREDICTABLE>
 8002fec:	082fe520 	stmdaeq	pc!, {r5, r8, sl, sp, lr, pc}	@ <UNPREDICTABLE>
 8002ff0:	80808080 	addhi	r8, r0, r0, lsl #1
 8002ff4:	082fdaf8 	stmdaeq	pc!, {r3, r4, r5, r6, r7, r9, fp, ip, lr, pc}	@ <UNPREDICTABLE>
 8002ff8:	082fdb08 	stmdaeq	pc!, {r3, r8, r9, fp, ip, lr, pc}	@ <UNPREDICTABLE>
 8002ffc:	082fdb18 	stmdaeq	pc!, {r3, r4, r8, r9, fp, ip, lr, pc}	@ <UNPREDICTABLE>
 8003000:	082fdfbc 	stmdaeq	pc!, {r2, r3, r4, r5, r7, r8, r9, sl, fp, ip, lr, pc}	@ <UNPREDICTABLE>
 8003004:	082fdfdc 	stmdaeq	pc!, {r2, r3, r4, r6, r7, r8, r9, sl, fp, ip, lr, pc}	@ <UNPREDICTABLE>
 8003008:	082fdfcc 	stmdaeq	pc!, {r2, r3, r6, r7, r8, r9, sl, fp, ip, lr, pc}	@ <UNPREDICTABLE>
 800300c:	082fdae8 	stmdaeq	pc!, {r3, r5, r6, r7, r9, fp, ip, lr, pc}	@ <UNPREDICTABLE>
 8003010:	082fdad8 	stmdaeq	pc!, {r3, r4, r6, r7, r9, fp, ip, lr, pc}	@ <UNPREDICTABLE>
 8003014:	082fccec 	stmdaeq	pc!, {r2, r3, r5, r6, r7, sl, fp, lr, pc}	@ <UNPREDICTABLE>
 8003018:	08004b48 	stmdaeq	r0, {r3, r6, r8, r9, fp, lr}
 800301c:	082fe130 	stmdaeq	pc!, {r4, r5, r8, sp, lr, pc}	@ <UNPREDICTABLE>
 8003020:	082fe16c 	stmdaeq	pc!, {r2, r3, r5, r6, r8, sp, lr, pc}	@ <UNPREDICTABLE>
 8003024:	082fe17c 	stmdaeq	pc!, {r2, r3, r4, r5, r6, r8, sp, lr, pc}	@ <UNPREDICTABLE>
 8003028:	082e37d4 	stmdaeq	lr!, {r2, r4, r6, r7, r8, r9, sl, ip, sp}
 800302c:	082e37c0 	stmdaeq	lr!, {r6, r7, r8, r9, sl, ip, sp}
 8003030:	082e3840 	stmdaeq	lr!, {r6, fp, ip, sp}
 8003034:	08003d00 	stmdaeq	r0, {r8, sl, fp, ip, sp}
 8003038:	082e37fc 	stmdaeq	lr!, {r2, r3, r4, r5, r6, r7, r8, r9, sl, ip, sp}
 800303c:	e1a03001 	mov	r3, r1
 8003040:	e9900006 	ldmib	r0, {r1, r2}
 8003044:	e1a00003 	mov	r0, r3
 8003048:	ea000bbc 	b	0x8005f40
 800304c:	e92d4ff0 	push	{r4, r5, r6, r7, r8, r9, sl, fp, lr}
 8003050:	e28db01c 	add	fp, sp, #28
 8003054:	e24dd034 	sub	sp, sp, #52	@ 0x34
 8003058:	e5902000 	ldr	r2, [r0]
 800305c:	e5920008 	ldr	r0, [r2, #8]
 8003060:	e3500000 	cmp	r0, #0
 8003064:	0a000041 	beq	0x8003170
 8003068:	e5926004 	ldr	r6, [r2, #4]
 800306c:	e591901c 	ldr	r9, [r1, #28]
 8003070:	e5915020 	ldr	r5, [r1, #32]
 8003074:	e59fa128 	ldr	sl, [pc, #296]	@ 0x80031a4
 8003078:	e1a04100 	lsl	r4, r0, #2
 800307c:	e3a0801f 	mov	r8, #31
 8003080:	e4960004 	ldr	r0, [r6], #4
 8003084:	e3a018ff 	mov	r1, #16711680	@ 0xff0000
 8003088:	e38114ff 	orr	r1, r1, #-16777216	@ 0xff000000
 800308c:	e0001001 	and	r1, r0, r1
 8003090:	e200203f 	and	r2, r0, #63	@ 0x3f
 8003094:	e3510302 	cmp	r1, #134217728	@ 0x8000000
 8003098:	e0081320 	and	r1, r8, r0, lsr #6
 800309c:	1a000008 	bne	0x80030c4
 80030a0:	e00805a0 	and	r0, r8, r0, lsr #11
 80030a4:	e7da1001 	ldrb	r1, [sl, r1]
 80030a8:	e7da2002 	ldrb	r2, [sl, r2]
 80030ac:	e7da0000 	ldrb	r0, [sl, r0]
 80030b0:	e5cd2006 	strb	r2, [sp, #6]
 80030b4:	e1800401 	orr	r0, r0, r1, lsl #8
 80030b8:	e1cd00b4 	strh	r0, [sp, #4]
 80030bc:	e3a00003 	mov	r0, #3
 80030c0:	ea000011 	b	0x800310c
 80030c4:	e7da1001 	ldrb	r1, [sl, r1]
 80030c8:	e7da2002 	ldrb	r2, [sl, r2]
 80030cc:	e5cd1008 	strb	r1, [sp, #8]
 80030d0:	e00815a0 	and	r1, r8, r0, lsr #11
 80030d4:	e5cd2009 	strb	r2, [sp, #9]
 80030d8:	e7da1001 	ldrb	r1, [sl, r1]
 80030dc:	e5cd1007 	strb	r1, [sp, #7]
 80030e0:	e3a0103f 	mov	r1, #63	@ 0x3f
 80030e4:	e0011820 	and	r1, r1, r0, lsr #16
 80030e8:	e7da1001 	ldrb	r1, [sl, r1]
 80030ec:	e5cd1006 	strb	r1, [sp, #6]
 80030f0:	e0081b20 	and	r1, r8, r0, lsr #22
 80030f4:	e08a0da0 	add	r0, sl, r0, lsr #27
 80030f8:	e5d00020 	ldrb	r0, [r0, #32]
 80030fc:	e7da1001 	ldrb	r1, [sl, r1]
 8003100:	e5cd0004 	strb	r0, [sp, #4]
 8003104:	e3a00006 	mov	r0, #6
 8003108:	e5cd1005 	strb	r1, [sp, #5]
 800310c:	e58d0010 	str	r0, [sp, #16]
 8003110:	e28d0004 	add	r0, sp, #4
 8003114:	e3a07001 	mov	r7, #1
 8003118:	e1a01005 	mov	r1, r5
 800311c:	e28d2014 	add	r2, sp, #20
 8003120:	e58d000c 	str	r0, [sp, #12]
 8003124:	e3a00000 	mov	r0, #0
 8003128:	e58d7018 	str	r7, [sp, #24]
 800312c:	e58d7020 	str	r7, [sp, #32]
 8003130:	e58d0024 	str	r0, [sp, #36]	@ 0x24
 8003134:	e59f006c 	ldr	r0, [pc, #108]	@ 0x80031a8
 8003138:	e58d0014 	str	r0, [sp, #20]
 800313c:	e24b0024 	sub	r0, fp, #36	@ 0x24
 8003140:	e58d001c 	str	r0, [sp, #28]
 8003144:	e59f0060 	ldr	r0, [pc, #96]	@ 0x80031ac
 8003148:	e50b0020 	str	r0, [fp, #-32]	@ 0xffffffe0
 800314c:	e28d000c 	add	r0, sp, #12
 8003150:	e50b0024 	str	r0, [fp, #-36]	@ 0xffffffdc
 8003154:	e1a00009 	mov	r0, r9
 8003158:	eb000cb2 	bl	0x8006428
 800315c:	e3500000 	cmp	r0, #0
 8003160:	1a00000b 	bne	0x8003194
 8003164:	e2544004 	subs	r4, r4, #4
 8003168:	1affffc4 	bne	0x8003080
 800316c:	ea000001 	b	0x8003178
 8003170:	e591901c 	ldr	r9, [r1, #28]
 8003174:	e5915020 	ldr	r5, [r1, #32]
 8003178:	e595300c 	ldr	r3, [r5, #12]
 800317c:	e59f102c 	ldr	r1, [pc, #44]	@ 0x80031b0
 8003180:	e1a00009 	mov	r0, r9
 8003184:	e3a02002 	mov	r2, #2
 8003188:	e1a0e00f 	mov	lr, pc
 800318c:	e12fff13 	bx	r3
 8003190:	e1a07000 	mov	r7, r0
 8003194:	e1a00007 	mov	r0, r7
 8003198:	e24bd01c 	sub	sp, fp, #28
 800319c:	e8bd4ff0 	pop	{r4, r5, r6, r7, r8, r9, sl, fp, lr}
 80031a0:	e12fff1e 	bx	lr
 80031a4:	082fcb14 	stmdaeq	pc!, {r2, r4, r8, r9, fp, lr, pc}	@ <UNPREDICTABLE>
 80031a8:	082e3e54 	stmdaeq	lr!, {r2, r4, r6, r9, sl, fp, ip, sp}
 80031ac:	08006a3c 	stmdaeq	r0, {r2, r3, r4, r5, r9, fp, sp, lr}
 80031b0:	082e38e0 	stmdaeq	lr!, {r5, r6, r7, fp, ip, sp}
 80031b4:	e92d4800 	push	{fp, lr}
 80031b8:	e1a0b00d 	mov	fp, sp
 80031bc:	e24dd008 	sub	sp, sp, #8
 80031c0:	e3a02000 	mov	r2, #0
 80031c4:	e3510080 	cmp	r1, #128	@ 0x80
 80031c8:	e58d2004 	str	r2, [sp, #4]
 80031cc:	2a000002 	bcs	0x80031dc
 80031d0:	e3a02001 	mov	r2, #1
 80031d4:	e5cd1004 	strb	r1, [sp, #4]
 80031d8:	ea000023 	b	0x800326c
 80031dc:	e3510b02 	cmp	r1, #2048	@ 0x800
 80031e0:	2a000006 	bcs	0x8003200
 80031e4:	e3a020c0 	mov	r2, #192	@ 0xc0
 80031e8:	e1822321 	orr	r2, r2, r1, lsr #6
 80031ec:	e201103f 	and	r1, r1, #63	@ 0x3f
 80031f0:	e3811080 	orr	r1, r1, #128	@ 0x80
 80031f4:	e5cd2004 	strb	r2, [sp, #4]
 80031f8:	e3a02002 	mov	r2, #2
 80031fc:	ea000019 	b	0x8003268
 8003200:	e3510801 	cmp	r1, #65536	@ 0x10000
 8003204:	2a00000a 	bcs	0x8003234
 8003208:	e3a020e0 	mov	r2, #224	@ 0xe0
 800320c:	e1822621 	orr	r2, r2, r1, lsr #12
 8003210:	e5cd2004 	strb	r2, [sp, #4]
 8003214:	e201203f 	and	r2, r1, #63	@ 0x3f
 8003218:	e3822080 	orr	r2, r2, #128	@ 0x80
 800321c:	e5cd2006 	strb	r2, [sp, #6]
 8003220:	e3a0203f 	mov	r2, #63	@ 0x3f
 8003224:	e0021321 	and	r1, r2, r1, lsr #6
 8003228:	e3a02003 	mov	r2, #3
 800322c:	e3811080 	orr	r1, r1, #128	@ 0x80
 8003230:	ea00000c 	b	0x8003268
 8003234:	e3a020f0 	mov	r2, #240	@ 0xf0
 8003238:	e1822921 	orr	r2, r2, r1, lsr #18
 800323c:	e5cd2004 	strb	r2, [sp, #4]
 8003240:	e201203f 	and	r2, r1, #63	@ 0x3f
 8003244:	e3822080 	orr	r2, r2, #128	@ 0x80
 8003248:	e5cd2007 	strb	r2, [sp, #7]
 800324c:	e3a0203f 	mov	r2, #63	@ 0x3f
 8003250:	e0023321 	and	r3, r2, r1, lsr #6
 8003254:	e0021621 	and	r1, r2, r1, lsr #12
 8003258:	e3a02004 	mov	r2, #4
 800325c:	e3833080 	orr	r3, r3, #128	@ 0x80
 8003260:	e3811080 	orr	r1, r1, #128	@ 0x80
 8003264:	e5cd3006 	strb	r3, [sp, #6]
 8003268:	e5cd1005 	strb	r1, [sp, #5]
 800326c:	e28d1004 	add	r1, sp, #4
 8003270:	eb000003 	bl	0x8003284
 8003274:	e3a00000 	mov	r0, #0
 8003278:	e1a0d00b 	mov	sp, fp
 800327c:	e8bd4800 	pop	{fp, lr}
 8003280:	e12fff1e 	bx	lr
 8003284:	e92d4ff0 	push	{r4, r5, r6, r7, r8, r9, sl, fp, lr}
 8003288:	e28db01c 	add	fp, sp, #28
 800328c:	e24dd024 	sub	sp, sp, #36	@ 0x24
 8003290:	e3520000 	cmp	r2, #0
 8003294:	0a0000fe 	beq	0x8003694
 8003298:	e1a09000 	mov	r9, r0
 800329c:	e590e000 	ldr	lr, [r0]
 80032a0:	e5904008 	ldr	r4, [r0, #8]
 80032a4:	e590a00c 	ldr	sl, [r0, #12]
 80032a8:	e5900010 	ldr	r0, [r0, #16]
 80032ac:	e0816002 	add	r6, r1, r2
 80032b0:	e1a0c001 	mov	ip, r1
 80032b4:	e3a05001 	mov	r5, #1
 80032b8:	e58d6004 	str	r6, [sp, #4]
 80032bc:	e58d9000 	str	r9, [sp]
 80032c0:	e58d0008 	str	r0, [sp, #8]
 80032c4:	e1d901b4 	ldrh	r0, [r9, #20]
 80032c8:	e58d0020 	str	r0, [sp, #32]
 80032cc:	ea000005 	b	0x80032e8
 80032d0:	e59d4008 	ldr	r4, [sp, #8]
 80032d4:	e28aa010 	add	sl, sl, #16
 80032d8:	e589a00c 	str	sl, [r9, #12]
 80032dc:	e5894008 	str	r4, [r9, #8]
 80032e0:	e15c0006 	cmp	ip, r6
 80032e4:	0a0000ea 	beq	0x8003694
 80032e8:	e1a0000c 	mov	r0, ip
 80032ec:	e0d010d1 	ldrsb	r1, [r0], #1
 80032f0:	e20130ff 	and	r3, r1, #255	@ 0xff
 80032f4:	e3710001 	cmn	r1, #1
 80032f8:	da000003 	ble	0x800330c
 80032fc:	e1a0c000 	mov	ip, r0
 8003300:	e353000a 	cmp	r3, #10
 8003304:	1a00001c 	bne	0x800337c
 8003308:	eafffff0 	b	0x80032d0
 800330c:	e5dc1001 	ldrb	r1, [ip, #1]
 8003310:	e203001f 	and	r0, r3, #31
 8003314:	e35300e0 	cmp	r3, #224	@ 0xe0
 8003318:	e201103f 	and	r1, r1, #63	@ 0x3f
 800331c:	3a00000d 	bcc	0x8003358
 8003320:	e5dc2002 	ldrb	r2, [ip, #2]
 8003324:	e35300f0 	cmp	r3, #240	@ 0xf0
 8003328:	e202203f 	and	r2, r2, #63	@ 0x3f
 800332c:	e1821301 	orr	r1, r2, r1, lsl #6
 8003330:	3a00000d 	bcc	0x800336c
 8003334:	e5dc2003 	ldrb	r2, [ip, #3]
 8003338:	e2000007 	and	r0, r0, #7
 800333c:	e28cc004 	add	ip, ip, #4
 8003340:	e202203f 	and	r2, r2, #63	@ 0x3f
 8003344:	e1821301 	orr	r1, r2, r1, lsl #6
 8003348:	e1813900 	orr	r3, r1, r0, lsl #18
 800334c:	e353000a 	cmp	r3, #10
 8003350:	1a000009 	bne	0x800337c
 8003354:	eaffffdd 	b	0x80032d0
 8003358:	e1813300 	orr	r3, r1, r0, lsl #6
 800335c:	e28cc002 	add	ip, ip, #2
 8003360:	e353000a 	cmp	r3, #10
 8003364:	1a000004 	bne	0x800337c
 8003368:	eaffffd8 	b	0x80032d0
 800336c:	e1813600 	orr	r3, r1, r0, lsl #12
 8003370:	e28cc003 	add	ip, ip, #3
 8003374:	e353000a 	cmp	r3, #10
 8003378:	0affffd4 	beq	0x80032d0
 800337c:	e3530020 	cmp	r3, #32
 8003380:	1a000004 	bne	0x8003398
 8003384:	e2844005 	add	r4, r4, #5
 8003388:	e5894008 	str	r4, [r9, #8]
 800338c:	e15c0006 	cmp	ip, r6
 8003390:	1affffd4 	bne	0x80032e8
 8003394:	ea0000be 	b	0x8003694
 8003398:	e3a000b6 	mov	r0, #182	@ 0xb6
 800339c:	e59f6314 	ldr	r6, [pc, #788]	@ 0x80036b8
 80033a0:	e3a02e5a 	mov	r2, #1440	@ 0x5a0
 80033a4:	e58da014 	str	sl, [sp, #20]
 80033a8:	e58d3010 	str	r3, [sp, #16]
 80033ac:	e3800a03 	orr	r0, r0, #12288	@ 0x3000
 80033b0:	e1530000 	cmp	r3, r0
 80033b4:	33a02000 	movcc	r2, #0
 80033b8:	e2820e2d 	add	r0, r2, #720	@ 0x2d0
 80033bc:	e1a07006 	mov	r7, r6
 80033c0:	e0601180 	rsb	r1, r0, r0, lsl #3
 80033c4:	e7961101 	ldr	r1, [r6, r1, lsl #2]
 80033c8:	e1510003 	cmp	r1, r3
 80033cc:	91a02000 	movls	r2, r0
 80033d0:	e2820f5a 	add	r0, r2, #360	@ 0x168
 80033d4:	e0601180 	rsb	r1, r0, r0, lsl #3
 80033d8:	e7961101 	ldr	r1, [r6, r1, lsl #2]
 80033dc:	e1510003 	cmp	r1, r3
 80033e0:	91a02000 	movls	r2, r0
 80033e4:	e28200b4 	add	r0, r2, #180	@ 0xb4
 80033e8:	e0601180 	rsb	r1, r0, r0, lsl #3
 80033ec:	e7961101 	ldr	r1, [r6, r1, lsl #2]
 80033f0:	e1510003 	cmp	r1, r3
 80033f4:	91a02000 	movls	r2, r0
 80033f8:	e282005a 	add	r0, r2, #90	@ 0x5a
 80033fc:	e0601180 	rsb	r1, r0, r0, lsl #3
 8003400:	e7961101 	ldr	r1, [r6, r1, lsl #2]
 8003404:	e1510003 	cmp	r1, r3
 8003408:	91a02000 	movls	r2, r0
 800340c:	e282002d 	add	r0, r2, #45	@ 0x2d
 8003410:	e0601180 	rsb	r1, r0, r0, lsl #3
 8003414:	e7961101 	ldr	r1, [r6, r1, lsl #2]
 8003418:	e1510003 	cmp	r1, r3
 800341c:	91a02000 	movls	r2, r0
 8003420:	e2820016 	add	r0, r2, #22
 8003424:	e0601180 	rsb	r1, r0, r0, lsl #3
 8003428:	e7961101 	ldr	r1, [r6, r1, lsl #2]
 800342c:	e1510003 	cmp	r1, r3
 8003430:	91a02000 	movls	r2, r0
 8003434:	e282000b 	add	r0, r2, #11
 8003438:	e0601180 	rsb	r1, r0, r0, lsl #3
 800343c:	e7961101 	ldr	r1, [r6, r1, lsl #2]
 8003440:	e1510003 	cmp	r1, r3
 8003444:	91a02000 	movls	r2, r0
 8003448:	e2820006 	add	r0, r2, #6
 800344c:	e0601180 	rsb	r1, r0, r0, lsl #3
 8003450:	e7961101 	ldr	r1, [r6, r1, lsl #2]
 8003454:	e1510003 	cmp	r1, r3
 8003458:	91a02000 	movls	r2, r0
 800345c:	e2820003 	add	r0, r2, #3
 8003460:	e0601180 	rsb	r1, r0, r0, lsl #3
 8003464:	e7961101 	ldr	r1, [r6, r1, lsl #2]
 8003468:	e1510003 	cmp	r1, r3
 800346c:	91a02000 	movls	r2, r0
 8003470:	e2820001 	add	r0, r2, #1
 8003474:	e0601180 	rsb	r1, r0, r0, lsl #3
 8003478:	e7961101 	ldr	r1, [r6, r1, lsl #2]
 800347c:	e1510003 	cmp	r1, r3
 8003480:	91a02000 	movls	r2, r0
 8003484:	e2820001 	add	r0, r2, #1
 8003488:	e0601180 	rsb	r1, r0, r0, lsl #3
 800348c:	e7961101 	ldr	r1, [r6, r1, lsl #2]
 8003490:	e1510003 	cmp	r1, r3
 8003494:	e3a01000 	mov	r1, #0
 8003498:	91a02000 	movls	r2, r0
 800349c:	e0620182 	rsb	r0, r2, r2, lsl #3
 80034a0:	e7b70100 	ldr	r0, [r7, r0, lsl #2]!
 80034a4:	e1500003 	cmp	r0, r3
 80034a8:	11a07006 	movne	r7, r6
 80034ac:	e35e0811 	cmp	lr, #1114112	@ 0x110000
 80034b0:	15971010 	ldrne	r1, [r7, #16]
 80034b4:	e1d7a1d6 	ldrsb	sl, [r7, #22]
 80034b8:	13510000 	cmpne	r1, #0
 80034bc:	1a00002b 	bne	0x8003570
 80034c0:	e59d0010 	ldr	r0, [sp, #16]
 80034c4:	e5d7e014 	ldrb	lr, [r7, #20]
 80034c8:	e5890000 	str	r0, [r9]
 80034cc:	e081000a 	add	r0, r1, sl
 80034d0:	e0804004 	add	r4, r0, r4
 80034d4:	e084000e 	add	r0, r4, lr
 80034d8:	e5894008 	str	r4, [r9, #8]
 80034dc:	e35000f0 	cmp	r0, #240	@ 0xf0
 80034e0:	ba000018 	blt	0x8003548
 80034e4:	e59da014 	ldr	sl, [sp, #20]
 80034e8:	e59d4008 	ldr	r4, [sp, #8]
 80034ec:	e28aa010 	add	sl, sl, #16
 80034f0:	e5894008 	str	r4, [r9, #8]
 80034f4:	e589a00c 	str	sl, [r9, #12]
 80034f8:	e5d78015 	ldrb	r8, [r7, #21]
 80034fc:	e08a0008 	add	r0, sl, r8
 8003500:	e350009f 	cmp	r0, #159	@ 0x9f
 8003504:	ca000014 	bgt	0x800355c
 8003508:	e3580000 	cmp	r8, #0
 800350c:	e58da014 	str	sl, [sp, #20]
 8003510:	e58dc00c 	str	ip, [sp, #12]
 8003514:	135e0000 	cmpne	lr, #0
 8003518:	1a000029 	bne	0x80035c4
 800351c:	e5d70018 	ldrb	r0, [r7, #24]
 8003520:	e59d9000 	ldr	r9, [sp]
 8003524:	e59de010 	ldr	lr, [sp, #16]
 8003528:	e59dc00c 	ldr	ip, [sp, #12]
 800352c:	e59d6004 	ldr	r6, [sp, #4]
 8003530:	e59da014 	ldr	sl, [sp, #20]
 8003534:	e0844000 	add	r4, r4, r0
 8003538:	e5894008 	str	r4, [r9, #8]
 800353c:	e15c0006 	cmp	ip, r6
 8003540:	1affff68 	bne	0x80032e8
 8003544:	ea000052 	b	0x8003694
 8003548:	e59da014 	ldr	sl, [sp, #20]
 800354c:	e5d78015 	ldrb	r8, [r7, #21]
 8003550:	e08a0008 	add	r0, sl, r8
 8003554:	e350009f 	cmp	r0, #159	@ 0x9f
 8003558:	daffffea 	ble	0x8003508
 800355c:	e59de010 	ldr	lr, [sp, #16]
 8003560:	e59d6004 	ldr	r6, [sp, #4]
 8003564:	e15c0006 	cmp	ip, r6
 8003568:	1affff5e 	bne	0x80032e8
 800356c:	ea000048 	b	0x8003694
 8003570:	e597200c 	ldr	r2, [r7, #12]
 8003574:	e3a00000 	mov	r0, #0
 8003578:	e3510001 	cmp	r1, #1
 800357c:	e58dc00c 	str	ip, [sp, #12]
 8003580:	0a000008 	beq	0x80035a8
 8003584:	e3a03000 	mov	r3, #0
 8003588:	e08300a1 	add	r0, r3, r1, lsr #1
 800358c:	e04110a1 	sub	r1, r1, r1, lsr #1
 8003590:	e7926180 	ldr	r6, [r2, r0, lsl #3]
 8003594:	e156000e 	cmp	r6, lr
 8003598:	81a00003 	movhi	r0, r3
 800359c:	e3510001 	cmp	r1, #1
 80035a0:	e1a03000 	mov	r3, r0
 80035a4:	8afffff7 	bhi	0x8003588
 80035a8:	e7923180 	ldr	r3, [r2, r0, lsl #3]
 80035ac:	e3a01000 	mov	r1, #0
 80035b0:	e59dc00c 	ldr	ip, [sp, #12]
 80035b4:	e153000e 	cmp	r3, lr
 80035b8:	00820180 	addeq	r0, r2, r0, lsl #3
 80035bc:	01d010d4 	ldrsbeq	r1, [r0, #4]
 80035c0:	eaffffbe 	b	0x80034c0
 80035c4:	e3a00406 	mov	r0, #100663296	@ 0x6000000
 80035c8:	e59d1014 	ldr	r1, [sp, #20]
 80035cc:	e597c008 	ldr	ip, [r7, #8]
 80035d0:	e3a02000 	mov	r2, #0
 80035d4:	e0800084 	add	r0, r0, r4, lsl #1
 80035d8:	e58d0018 	str	r0, [sp, #24]
 80035dc:	e1d701d7 	ldrsb	r0, [r7, #23]
 80035e0:	e0880000 	add	r0, r8, r0
 80035e4:	e0410000 	sub	r0, r1, r0
 80035e8:	e280000c 	add	r0, r0, #12
 80035ec:	e58d001c 	str	r0, [sp, #28]
 80035f0:	e3a00000 	mov	r0, #0
 80035f4:	ea000003 	b	0x8003608
 80035f8:	e2800001 	add	r0, r0, #1
 80035fc:	e082200e 	add	r2, r2, lr
 8003600:	e1500008 	cmp	r0, r8
 8003604:	0affffc4 	beq	0x800351c
 8003608:	e59d101c 	ldr	r1, [sp, #28]
 800360c:	e1a0300e 	mov	r3, lr
 8003610:	e0816000 	add	r6, r1, r0
 8003614:	e1a01002 	mov	r1, r2
 8003618:	e35600a0 	cmp	r6, #160	@ 0xa0
 800361c:	2a000004 	bcs	0x8003634
 8003620:	e59d3018 	ldr	r3, [sp, #24]
 8003624:	e0661206 	rsb	r1, r6, r6, lsl #4
 8003628:	e3a09000 	mov	r9, #0
 800362c:	e0831281 	add	r1, r3, r1, lsl #5
 8003630:	ea000009 	b	0x800365c
 8003634:	e15c01a1 	cmp	ip, r1, lsr #3
 8003638:	9a000019 	bls	0x80036a4
 800363c:	e2811001 	add	r1, r1, #1
 8003640:	e2533001 	subs	r3, r3, #1
 8003644:	1afffffa 	bne	0x8003634
 8003648:	eaffffea 	b	0x80035f8
 800364c:	e2899001 	add	r9, r9, #1
 8003650:	e2811002 	add	r1, r1, #2
 8003654:	e15e0009 	cmp	lr, r9
 8003658:	0affffe6 	beq	0x80035f8
 800365c:	e082a009 	add	sl, r2, r9
 8003660:	e1a031aa 	lsr	r3, sl, #3
 8003664:	e15c01aa 	cmp	ip, sl, lsr #3
 8003668:	9a00000e 	bls	0x80036a8
 800366c:	e0846009 	add	r6, r4, r9
 8003670:	e35600ef 	cmp	r6, #239	@ 0xef
 8003674:	8afffff4 	bhi	0x800364c
 8003678:	e5976004 	ldr	r6, [r7, #4]
 800367c:	e7d63003 	ldrb	r3, [r6, r3]
 8003680:	e20a6007 	and	r6, sl, #7
 8003684:	e0133615 	ands	r3, r3, r5, lsl r6
 8003688:	159d3020 	ldrne	r3, [sp, #32]
 800368c:	11c130b0 	strhne	r3, [r1]
 8003690:	eaffffed 	b	0x800364c
 8003694:	e3a00000 	mov	r0, #0
 8003698:	e24bd01c 	sub	sp, fp, #28
 800369c:	e8bd4ff0 	pop	{r4, r5, r6, r7, r8, r9, sl, fp, lr}
 80036a0:	e12fff1e 	bx	lr
 80036a4:	e1a031a1 	lsr	r3, r1, #3
 80036a8:	e59f200c 	ldr	r2, [pc, #12]	@ 0x80036bc
 80036ac:	e1a00003 	mov	r0, r3
 80036b0:	e1a0100c 	mov	r1, ip
 80036b4:	eb000ce4 	bl	0x8006a4c
 80036b8:	082e900c 	stmdaeq	lr!, {r2, r3, ip, pc}
 80036bc:	082e39bc 	stmdaeq	lr!, {r2, r3, r4, r5, r7, r8, fp, ip, sp}
 80036c0:	e5913004 	ldr	r3, [r1, #4]
 80036c4:	e1a02001 	mov	r2, r1
 80036c8:	e591100c 	ldr	r1, [r1, #12]
 80036cc:	e3530001 	cmp	r3, #1
 80036d0:	0a000005 	beq	0x80036ec
 80036d4:	e3530000 	cmp	r3, #0
 80036d8:	03510000 	cmpeq	r1, #0
 80036dc:	1a000004 	bne	0x80036f4
 80036e0:	e3a01001 	mov	r1, #1
 80036e4:	e3a02000 	mov	r2, #0
 80036e8:	ea000005 	b	0x8003704
 80036ec:	e3510000 	cmp	r1, #0
 80036f0:	0a000001 	beq	0x80036fc
 80036f4:	e59f1020 	ldr	r1, [pc, #32]	@ 0x800371c
 80036f8:	ea000b4a 	b	0x8006428
 80036fc:	e5922000 	ldr	r2, [r2]
 8003700:	e8920006 	ldm	r2, {r1, r2}
 8003704:	e92d4800 	push	{fp, lr}
 8003708:	e1a0b00d 	mov	fp, sp
 800370c:	ebfffedc 	bl	0x8003284
 8003710:	e3a00000 	mov	r0, #0
 8003714:	e8bd4800 	pop	{fp, lr}
 8003718:	e12fff1e 	bx	lr
 800371c:	082e3840 	stmdaeq	lr!, {r6, fp, ip, sp}
 8003720:	e92d4bf0 	push	{r4, r5, r6, r7, r8, r9, fp, lr}
 8003724:	e28db018 	add	fp, sp, #24
 8003728:	e24dd038 	sub	sp, sp, #56	@ 0x38
 800372c:	e5917020 	ldr	r7, [r1, #32]
 8003730:	e591801c 	ldr	r8, [r1, #28]
 8003734:	e1a06001 	mov	r6, r1
 8003738:	e59f1124 	ldr	r1, [pc, #292]	@ 0x8003864
 800373c:	e3a0200f 	mov	r2, #15
 8003740:	e597400c 	ldr	r4, [r7, #12]
 8003744:	e1a00008 	mov	r0, r8
 8003748:	e1a0e00f 	mov	lr, pc
 800374c:	e12fff14 	bx	r4
 8003750:	e3a05001 	mov	r5, #1
 8003754:	e3500000 	cmp	r0, #0
 8003758:	0a000003 	beq	0x800376c
 800375c:	e1a00005 	mov	r0, r5
 8003760:	e24bd018 	sub	sp, fp, #24
 8003764:	e8bd4bf0 	pop	{r4, r5, r6, r7, r8, r9, fp, lr}
 8003768:	e12fff1e 	bx	lr
 800376c:	e5d60014 	ldrb	r0, [r6, #20]
 8003770:	e3100004 	tst	r0, #4
 8003774:	1a00000d 	bne	0x80037b0
 8003778:	e59f10f8 	ldr	r1, [pc, #248]	@ 0x8003878
 800377c:	e1a00008 	mov	r0, r8
 8003780:	e3a02001 	mov	r2, #1
 8003784:	e1a0e00f 	mov	lr, pc
 8003788:	e12fff14 	bx	r4
 800378c:	e3500000 	cmp	r0, #0
 8003790:	1afffff1 	bne	0x800375c
 8003794:	e59f10d4 	ldr	r1, [pc, #212]	@ 0x8003870
 8003798:	e1a00006 	mov	r0, r6
 800379c:	e3a02002 	mov	r2, #2
 80037a0:	eb0009e6 	bl	0x8005f40
 80037a4:	e3500000 	cmp	r0, #0
 80037a8:	1affffeb 	bne	0x800375c
 80037ac:	ea000022 	b	0x800383c
 80037b0:	e59f10b0 	ldr	r1, [pc, #176]	@ 0x8003868
 80037b4:	e1a00008 	mov	r0, r8
 80037b8:	e3a02002 	mov	r2, #2
 80037bc:	e1a0e00f 	mov	lr, pc
 80037c0:	e12fff14 	bx	r4
 80037c4:	e3500000 	cmp	r0, #0
 80037c8:	1affffe3 	bne	0x800375c
 80037cc:	e28d0013 	add	r0, sp, #19
 80037d0:	e5cd5013 	strb	r5, [sp, #19]
 80037d4:	e58d7008 	str	r7, [sp, #8]
 80037d8:	e58d8004 	str	r8, [sp, #4]
 80037dc:	e1a09004 	mov	r9, r4
 80037e0:	e58d000c 	str	r0, [sp, #12]
 80037e4:	e28d0014 	add	r0, sp, #20
 80037e8:	e8b6008c 	ldm	r6!, {r2, r3, r7}
 80037ec:	e1a01000 	mov	r1, r0
 80037f0:	e8a1008c 	stmia	r1!, {r2, r3, r7}
 80037f4:	e896009c 	ldm	r6, {r2, r3, r4, r7}
 80037f8:	e881009c 	stm	r1, {r2, r3, r4, r7}
 80037fc:	e59f1068 	ldr	r1, [pc, #104]	@ 0x800386c
 8003800:	e3a02002 	mov	r2, #2
 8003804:	e58d1034 	str	r1, [sp, #52]	@ 0x34
 8003808:	e28d1004 	add	r1, sp, #4
 800380c:	e58d1030 	str	r1, [sp, #48]	@ 0x30
 8003810:	e59f1058 	ldr	r1, [pc, #88]	@ 0x8003870
 8003814:	eb0009c9 	bl	0x8005f40
 8003818:	e3500000 	cmp	r0, #0
 800381c:	1affffce 	bne	0x800375c
 8003820:	e59f104c 	ldr	r1, [pc, #76]	@ 0x8003874
 8003824:	e28d0004 	add	r0, sp, #4
 8003828:	e3a02002 	mov	r2, #2
 800382c:	eb000b94 	bl	0x8006684
 8003830:	e3500000 	cmp	r0, #0
 8003834:	e1a04009 	mov	r4, r9
 8003838:	1affffc7 	bne	0x800375c
 800383c:	e59f1038 	ldr	r1, [pc, #56]	@ 0x800387c
 8003840:	e1a00008 	mov	r0, r8
 8003844:	e3a02001 	mov	r2, #1
 8003848:	e1a0e00f 	mov	lr, pc
 800384c:	e12fff14 	bx	r4
 8003850:	e1a05000 	mov	r5, r0
 8003854:	e1a00005 	mov	r0, r5
 8003858:	e24bd018 	sub	sp, fp, #24
 800385c:	e8bd4bf0 	pop	{r4, r5, r6, r7, r8, r9, fp, lr}
 8003860:	e12fff1e 	bx	lr
 8003864:	082e3830 	stmdaeq	lr!, {r4, r5, fp, ip, sp}
 8003868:	082fd9a1 	stmdaeq	pc!, {r0, r5, r7, r8, fp, ip, lr, pc}	@ <UNPREDICTABLE>
 800386c:	082fd984 	stmdaeq	pc!, {r2, r7, r8, fp, ip, lr, pc}	@ <UNPREDICTABLE>
 8003870:	082fcb54 	stmdaeq	pc!, {r2, r4, r6, r8, r9, fp, lr, pc}	@ <UNPREDICTABLE>
 8003874:	082fd99e 	stmdaeq	pc!, {r1, r2, r3, r4, r7, r8, fp, ip, lr, pc}	@ <UNPREDICTABLE>
 8003878:	082fd9a0 	stmdaeq	pc!, {r5, r7, r8, fp, ip, lr, pc}	@ <UNPREDICTABLE>
 800387c:	082fd8b8 	stmdaeq	pc!, {r3, r4, r5, r7, fp, ip, lr, pc}	@ <UNPREDICTABLE>
 8003880:	e3520000 	cmp	r2, #0
 8003884:	0a000010 	beq	0x80038cc
 8003888:	e92d4830 	push	{r4, r5, fp, lr}
 800388c:	e28db008 	add	fp, sp, #8
 8003890:	e5903000 	ldr	r3, [r0]
 8003894:	e59fc038 	ldr	ip, [pc, #56]	@ 0x80038d4
 8003898:	e59f4038 	ldr	r4, [pc, #56]	@ 0x80038d8
 800389c:	e3a0e003 	mov	lr, #3
 80038a0:	e38eec01 	orr	lr, lr, #256	@ 0x100
 80038a4:	e4d15001 	ldrb	r5, [r1], #1
 80038a8:	e3530c01 	cmp	r3, #256	@ 0x100
 80038ac:	23a03000 	movcs	r3, #0
 80038b0:	21cce0b0 	strhcs	lr, [ip]
 80038b4:	e2522001 	subs	r2, r2, #1
 80038b8:	e7c35004 	strb	r5, [r3, r4]
 80038bc:	e2833001 	add	r3, r3, #1
 80038c0:	e5803000 	str	r3, [r0]
 80038c4:	1afffff6 	bne	0x80038a4
 80038c8:	e8bd4830 	pop	{r4, r5, fp, lr}
 80038cc:	e3a00000 	mov	r0, #0
 80038d0:	e12fff1e 	bx	lr
 80038d4:	04fff700 	ldrbteq	pc, [pc], #1792	@ 0x80038dc	@ <UNPREDICTABLE>
 80038d8:	04fff600 	ldrbteq	pc, [pc], #1536	@ 0x80038e0	@ <UNPREDICTABLE>
 80038dc:	e92d4830 	push	{r4, r5, fp, lr}
 80038e0:	e28db008 	add	fp, sp, #8
 80038e4:	e24dd004 	sub	sp, sp, #4
 80038e8:	e3a02000 	mov	r2, #0
 80038ec:	e3510080 	cmp	r1, #128	@ 0x80
 80038f0:	e58d2000 	str	r2, [sp]
 80038f4:	e1a0200d 	mov	r2, sp
 80038f8:	2a000002 	bcs	0x8003908
 80038fc:	e3823001 	orr	r3, r2, #1
 8003900:	e5cd1000 	strb	r1, [sp]
 8003904:	ea000021 	b	0x8003990
 8003908:	e3510b02 	cmp	r1, #2048	@ 0x800
 800390c:	2a000005 	bcs	0x8003928
 8003910:	e3a050c0 	mov	r5, #192	@ 0xc0
 8003914:	e3823002 	orr	r3, r2, #2
 8003918:	e1855321 	orr	r5, r5, r1, lsr #6
 800391c:	e201103f 	and	r1, r1, #63	@ 0x3f
 8003920:	e5cd5000 	strb	r5, [sp]
 8003924:	ea000017 	b	0x8003988
 8003928:	e3510801 	cmp	r1, #65536	@ 0x10000
 800392c:	2a000009 	bcs	0x8003958
 8003930:	e3a050e0 	mov	r5, #224	@ 0xe0
 8003934:	e3823003 	orr	r3, r2, #3
 8003938:	e1855621 	orr	r5, r5, r1, lsr #12
 800393c:	e5cd5000 	strb	r5, [sp]
 8003940:	e201503f 	and	r5, r1, #63	@ 0x3f
 8003944:	e3855080 	orr	r5, r5, #128	@ 0x80
 8003948:	e5cd5002 	strb	r5, [sp, #2]
 800394c:	e3a0503f 	mov	r5, #63	@ 0x3f
 8003950:	e0051321 	and	r1, r5, r1, lsr #6
 8003954:	ea00000b 	b	0x8003988
 8003958:	e3a050f0 	mov	r5, #240	@ 0xf0
 800395c:	e2823004 	add	r3, r2, #4
 8003960:	e1855921 	orr	r5, r5, r1, lsr #18
 8003964:	e5cd5000 	strb	r5, [sp]
 8003968:	e201503f 	and	r5, r1, #63	@ 0x3f
 800396c:	e3855080 	orr	r5, r5, #128	@ 0x80
 8003970:	e5cd5003 	strb	r5, [sp, #3]
 8003974:	e3a0503f 	mov	r5, #63	@ 0x3f
 8003978:	e0054321 	and	r4, r5, r1, lsr #6
 800397c:	e0051621 	and	r1, r5, r1, lsr #12
 8003980:	e3844080 	orr	r4, r4, #128	@ 0x80
 8003984:	e5cd4002 	strb	r4, [sp, #2]
 8003988:	e3811080 	orr	r1, r1, #128	@ 0x80
 800398c:	e5cd1001 	strb	r1, [sp, #1]
 8003990:	e5901000 	ldr	r1, [r0]
 8003994:	e59fc03c 	ldr	ip, [pc, #60]	@ 0x80039d8
 8003998:	e59f403c 	ldr	r4, [pc, #60]	@ 0x80039dc
 800399c:	e3a0e003 	mov	lr, #3
 80039a0:	e38eec01 	orr	lr, lr, #256	@ 0x100
 80039a4:	e4d25001 	ldrb	r5, [r2], #1
 80039a8:	e3510c01 	cmp	r1, #256	@ 0x100
 80039ac:	23a01000 	movcs	r1, #0
 80039b0:	21cce0b0 	strhcs	lr, [ip]
 80039b4:	e7c15004 	strb	r5, [r1, r4]
 80039b8:	e2811001 	add	r1, r1, #1
 80039bc:	e1520003 	cmp	r2, r3
 80039c0:	e5801000 	str	r1, [r0]
 80039c4:	1afffff6 	bne	0x80039a4
 80039c8:	e3a00000 	mov	r0, #0
 80039cc:	e24bd008 	sub	sp, fp, #8
 80039d0:	e8bd4830 	pop	{r4, r5, fp, lr}
 80039d4:	e12fff1e 	bx	lr
 80039d8:	04fff700 	ldrbteq	pc, [pc], #1792	@ 0x80039e0	@ <UNPREDICTABLE>
 80039dc:	04fff600 	ldrbteq	pc, [pc], #1536	@ 0x80039e4	@ <UNPREDICTABLE>
 80039e0:	e92d4830 	push	{r4, r5, fp, lr}
 80039e4:	e28db008 	add	fp, sp, #8
 80039e8:	e5913004 	ldr	r3, [r1, #4]
 80039ec:	e1a02001 	mov	r2, r1
 80039f0:	e591100c 	ldr	r1, [r1, #12]
 80039f4:	e3530001 	cmp	r3, #1
 80039f8:	0a000003 	beq	0x8003a0c
 80039fc:	e3530000 	cmp	r3, #0
 8003a00:	03510000 	cmpeq	r1, #0
 8003a04:	1a000002 	bne	0x8003a14
 8003a08:	ea000017 	b	0x8003a6c
 8003a0c:	e3510000 	cmp	r1, #0
 8003a10:	0a000002 	beq	0x8003a20
 8003a14:	e59f1064 	ldr	r1, [pc, #100]	@ 0x8003a80
 8003a18:	e8bd4830 	pop	{r4, r5, fp, lr}
 8003a1c:	ea000a81 	b	0x8006428
 8003a20:	e5922000 	ldr	r2, [r2]
 8003a24:	e5921004 	ldr	r1, [r2, #4]
 8003a28:	e3510000 	cmp	r1, #0
 8003a2c:	0a00000e 	beq	0x8003a6c
 8003a30:	e5922000 	ldr	r2, [r2]
 8003a34:	e5903000 	ldr	r3, [r0]
 8003a38:	e59fc038 	ldr	ip, [pc, #56]	@ 0x8003a78
 8003a3c:	e59f4038 	ldr	r4, [pc, #56]	@ 0x8003a7c
 8003a40:	e3a0e003 	mov	lr, #3
 8003a44:	e38eec01 	orr	lr, lr, #256	@ 0x100
 8003a48:	e4d25001 	ldrb	r5, [r2], #1
 8003a4c:	e3530c01 	cmp	r3, #256	@ 0x100
 8003a50:	23a03000 	movcs	r3, #0
 8003a54:	21cce0b0 	strhcs	lr, [ip]
 8003a58:	e2511001 	subs	r1, r1, #1
 8003a5c:	e7c35004 	strb	r5, [r3, r4]
 8003a60:	e2833001 	add	r3, r3, #1
 8003a64:	e5803000 	str	r3, [r0]
 8003a68:	1afffff6 	bne	0x8003a48
 8003a6c:	e3a00000 	mov	r0, #0
 8003a70:	e8bd4830 	pop	{r4, r5, fp, lr}
 8003a74:	e12fff1e 	bx	lr
 8003a78:	04fff700 	ldrbteq	pc, [pc], #1792	@ 0x8003a80	@ <UNPREDICTABLE>
 8003a7c:	04fff600 	ldrbteq	pc, [pc], #1536	@ 0x8003a84	@ <UNPREDICTABLE>
 8003a80:	082e3858 	stmdaeq	lr!, {r3, r4, r6, fp, ip, sp}
 8003a84:	e92d4800 	push	{fp, lr}
 8003a88:	e1a0b00d 	mov	fp, sp
 8003a8c:	e24dd050 	sub	sp, sp, #80	@ 0x50
 8003a90:	e59f1160 	ldr	r1, [pc, #352]	@ 0x8003bf8
 8003a94:	e59f5160 	ldr	r5, [pc, #352]	@ 0x8003bfc
 8003a98:	e3a070de 	mov	r7, #222	@ 0xde
 8003a9c:	e58d0010 	str	r0, [sp, #16]
 8003aa0:	e5d12000 	ldrb	r2, [r1]
 8003aa4:	e3877903 	orr	r7, r7, #49152	@ 0xc000
 8003aa8:	e31200ff 	tst	r2, #255	@ 0xff
 8003aac:	0a000027 	beq	0x8003b50
 8003ab0:	e1c570b0 	strh	r7, [r5]
 8003ab4:	e3a010ea 	mov	r1, #234	@ 0xea
 8003ab8:	e1d500b0 	ldrh	r0, [r5]
 8003abc:	e3811c1d 	orr	r1, r1, #7424	@ 0x1d00
 8003ac0:	e1500001 	cmp	r0, r1
 8003ac4:	1a00001f 	bne	0x8003b48
 8003ac8:	e3a00000 	mov	r0, #0
 8003acc:	e59f212c 	ldr	r2, [pc, #300]	@ 0x8003c00
 8003ad0:	e3a01001 	mov	r1, #1
 8003ad4:	e58d0024 	str	r0, [sp, #36]	@ 0x24
 8003ad8:	e50b001c 	str	r0, [fp, #-28]	@ 0xffffffe4
 8003adc:	e50b0008 	str	r0, [fp, #-8]
 8003ae0:	e59f0120 	ldr	r0, [pc, #288]	@ 0x8003c08
 8003ae4:	e58d1018 	str	r1, [sp, #24]
 8003ae8:	e58d1020 	str	r1, [sp, #32]
 8003aec:	e50b1014 	str	r1, [fp, #-20]	@ 0xffffffec
 8003af0:	e50b100c 	str	r1, [fp, #-12]
 8003af4:	e59f1114 	ldr	r1, [pc, #276]	@ 0x8003c10
 8003af8:	e58d2014 	str	r2, [sp, #20]
 8003afc:	e24b2024 	sub	r2, fp, #36	@ 0x24
 8003b00:	e50b0018 	str	r0, [fp, #-24]	@ 0xffffffe8
 8003b04:	e28d0004 	add	r0, sp, #4
 8003b08:	e58d201c 	str	r2, [sp, #28]
 8003b0c:	e59f20f0 	ldr	r2, [pc, #240]	@ 0x8003c04
 8003b10:	e50b0010 	str	r0, [fp, #-16]
 8003b14:	e59f00f0 	ldr	r0, [pc, #240]	@ 0x8003c0c
 8003b18:	e50b2020 	str	r2, [fp, #-32]	@ 0xffffffe0
 8003b1c:	e28d2010 	add	r2, sp, #16
 8003b20:	e58d0008 	str	r0, [sp, #8]
 8003b24:	e28d0014 	add	r0, sp, #20
 8003b28:	e50b2024 	str	r2, [fp, #-36]	@ 0xffffffdc
 8003b2c:	e24b2018 	sub	r2, fp, #24
 8003b30:	e58d0004 	str	r0, [sp, #4]
 8003b34:	e24b001c 	sub	r0, fp, #28
 8003b38:	eb000a3a 	bl	0x8006428
 8003b3c:	e3500000 	cmp	r0, #0
 8003b40:	03a00c01 	moveq	r0, #256	@ 0x100
 8003b44:	014508b0 	strheq	r0, [r5, #-128]	@ 0xffffff80
 8003b48:	ef020000 	svc	0x00020000
 8003b4c:	eafffffd 	b	0x8003b48
 8003b50:	e3a06001 	mov	r6, #1
 8003b54:	e5c16000 	strb	r6, [r1]
 8003b58:	e1a04000 	mov	r4, r0
 8003b5c:	e28d0004 	add	r0, sp, #4
 8003b60:	eb00002c 	bl	0x8003c18
 8003b64:	e1c570b0 	strh	r7, [r5]
 8003b68:	e3a010ea 	mov	r1, #234	@ 0xea
 8003b6c:	e1d500b0 	ldrh	r0, [r5]
 8003b70:	e3811c1d 	orr	r1, r1, #7424	@ 0x1d00
 8003b74:	e1500001 	cmp	r0, r1
 8003b78:	1a00001b 	bne	0x8003bec
 8003b7c:	e3a00000 	mov	r0, #0
 8003b80:	e59f108c 	ldr	r1, [pc, #140]	@ 0x8003c14
 8003b84:	e24b2018 	sub	r2, fp, #24
 8003b88:	e58d6018 	str	r6, [sp, #24]
 8003b8c:	e50b6014 	str	r6, [fp, #-20]	@ 0xffffffec
 8003b90:	e50b600c 	str	r6, [fp, #-12]
 8003b94:	e58d0024 	str	r0, [sp, #36]	@ 0x24
 8003b98:	e58d0020 	str	r0, [sp, #32]
 8003b9c:	e50b001c 	str	r0, [fp, #-28]	@ 0xffffffe4
 8003ba0:	e50b0008 	str	r0, [fp, #-8]
 8003ba4:	e59f005c 	ldr	r0, [pc, #92]	@ 0x8003c08
 8003ba8:	e58d1014 	str	r1, [sp, #20]
 8003bac:	e3a01004 	mov	r1, #4
 8003bb0:	e50b0018 	str	r0, [fp, #-24]	@ 0xffffffe8
 8003bb4:	e24b0024 	sub	r0, fp, #36	@ 0x24
 8003bb8:	e58d101c 	str	r1, [sp, #28]
 8003bbc:	e59f104c 	ldr	r1, [pc, #76]	@ 0x8003c10
 8003bc0:	e50b0010 	str	r0, [fp, #-16]
 8003bc4:	e59f0040 	ldr	r0, [pc, #64]	@ 0x8003c0c
 8003bc8:	e50b0020 	str	r0, [fp, #-32]	@ 0xffffffe0
 8003bcc:	e28d0014 	add	r0, sp, #20
 8003bd0:	e50b0024 	str	r0, [fp, #-36]	@ 0xffffffdc
 8003bd4:	e24b001c 	sub	r0, fp, #28
 8003bd8:	eb000a12 	bl	0x8006428
 8003bdc:	e3500000 	cmp	r0, #0
 8003be0:	03a00001 	moveq	r0, #1
 8003be4:	03800c01 	orreq	r0, r0, #256	@ 0x100
 8003be8:	014508b0 	strheq	r0, [r5, #-128]	@ 0xffffff80
 8003bec:	e28d0004 	add	r0, sp, #4
 8003bf0:	e1a01004 	mov	r1, r4
 8003bf4:	eb0003c8 	bl	0x8004b1c
 8003bf8:	020010f0 	andeq	r1, r0, #240	@ 0xf0
 8003bfc:	04fff780 	ldrbteq	pc, [pc], #1920	@ 0x8003c04	@ <UNPREDICTABLE>
 8003c00:	082e3814 	stmdaeq	lr!, {r2, r4, fp, ip, sp}
 8003c04:	08003d00 	stmdaeq	r0, {r8, sl, fp, ip, sp}
 8003c08:	082e3e54 	stmdaeq	lr!, {r2, r4, r6, r9, sl, fp, ip, sp}
 8003c0c:	08006bf4 	stmdaeq	r0, {r2, r4, r5, r6, r7, r8, r9, fp, sp, lr}
 8003c10:	082e3858 	stmdaeq	lr!, {r3, r4, r6, fp, ip, sp}
 8003c14:	082fcb0c 	stmdaeq	pc!, {r2, r3, r8, r9, fp, lr, pc}	@ <UNPREDICTABLE>
 8003c18:	e92d4df0 	push	{r4, r5, r6, r7, r8, sl, fp, lr}
 8003c1c:	e28db018 	add	fp, sp, #24
 8003c20:	e24dd038 	sub	sp, sp, #56	@ 0x38
 8003c24:	e1a0500d 	mov	r5, sp
 8003c28:	e1a08000 	mov	r8, r0
 8003c2c:	e3a0102c 	mov	r1, #44	@ 0x2c
 8003c30:	e1a00005 	mov	r0, r5
 8003c34:	eb0037c3 	bl	0x8011b48
 8003c38:	e1a00005 	mov	r0, r5
 8003c3c:	e5800000 	str	r0, [r0]
 8003c40:	e5801004 	str	r1, [r0, #4]
 8003c44:	e5802008 	str	r2, [r0, #8]
 8003c48:	e580300c 	str	r3, [r0, #12]
 8003c4c:	e5804010 	str	r4, [r0, #16]
 8003c50:	e5805014 	str	r5, [r0, #20]
 8003c54:	e5806018 	str	r6, [r0, #24]
 8003c58:	e580701c 	str	r7, [r0, #28]
 8003c5c:	e1a0700d 	mov	r7, sp
 8003c60:	e5807020 	str	r7, [r0, #32]
 8003c64:	e1a0700e 	mov	r7, lr
 8003c68:	e5807024 	str	r7, [r0, #36]	@ 0x24
 8003c6c:	e1a0700f 	mov	r7, pc
 8003c70:	e5807028 	str	r7, [r0, #40]	@ 0x28
 8003c74:	e590701c 	ldr	r7, [r0, #28]
 8003c78:	e3a06000 	mov	r6, #0
 8003c7c:	e59d101c 	ldr	r1, [sp, #28]
 8003c80:	e3a00004 	mov	r0, #4
 8003c84:	e50b601c 	str	r6, [fp, #-28]	@ 0xffffffe4
 8003c88:	e50b6024 	str	r6, [fp, #-36]	@ 0xffffffdc
 8003c8c:	e50b0020 	str	r0, [fp, #-32]	@ 0xffffffe0
 8003c90:	e5917000 	ldr	r7, [r1]
 8003c94:	e3570000 	cmp	r7, #0
 8003c98:	0a000012 	beq	0x8003ce8
 8003c9c:	e24b5024 	sub	r5, fp, #36	@ 0x24
 8003ca0:	ea000008 	b	0x8003cc8
 8003ca4:	e2441002 	sub	r1, r4, #2
 8003ca8:	e7801106 	str	r1, [r0, r6, lsl #2]
 8003cac:	e2866001 	add	r6, r6, #1
 8003cb0:	e1a01007 	mov	r1, r7
 8003cb4:	e5972000 	ldr	r2, [r7]
 8003cb8:	e50b601c 	str	r6, [fp, #-28]	@ 0xffffffe4
 8003cbc:	e3520000 	cmp	r2, #0
 8003cc0:	e1a07002 	mov	r7, r2
 8003cc4:	0a000007 	beq	0x8003ce8
 8003cc8:	e5914004 	ldr	r4, [r1, #4]
 8003ccc:	e51b1024 	ldr	r1, [fp, #-36]	@ 0xffffffdc
 8003cd0:	e1560001 	cmp	r6, r1
 8003cd4:	1afffff2 	bne	0x8003ca4
 8003cd8:	e1a00005 	mov	r0, r5
 8003cdc:	eb000081 	bl	0x8003ee8
 8003ce0:	e51b0020 	ldr	r0, [fp, #-32]	@ 0xffffffe0
 8003ce4:	eaffffee 	b	0x8003ca4
 8003ce8:	e24b2024 	sub	r2, fp, #36	@ 0x24
 8003cec:	e8920007 	ldm	r2, {r0, r1, r2}
 8003cf0:	e8880007 	stm	r8, {r0, r1, r2}
 8003cf4:	e24bd018 	sub	sp, fp, #24
 8003cf8:	e8bd4df0 	pop	{r4, r5, r6, r7, r8, sl, fp, lr}
 8003cfc:	e12fff1e 	bx	lr
 8003d00:	e92d4ff0 	push	{r4, r5, r6, r7, r8, r9, sl, fp, lr}
 8003d04:	e28db01c 	add	fp, sp, #28
 8003d08:	e24dd034 	sub	sp, sp, #52	@ 0x34
 8003d0c:	e5915020 	ldr	r5, [r1, #32]
 8003d10:	e591a01c 	ldr	sl, [r1, #28]
 8003d14:	e59f1124 	ldr	r1, [pc, #292]	@ 0x8003e40
 8003d18:	e5908000 	ldr	r8, [r0]
 8003d1c:	e3a0200c 	mov	r2, #12
 8003d20:	e595400c 	ldr	r4, [r5, #12]
 8003d24:	e1a0000a 	mov	r0, sl
 8003d28:	e1a0e00f 	mov	lr, pc
 8003d2c:	e12fff14 	bx	r4
 8003d30:	e3a06001 	mov	r6, #1
 8003d34:	e3500000 	cmp	r0, #0
 8003d38:	1a00003c 	bne	0x8003e30
 8003d3c:	e3a01000 	mov	r1, #0
 8003d40:	e5980004 	ldr	r0, [r8, #4]
 8003d44:	e59f20f8 	ldr	r2, [pc, #248]	@ 0x8003e44
 8003d48:	e28d901c 	add	r9, sp, #28
 8003d4c:	e58d1014 	str	r1, [sp, #20]
 8003d50:	e3a01003 	mov	r1, #3
 8003d54:	e58d900c 	str	r9, [sp, #12]
 8003d58:	e58d1008 	str	r1, [sp, #8]
 8003d5c:	e58d1010 	str	r1, [sp, #16]
 8003d60:	e59f10e0 	ldr	r1, [pc, #224]	@ 0x8003e48
 8003d64:	e58d2004 	str	r2, [sp, #4]
 8003d68:	e280200c 	add	r2, r0, #12
 8003d6c:	e58d001c 	str	r0, [sp, #28]
 8003d70:	e58d202c 	str	r2, [sp, #44]	@ 0x2c
 8003d74:	e28d2004 	add	r2, sp, #4
 8003d78:	e58d1030 	str	r1, [sp, #48]	@ 0x30
 8003d7c:	e58d1028 	str	r1, [sp, #40]	@ 0x28
 8003d80:	e2801008 	add	r1, r0, #8
 8003d84:	e1a0000a 	mov	r0, sl
 8003d88:	e58d1024 	str	r1, [sp, #36]	@ 0x24
 8003d8c:	e59f10b8 	ldr	r1, [pc, #184]	@ 0x8003e4c
 8003d90:	e58d1020 	str	r1, [sp, #32]
 8003d94:	e1a01005 	mov	r1, r5
 8003d98:	eb0009a2 	bl	0x8006428
 8003d9c:	e3500000 	cmp	r0, #0
 8003da0:	1a000022 	bne	0x8003e30
 8003da4:	e59f10a4 	ldr	r1, [pc, #164]	@ 0x8003e50
 8003da8:	e1a0000a 	mov	r0, sl
 8003dac:	e3a02002 	mov	r2, #2
 8003db0:	e1a0e00f 	mov	lr, pc
 8003db4:	e12fff14 	bx	r4
 8003db8:	e3500000 	cmp	r0, #0
 8003dbc:	1a00001b 	bne	0x8003e30
 8003dc0:	e5980000 	ldr	r0, [r8]
 8003dc4:	e1a0c004 	mov	ip, r4
 8003dc8:	e89000de 	ldm	r0, {r1, r2, r3, r4, r6, r7}
 8003dcc:	e88900de 	stm	r9, {r1, r2, r3, r4, r6, r7}
 8003dd0:	e59d1020 	ldr	r1, [sp, #32]
 8003dd4:	e59d0028 	ldr	r0, [sp, #40]	@ 0x28
 8003dd8:	e3510001 	cmp	r1, #1
 8003ddc:	0a000005 	beq	0x8003df8
 8003de0:	e3510000 	cmp	r1, #0
 8003de4:	03500000 	cmpeq	r0, #0
 8003de8:	1a000004 	bne	0x8003e00
 8003dec:	e3a01001 	mov	r1, #1
 8003df0:	e3a02000 	mov	r2, #0
 8003df4:	ea000008 	b	0x8003e1c
 8003df8:	e3500000 	cmp	r0, #0
 8003dfc:	0a000004 	beq	0x8003e14
 8003e00:	e28d201c 	add	r2, sp, #28
 8003e04:	e1a0000a 	mov	r0, sl
 8003e08:	e1a01005 	mov	r1, r5
 8003e0c:	eb000985 	bl	0x8006428
 8003e10:	ea000005 	b	0x8003e2c
 8003e14:	e59d001c 	ldr	r0, [sp, #28]
 8003e18:	e8900006 	ldm	r0, {r1, r2}
 8003e1c:	e1a0000a 	mov	r0, sl
 8003e20:	e1a0300c 	mov	r3, ip
 8003e24:	e1a0e00f 	mov	lr, pc
 8003e28:	e12fff13 	bx	r3
 8003e2c:	e1a06000 	mov	r6, r0
 8003e30:	e1a00006 	mov	r0, r6
 8003e34:	e24bd01c 	sub	sp, fp, #28
 8003e38:	e8bd4ff0 	pop	{r4, r5, r6, r7, r8, r9, sl, fp, lr}
 8003e3c:	e12fff1e 	bx	lr
 8003e40:	082fdefc 	stmdaeq	pc!, {r2, r3, r4, r5, r6, r7, r9, sl, fp, ip, lr, pc}	@ <UNPREDICTABLE>
 8003e44:	082fdee4 	stmdaeq	pc!, {r2, r5, r6, r7, r9, sl, fp, ip, lr, pc}	@ <UNPREDICTABLE>
 8003e48:	0800ae8c 	stmdaeq	r0, {r2, r3, r7, r9, sl, fp, sp, pc}
 8003e4c:	08006a3c 	stmdaeq	r0, {r2, r3, r4, r5, r9, fp, sp, lr}
 8003e50:	082fdf08 	stmdaeq	pc!, {r3, r8, r9, sl, fp, ip, lr, pc}	@ <UNPREDICTABLE>
 8003e54:	e92d4830 	push	{r4, r5, fp, lr}
 8003e58:	e28db008 	add	fp, sp, #8
 8003e5c:	e1a05000 	mov	r5, r0
 8003e60:	e5920004 	ldr	r0, [r2, #4]
 8003e64:	e1a04001 	mov	r4, r1
 8003e68:	e3500000 	cmp	r0, #0
 8003e6c:	15923008 	ldrne	r3, [r2, #8]
 8003e70:	13530000 	cmpne	r3, #0
 8003e74:	1a000007 	bne	0x8003e98
 8003e78:	e3540000 	cmp	r4, #0
 8003e7c:	0a000012 	beq	0x8003ecc
 8003e80:	e59f005c 	ldr	r0, [pc, #92]	@ 0x8003ee4
 8003e84:	e1a01004 	mov	r1, r4
 8003e88:	e5d00000 	ldrb	r0, [r0]
 8003e8c:	e3a00004 	mov	r0, #4
 8003e90:	eb000042 	bl	0x8003fa0
 8003e94:	ea000004 	b	0x8003eac
 8003e98:	e5920000 	ldr	r0, [r2]
 8003e9c:	e1a02003 	mov	r2, r3
 8003ea0:	e3a01004 	mov	r1, #4
 8003ea4:	e1a03004 	mov	r3, r4
 8003ea8:	eb0001a9 	bl	0x8004554
 8003eac:	e2701000 	rsbs	r1, r0, #0
 8003eb0:	e0a01001 	adc	r1, r0, r1
 8003eb4:	e3500000 	cmp	r0, #0
 8003eb8:	03a00004 	moveq	r0, #4
 8003ebc:	e5851000 	str	r1, [r5]
 8003ec0:	e9850011 	stmib	r5, {r0, r4}
 8003ec4:	e8bd4830 	pop	{r4, r5, fp, lr}
 8003ec8:	e12fff1e 	bx	lr
 8003ecc:	e3a01000 	mov	r1, #0
 8003ed0:	e3a00004 	mov	r0, #4
 8003ed4:	e5851000 	str	r1, [r5]
 8003ed8:	e9850011 	stmib	r5, {r0, r4}
 8003edc:	e8bd4830 	pop	{r4, r5, fp, lr}
 8003ee0:	e12fff1e 	bx	lr
 8003ee4:	020010f1 	andeq	r1, r0, #241	@ 0xf1
 8003ee8:	e92d4830 	push	{r4, r5, fp, lr}
 8003eec:	e28db008 	add	fp, sp, #8
 8003ef0:	e24dd018 	sub	sp, sp, #24
 8003ef4:	e5902000 	ldr	r2, [r0]
 8003ef8:	e1a04000 	mov	r4, r0
 8003efc:	e3a00000 	mov	r0, #0
 8003f00:	e2921001 	adds	r1, r2, #1
 8003f04:	2a000020 	bcs	0x8003f8c
 8003f08:	e1510082 	cmp	r1, r2, lsl #1
 8003f0c:	31a01082 	lslcc	r1, r2, #1
 8003f10:	e3510004 	cmp	r1, #4
 8003f14:	e1a05001 	mov	r5, r1
 8003f18:	93a05004 	movls	r5, #4
 8003f1c:	e3710107 	cmn	r1, #-1073741823	@ 0xc0000001
 8003f20:	8a000019 	bhi	0x8003f8c
 8003f24:	e1a01105 	lsl	r1, r5, #2
 8003f28:	e3710112 	cmn	r1, #-2147483644	@ 0x80000004
 8003f2c:	8a000013 	bhi	0x8003f80
 8003f30:	e3520000 	cmp	r2, #0
 8003f34:	0a000004 	beq	0x8003f4c
 8003f38:	e1a00102 	lsl	r0, r2, #2
 8003f3c:	e58d0014 	str	r0, [sp, #20]
 8003f40:	e5940004 	ldr	r0, [r4, #4]
 8003f44:	e58d000c 	str	r0, [sp, #12]
 8003f48:	e3a00004 	mov	r0, #4
 8003f4c:	e58d0010 	str	r0, [sp, #16]
 8003f50:	e1a0000d 	mov	r0, sp
 8003f54:	e28d200c 	add	r2, sp, #12
 8003f58:	ebffffbd 	bl	0x8003e54
 8003f5c:	e59d0000 	ldr	r0, [sp]
 8003f60:	e3500001 	cmp	r0, #1
 8003f64:	159d0004 	ldrne	r0, [sp, #4]
 8003f68:	15845000 	strne	r5, [r4]
 8003f6c:	15840004 	strne	r0, [r4, #4]
 8003f70:	124bd008 	subne	sp, fp, #8
 8003f74:	18bd4830 	popne	{r4, r5, fp, lr}
 8003f78:	112fff1e 	bxne	lr
 8003f7c:	e99d0009 	ldmib	sp, {r0, r3}
 8003f80:	e59f2010 	ldr	r2, [pc, #16]	@ 0x8003f98
 8003f84:	e1a01003 	mov	r1, r3
 8003f88:	eb0005e4 	bl	0x8005720
 8003f8c:	e59f2004 	ldr	r2, [pc, #4]	@ 0x8003f98
 8003f90:	e1a01003 	mov	r1, r3
 8003f94:	eb0005e1 	bl	0x8005720
 8003f98:	082e38d0 	stmdaeq	lr!, {r4, r6, r7, fp, ip, sp}
 8003f9c:	e12fff1e 	bx	lr
 8003fa0:	e92d4df0 	push	{r4, r5, r6, r7, r8, sl, fp, lr}
 8003fa4:	e28db018 	add	fp, sp, #24
 8003fa8:	e24dd008 	sub	sp, sp, #8
 8003fac:	e3500004 	cmp	r0, #4
 8003fb0:	e1a02000 	mov	r2, r0
 8003fb4:	93a02004 	movls	r2, #4
 8003fb8:	e2623102 	rsb	r3, r2, #-2147483648	@ 0x80000000
 8003fbc:	e1530001 	cmp	r3, r1
 8003fc0:	3a00004f 	bcc	0x8004104
 8003fc4:	e2423001 	sub	r3, r2, #1
 8003fc8:	e3510008 	cmp	r1, #8
 8003fcc:	e0222003 	eor	r2, r2, r3
 8003fd0:	93a01008 	movls	r1, #8
 8003fd4:	e1520003 	cmp	r2, r3
 8003fd8:	9a000042 	bls	0x80040e8
 8003fdc:	e3700122 	cmn	r0, #-2147483640	@ 0x80000008
 8003fe0:	8a000040 	bhi	0x80040e8
 8003fe4:	e3500008 	cmp	r0, #8
 8003fe8:	93a00008 	movls	r0, #8
 8003fec:	e2602102 	rsb	r2, r0, #-2147483648	@ 0x80000000
 8003ff0:	e1520001 	cmp	r2, r1
 8003ff4:	3a000044 	bcc	0x800410c
 8003ff8:	e59f8130 	ldr	r8, [pc, #304]	@ 0x8004130
 8003ffc:	e2405001 	sub	r5, r0, #1
 8004000:	e2603000 	rsb	r3, r0, #0
 8004004:	e0851001 	add	r1, r5, r1
 8004008:	e0016003 	and	r6, r1, r3
 800400c:	e598100c 	ldr	r1, [r8, #12]
 8004010:	e3510000 	cmp	r1, #0
 8004014:	0a00000e 	beq	0x8004054
 8004018:	e2863007 	add	r3, r6, #7
 800401c:	e3c33007 	bic	r3, r3, #7
 8004020:	e2834008 	add	r4, r3, #8
 8004024:	e1540002 	cmp	r4, r2
 8004028:	8a000039 	bhi	0x8004114
 800402c:	e288200c 	add	r2, r8, #12
 8004030:	e5917000 	ldr	r7, [r1]
 8004034:	e1570006 	cmp	r7, r6
 8004038:	0a00001e 	beq	0x80040b8
 800403c:	e1570004 	cmp	r7, r4
 8004040:	2a00001e 	bcs	0x80040c0
 8004044:	e2812004 	add	r2, r1, #4
 8004048:	e5921000 	ldr	r1, [r2]
 800404c:	e3510000 	cmp	r1, #0
 8004050:	1afffff6 	bne	0x8004030
 8004054:	e5981008 	ldr	r1, [r8, #8]
 8004058:	e3510000 	cmp	r1, #0
 800405c:	1a000005 	bne	0x8004078
 8004060:	e5981000 	ldr	r1, [r8]
 8004064:	e1a04000 	mov	r4, r0
 8004068:	e1a0e00f 	mov	lr, pc
 800406c:	e12fff11 	bx	r1
 8004070:	e1a01000 	mov	r1, r0
 8004074:	e1a00004 	mov	r0, r4
 8004078:	e0012005 	and	r2, r1, r5
 800407c:	e0400002 	sub	r0, r0, r2
 8004080:	e0000005 	and	r0, r0, r5
 8004084:	e0804001 	add	r4, r0, r1
 8004088:	e5980004 	ldr	r0, [r8, #4]
 800408c:	e0845006 	add	r5, r4, r6
 8004090:	e1a0e00f 	mov	lr, pc
 8004094:	e12fff10 	bx	r0
 8004098:	e1550000 	cmp	r5, r0
 800409c:	e3a01000 	mov	r1, #0
 80040a0:	35885008 	strcc	r5, [r8, #8]
 80040a4:	31a01004 	movcc	r1, r4
 80040a8:	e1a00001 	mov	r0, r1
 80040ac:	e24bd018 	sub	sp, fp, #24
 80040b0:	e8bd4df0 	pop	{r4, r5, r6, r7, r8, sl, fp, lr}
 80040b4:	e12fff1e 	bx	lr
 80040b8:	e5910004 	ldr	r0, [r1, #4]
 80040bc:	ea000004 	b	0x80040d4
 80040c0:	e5916004 	ldr	r6, [r1, #4]
 80040c4:	e0477003 	sub	r7, r7, r3
 80040c8:	e1a00001 	mov	r0, r1
 80040cc:	e7a07003 	str	r7, [r0, r3]!
 80040d0:	e5806004 	str	r6, [r0, #4]
 80040d4:	e5820000 	str	r0, [r2]
 80040d8:	e1a00001 	mov	r0, r1
 80040dc:	e24bd018 	sub	sp, fp, #24
 80040e0:	e8bd4df0 	pop	{r4, r5, r6, r7, r8, sl, fp, lr}
 80040e4:	e12fff1e 	bx	lr
 80040e8:	e59f0058 	ldr	r0, [pc, #88]	@ 0x8004148
 80040ec:	e58d0000 	str	r0, [sp]
 80040f0:	e59f004c 	ldr	r0, [pc, #76]	@ 0x8004144
 80040f4:	e59f3040 	ldr	r3, [pc, #64]	@ 0x800413c
 80040f8:	e28d2007 	add	r2, sp, #7
 80040fc:	e3a01014 	mov	r1, #20
 8004100:	eb001cbd 	bl	0x800b3fc
 8004104:	e59f0040 	ldr	r0, [pc, #64]	@ 0x800414c
 8004108:	eafffff7 	b	0x80040ec
 800410c:	e59f002c 	ldr	r0, [pc, #44]	@ 0x8004140
 8004110:	eafffff5 	b	0x80040ec
 8004114:	e59f0018 	ldr	r0, [pc, #24]	@ 0x8004134
 8004118:	e59f301c 	ldr	r3, [pc, #28]	@ 0x800413c
 800411c:	e28d2007 	add	r2, sp, #7
 8004120:	e3a0102b 	mov	r1, #43	@ 0x2b
 8004124:	e58d0000 	str	r0, [sp]
 8004128:	e59f0008 	ldr	r0, [pc, #8]	@ 0x8004138
 800412c:	eb001cb2 	bl	0x800b3fc
 8004130:	020010e0 	andeq	r1, r0, #224	@ 0xe0
 8004134:	082fcc60 	stmdaeq	pc!, {r5, r6, sl, fp, lr, pc}	@ <UNPREDICTABLE>
 8004138:	082fcc34 	stmdaeq	pc!, {r2, r4, r5, sl, fp, lr, pc}	@ <UNPREDICTABLE>
 800413c:	082fcb70 	stmdaeq	pc!, {r4, r5, r6, r8, r9, fp, lr, pc}	@ <UNPREDICTABLE>
 8004140:	082fcc14 	stmdaeq	pc!, {r2, r4, sl, fp, lr, pc}	@ <UNPREDICTABLE>
 8004144:	082fcb80 	stmdaeq	pc!, {r7, r8, r9, fp, lr, pc}	@ <UNPREDICTABLE>
 8004148:	082fcc04 	stmdaeq	pc!, {r2, sl, fp, lr, pc}	@ <UNPREDICTABLE>
 800414c:	082fcc24 	stmdaeq	pc!, {r2, r5, sl, fp, lr, pc}	@ <UNPREDICTABLE>
 8004150:	e591001c 	ldr	r0, [r1, #28]
 8004154:	e5911020 	ldr	r1, [r1, #32]
 8004158:	e3a0200b 	mov	r2, #11
 800415c:	e591300c 	ldr	r3, [r1, #12]
 8004160:	e59f1000 	ldr	r1, [pc]	@ 0x8004168
 8004164:	e12fff13 	bx	r3
 8004168:	082fcb64 	stmdaeq	pc!, {r2, r5, r6, r8, r9, fp, lr, pc}	@ <UNPREDICTABLE>
 800416c:	e92d4ff0 	push	{r4, r5, r6, r7, r8, r9, sl, fp, lr}
 8004170:	e28db01c 	add	fp, sp, #28
 8004174:	e24dd08c 	sub	sp, sp, #140	@ 0x8c
 8004178:	e1a06001 	mov	r6, r1
 800417c:	e5911014 	ldr	r1, [r1, #20]
 8004180:	e3110010 	tst	r1, #16
 8004184:	1a00003e 	bne	0x8004284
 8004188:	e3110020 	tst	r1, #32
 800418c:	1a000049 	bne	0x80042b8
 8004190:	e5902000 	ldr	r2, [r0]
 8004194:	e3a08e71 	mov	r8, #1808	@ 0x710
 8004198:	e3a0e0ff 	mov	lr, #255	@ 0xff
 800419c:	e3a0c07b 	mov	ip, #123	@ 0x7b
 80041a0:	e3a0000a 	mov	r0, #10
 80041a4:	e3888a02 	orr	r8, r8, #8192	@ 0x2000
 80041a8:	e38eecff 	orr	lr, lr, #65280	@ 0xff00
 80041ac:	e38ccb05 	orr	ip, ip, #5120	@ 0x1400
 80041b0:	e1520008 	cmp	r2, r8
 80041b4:	3a000056 	bcc	0x8004314
 80041b8:	e59fa1ec 	ldr	sl, [pc, #492]	@ 0x80043ac
 80041bc:	e3a01000 	mov	r1, #0
 80041c0:	e58d6008 	str	r6, [sp, #8]
 80041c4:	e59f41dc 	ldr	r4, [pc, #476]	@ 0x80043a8
 80041c8:	e28d000c 	add	r0, sp, #12
 80041cc:	e1a0700a 	mov	r7, sl
 80041d0:	e0806001 	add	r6, r0, r1
 80041d4:	e1a0000c 	mov	r0, ip
 80041d8:	e2411004 	sub	r1, r1, #4
 80041dc:	e08c3492 	umull	r3, ip, r2, r4
 80041e0:	e1a096ac 	lsr	r9, ip, #13
 80041e4:	e1a0c000 	mov	ip, r0
 80041e8:	e3a03064 	mov	r3, #100	@ 0x64
 80041ec:	e0040899 	mul	r4, r9, r8
 80041f0:	e0424004 	sub	r4, r2, r4
 80041f4:	e004500e 	and	r5, r4, lr
 80041f8:	e1a05125 	lsr	r5, r5, #2
 80041fc:	e0000c95 	mul	r0, r5, ip
 8004200:	e1a008a0 	lsr	r0, r0, #17
 8004204:	e7f75080 	ldrb	r5, [r7, r0, lsl #1]!
 8004208:	e5d77001 	ldrb	r7, [r7, #1]
 800420c:	e5c65006 	strb	r5, [r6, #6]
 8004210:	e5c67007 	strb	r7, [r6, #7]
 8004214:	e0070390 	mul	r7, r0, r3
 8004218:	e0440007 	sub	r0, r4, r7
 800421c:	e1a0700a 	mov	r7, sl
 8004220:	e000000e 	and	r0, r0, lr
 8004224:	e7f70080 	ldrb	r0, [r7, r0, lsl #1]!
 8004228:	e5c60008 	strb	r0, [r6, #8]
 800422c:	e5d70001 	ldrb	r0, [r7, #1]
 8004230:	e5c60009 	strb	r0, [r6, #9]
 8004234:	e59f0174 	ldr	r0, [pc, #372]	@ 0x80043b0
 8004238:	e1520000 	cmp	r2, r0
 800423c:	e1a02009 	mov	r2, r9
 8004240:	8affffdf 	bhi	0x80041c4
 8004244:	e59d6008 	ldr	r6, [sp, #8]
 8004248:	e281000a 	add	r0, r1, #10
 800424c:	e3590063 	cmp	r9, #99	@ 0x63
 8004250:	8a000032 	bhi	0x8004320
 8004254:	e1a01009 	mov	r1, r9
 8004258:	e351000a 	cmp	r1, #10
 800425c:	3a000041 	bcc	0x8004368
 8004260:	e59f2144 	ldr	r2, [pc, #324]	@ 0x80043ac
 8004264:	e2400002 	sub	r0, r0, #2
 8004268:	e28d300c 	add	r3, sp, #12
 800426c:	e7f21081 	ldrb	r1, [r2, r1, lsl #1]!
 8004270:	e5d22001 	ldrb	r2, [r2, #1]
 8004274:	e7c31000 	strb	r1, [r3, r0]
 8004278:	e0831000 	add	r1, r3, r0
 800427c:	e5c12001 	strb	r2, [r1, #1]
 8004280:	ea00003c 	b	0x8004378
 8004284:	e5901000 	ldr	r1, [r0]
 8004288:	e3a0307f 	mov	r3, #127	@ 0x7f
 800428c:	e28d000c 	add	r0, sp, #12
 8004290:	e1a02003 	mov	r2, r3
 8004294:	e201300f 	and	r3, r1, #15
 8004298:	e2837057 	add	r7, r3, #87	@ 0x57
 800429c:	e353000a 	cmp	r3, #10
 80042a0:	33837030 	orrcc	r7, r3, #48	@ 0x30
 80042a4:	e2423001 	sub	r3, r2, #1
 80042a8:	e1b01221 	lsrs	r1, r1, #4
 80042ac:	e7c07002 	strb	r7, [r0, r2]
 80042b0:	1afffff6 	bne	0x8004290
 80042b4:	ea00000b 	b	0x80042e8
 80042b8:	e5901000 	ldr	r1, [r0]
 80042bc:	e3a0307f 	mov	r3, #127	@ 0x7f
 80042c0:	e28d000c 	add	r0, sp, #12
 80042c4:	e1a02003 	mov	r2, r3
 80042c8:	e201300f 	and	r3, r1, #15
 80042cc:	e2837037 	add	r7, r3, #55	@ 0x37
 80042d0:	e353000a 	cmp	r3, #10
 80042d4:	33837030 	orrcc	r7, r3, #48	@ 0x30
 80042d8:	e2423001 	sub	r3, r2, #1
 80042dc:	e1b01221 	lsrs	r1, r1, #4
 80042e0:	e7c07002 	strb	r7, [r0, r2]
 80042e4:	1afffff6 	bne	0x80042c4
 80042e8:	e2821001 	add	r1, r2, #1
 80042ec:	e0803002 	add	r3, r0, r2
 80042f0:	e1a00006 	mov	r0, r6
 80042f4:	e3a02002 	mov	r2, #2
 80042f8:	e2611081 	rsb	r1, r1, #129	@ 0x81
 80042fc:	e58d1000 	str	r1, [sp]
 8004300:	e59f109c 	ldr	r1, [pc, #156]	@ 0x80043a4
 8004304:	eb000b80 	bl	0x800710c
 8004308:	e24bd01c 	sub	sp, fp, #28
 800430c:	e8bd4ff0 	pop	{r4, r5, r6, r7, r8, r9, sl, fp, lr}
 8004310:	e12fff1e 	bx	lr
 8004314:	e1a09002 	mov	r9, r2
 8004318:	e3590063 	cmp	r9, #99	@ 0x63
 800431c:	9affffcc 	bls	0x8004254
 8004320:	e009100e 	and	r1, r9, lr
 8004324:	e59f3080 	ldr	r3, [pc, #128]	@ 0x80043ac
 8004328:	e2400002 	sub	r0, r0, #2
 800432c:	e1a01121 	lsr	r1, r1, #2
 8004330:	e0020c91 	mul	r2, r1, ip
 8004334:	e1a018a2 	lsr	r1, r2, #17
 8004338:	e3a02064 	mov	r2, #100	@ 0x64
 800433c:	e0070291 	mul	r7, r1, r2
 8004340:	e0492007 	sub	r2, r9, r7
 8004344:	e28d700c 	add	r7, sp, #12
 8004348:	e002200e 	and	r2, r2, lr
 800434c:	e7f32082 	ldrb	r2, [r3, r2, lsl #1]!
 8004350:	e5d33001 	ldrb	r3, [r3, #1]
 8004354:	e7c72000 	strb	r2, [r7, r0]
 8004358:	e0872000 	add	r2, r7, r0
 800435c:	e5c23001 	strb	r3, [r2, #1]
 8004360:	e351000a 	cmp	r1, #10
 8004364:	2affffbd 	bcs	0x8004260
 8004368:	e2400001 	sub	r0, r0, #1
 800436c:	e3811030 	orr	r1, r1, #48	@ 0x30
 8004370:	e28d200c 	add	r2, sp, #12
 8004374:	e7c21000 	strb	r1, [r2, r0]
 8004378:	e260100a 	rsb	r1, r0, #10
 800437c:	e3a02000 	mov	r2, #0
 8004380:	e58d1000 	str	r1, [sp]
 8004384:	e28d100c 	add	r1, sp, #12
 8004388:	e0813000 	add	r3, r1, r0
 800438c:	e1a00006 	mov	r0, r6
 8004390:	e3a01001 	mov	r1, #1
 8004394:	eb000b5c 	bl	0x800710c
 8004398:	e24bd01c 	sub	sp, fp, #28
 800439c:	e8bd4ff0 	pop	{r4, r5, r6, r7, r8, r9, sl, fp, lr}
 80043a0:	e12fff1e 	bx	lr
 80043a4:	082fda0e 	stmdaeq	pc!, {r1, r2, r3, r9, fp, ip, lr, pc}	@ <UNPREDICTABLE>
 80043a8:	d1b71759 			@ <UNDEFINED> instruction: 0xd1b71759
 80043ac:	082fda10 	stmdaeq	pc!, {r4, r9, fp, ip, lr, pc}	@ <UNPREDICTABLE>
 80043b0:	05f5e0ff 	ldrbeq	lr, [r5, #255]!	@ 0xff
 80043b4:	e59f0000 	ldr	r0, [pc]	@ 0x80043bc
 80043b8:	e12fff1e 	bx	lr
 80043bc:	020010f4 	andeq	r1, r0, #244	@ 0xf4
 80043c0:	e3a00781 	mov	r0, #33816576	@ 0x2040000
 80043c4:	e12fff1e 	bx	lr
 80043c8:	e92d4c10 	push	{r4, sl, fp, lr}
 80043cc:	e28db008 	add	fp, sp, #8
 80043d0:	e24dd008 	sub	sp, sp, #8
 80043d4:	e371010e 	cmn	r1, #-2147483645	@ 0x80000003
 80043d8:	2a00004f 	bcs	0x800451c
 80043dc:	e371011e 	cmn	r1, #-2147483641	@ 0x80000007
 80043e0:	2a00004f 	bcs	0x8004524
 80043e4:	e3510008 	cmp	r1, #8
 80043e8:	93a01008 	movls	r1, #8
 80043ec:	e281c007 	add	ip, r1, #7
 80043f0:	e59f1148 	ldr	r1, [pc, #328]	@ 0x8004540
 80043f4:	e1a0e001 	mov	lr, r1
 80043f8:	e5be300c 	ldr	r3, [lr, #12]!
 80043fc:	e3530000 	cmp	r3, #0
 8004400:	0a00000d 	beq	0x800443c
 8004404:	e281e00c 	add	lr, r1, #12
 8004408:	e1530000 	cmp	r3, r0
 800440c:	9a000002 	bls	0x800441c
 8004410:	e1a01003 	mov	r1, r3
 8004414:	e1a0300e 	mov	r3, lr
 8004418:	ea00000b 	b	0x800444c
 800441c:	e5b31004 	ldr	r1, [r3, #4]!
 8004420:	e3510000 	cmp	r1, #0
 8004424:	0a000007 	beq	0x8004448
 8004428:	e1510000 	cmp	r1, r0
 800442c:	8a000006 	bhi	0x800444c
 8004430:	e1a0e003 	mov	lr, r3
 8004434:	e1a03001 	mov	r3, r1
 8004438:	eafffff7 	b	0x800441c
 800443c:	e3a01000 	mov	r1, #0
 8004440:	e1a0300e 	mov	r3, lr
 8004444:	ea000000 	b	0x800444c
 8004448:	e3a01000 	mov	r1, #0
 800444c:	e3cc2007 	bic	r2, ip, #7
 8004450:	e5801004 	str	r1, [r0, #4]
 8004454:	e5802000 	str	r2, [r0]
 8004458:	e5830000 	str	r0, [r3]
 800445c:	e59e4000 	ldr	r4, [lr]
 8004460:	e3540000 	cmp	r4, #0
 8004464:	15940004 	ldrne	r0, [r4, #4]
 8004468:	13500000 	cmpne	r0, #0
 800446c:	1a000002 	bne	0x800447c
 8004470:	e24bd008 	sub	sp, fp, #8
 8004474:	e8bd4c10 	pop	{r4, sl, fp, lr}
 8004478:	e12fff1e 	bx	lr
 800447c:	e5d4c000 	ldrb	ip, [r4]
 8004480:	e5d4e001 	ldrb	lr, [r4, #1]
 8004484:	e5d41002 	ldrb	r1, [r4, #2]
 8004488:	e5d43003 	ldrb	r3, [r4, #3]
 800448c:	e1811403 	orr	r1, r1, r3, lsl #8
 8004490:	e18c340e 	orr	r3, ip, lr, lsl #8
 8004494:	e1833801 	orr	r3, r3, r1, lsl #16
 8004498:	e5901004 	ldr	r1, [r0, #4]
 800449c:	e0402004 	sub	r2, r0, r4
 80044a0:	e1520003 	cmp	r2, r3
 80044a4:	1a000007 	bne	0x80044c8
 80044a8:	e5841004 	str	r1, [r4, #4]
 80044ac:	e3510000 	cmp	r1, #0
 80044b0:	e5900000 	ldr	r0, [r0]
 80044b4:	e0803003 	add	r3, r0, r3
 80044b8:	e1a00001 	mov	r0, r1
 80044bc:	e5843000 	str	r3, [r4]
 80044c0:	1afffff4 	bne	0x8004498
 80044c4:	eaffffe9 	b	0x8004470
 80044c8:	e3510000 	cmp	r1, #0
 80044cc:	0affffe7 	beq	0x8004470
 80044d0:	e5d0c000 	ldrb	ip, [r0]
 80044d4:	e5d03001 	ldrb	r3, [r0, #1]
 80044d8:	e5d04002 	ldrb	r4, [r0, #2]
 80044dc:	e5d02003 	ldrb	r2, [r0, #3]
 80044e0:	e1842402 	orr	r2, r4, r2, lsl #8
 80044e4:	e18c3403 	orr	r3, ip, r3, lsl #8
 80044e8:	e1832802 	orr	r2, r3, r2, lsl #16
 80044ec:	e0413000 	sub	r3, r1, r0
 80044f0:	e1530002 	cmp	r3, r2
 80044f4:	1affffdd 	bne	0x8004470
 80044f8:	e5913004 	ldr	r3, [r1, #4]
 80044fc:	e5803004 	str	r3, [r0, #4]
 8004500:	e3530000 	cmp	r3, #0
 8004504:	e5911000 	ldr	r1, [r1]
 8004508:	e0812002 	add	r2, r1, r2
 800450c:	e1a01003 	mov	r1, r3
 8004510:	e5802000 	str	r2, [r0]
 8004514:	1afffff4 	bne	0x80044ec
 8004518:	eaffffd4 	b	0x8004470
 800451c:	e59f002c 	ldr	r0, [pc, #44]	@ 0x8004550
 8004520:	ea000000 	b	0x8004528
 8004524:	e59f0018 	ldr	r0, [pc, #24]	@ 0x8004544
 8004528:	e58d0000 	str	r0, [sp]
 800452c:	e59f0014 	ldr	r0, [pc, #20]	@ 0x8004548
 8004530:	e59f3014 	ldr	r3, [pc, #20]	@ 0x800454c
 8004534:	e28d2007 	add	r2, sp, #7
 8004538:	e3a01014 	mov	r1, #20
 800453c:	eb001bae 	bl	0x800b3fc
 8004540:	020010e0 	andeq	r1, r0, #224	@ 0xe0
 8004544:	082fcc14 	stmdaeq	pc!, {r2, r4, sl, fp, lr, pc}	@ <UNPREDICTABLE>
 8004548:	082fcb80 	stmdaeq	pc!, {r7, r8, r9, fp, lr, pc}	@ <UNPREDICTABLE>
 800454c:	082fcb70 	stmdaeq	pc!, {r4, r5, r6, r8, r9, fp, lr, pc}	@ <UNPREDICTABLE>
 8004550:	082fcc24 	stmdaeq	pc!, {r2, r5, sl, fp, lr, pc}	@ <UNPREDICTABLE>
 8004554:	e92d4ff0 	push	{r4, r5, r6, r7, r8, r9, sl, fp, lr}
 8004558:	e28db01c 	add	fp, sp, #28
 800455c:	e24dd00c 	sub	sp, sp, #12
 8004560:	e1a05003 	mov	r5, r3
 8004564:	e1a07002 	mov	r7, r2
 8004568:	e1a06001 	mov	r6, r1
 800456c:	e1a04000 	mov	r4, r0
 8004570:	e1530002 	cmp	r3, r2
 8004574:	9a00003a 	bls	0x8004664
 8004578:	e3560004 	cmp	r6, #4
 800457c:	e1a01006 	mov	r1, r6
 8004580:	93a01004 	movls	r1, #4
 8004584:	e2610102 	rsb	r0, r1, #-2147483648	@ 0x80000000
 8004588:	e1500007 	cmp	r0, r7
 800458c:	3a00014d 	bcc	0x8004ac8
 8004590:	e2412001 	sub	r2, r1, #1
 8004594:	e3570008 	cmp	r7, #8
 8004598:	e0211002 	eor	r1, r1, r2
 800459c:	93a07008 	movls	r7, #8
 80045a0:	e1510002 	cmp	r1, r2
 80045a4:	9a000139 	bls	0x8004a90
 80045a8:	e3760122 	cmn	r6, #-2147483640	@ 0x80000008
 80045ac:	8a000137 	bhi	0x8004a90
 80045b0:	e3560008 	cmp	r6, #8
 80045b4:	93a06008 	movls	r6, #8
 80045b8:	e266a102 	rsb	sl, r6, #-2147483648	@ 0x80000000
 80045bc:	e15a0007 	cmp	sl, r7
 80045c0:	3a000142 	bcc	0x8004ad0
 80045c4:	e1500005 	cmp	r0, r5
 80045c8:	3a00013e 	bcc	0x8004ac8
 80045cc:	e3550008 	cmp	r5, #8
 80045d0:	93a05008 	movls	r5, #8
 80045d4:	e15a0005 	cmp	sl, r5
 80045d8:	3a00013c 	bcc	0x8004ad0
 80045dc:	e2468001 	sub	r8, r6, #1
 80045e0:	e0260008 	eor	r0, r6, r8
 80045e4:	e1500008 	cmp	r0, r8
 80045e8:	9a00012f 	bls	0x8004aac
 80045ec:	e0880007 	add	r0, r8, r7
 80045f0:	e2669000 	rsb	r9, r6, #0
 80045f4:	e0007009 	and	r7, r0, r9
 80045f8:	e0880005 	add	r0, r8, r5
 80045fc:	e0001009 	and	r1, r0, r9
 8004600:	e0410007 	sub	r0, r1, r7
 8004604:	e15a0000 	cmp	sl, r0
 8004608:	3a000127 	bcc	0x8004aac
 800460c:	e59f34e0 	ldr	r3, [pc, #1248]	@ 0x8004af4
 8004610:	e084e007 	add	lr, r4, r7
 8004614:	e5932008 	ldr	r2, [r3, #8]
 8004618:	e3520000 	cmp	r2, #0
 800461c:	0a000043 	beq	0x8004730
 8004620:	e15e0002 	cmp	lr, r2
 8004624:	1a000041 	bne	0x8004730
 8004628:	e0081002 	and	r1, r8, r2
 800462c:	e0800002 	add	r0, r0, r2
 8004630:	e0461001 	sub	r1, r6, r1
 8004634:	e1a06003 	mov	r6, r3
 8004638:	e0011008 	and	r1, r1, r8
 800463c:	e0805001 	add	r5, r0, r1
 8004640:	e5930004 	ldr	r0, [r3, #4]
 8004644:	e1a0e00f 	mov	lr, pc
 8004648:	e12fff10 	bx	r0
 800464c:	e1550000 	cmp	r5, r0
 8004650:	35865008 	strcc	r5, [r6, #8]
 8004654:	e1a00004 	mov	r0, r4
 8004658:	e24bd01c 	sub	sp, fp, #28
 800465c:	e8bd4ff0 	pop	{r4, r5, r6, r7, r8, r9, sl, fp, lr}
 8004660:	e12fff1e 	bx	lr
 8004664:	e1a00006 	mov	r0, r6
 8004668:	e1a01005 	mov	r1, r5
 800466c:	ebfffe4b 	bl	0x8003fa0
 8004670:	e3500000 	cmp	r0, #0
 8004674:	0a0000a4 	beq	0x800490c
 8004678:	e1a01004 	mov	r1, r4
 800467c:	e1a02005 	mov	r2, r5
 8004680:	e1a08000 	mov	r8, r0
 8004684:	eb003531 	bl	0x8011b50
 8004688:	e3560004 	cmp	r6, #4
 800468c:	e1a00006 	mov	r0, r6
 8004690:	93a00004 	movls	r0, #4
 8004694:	e2601102 	rsb	r1, r0, #-2147483648	@ 0x80000000
 8004698:	e1510007 	cmp	r1, r7
 800469c:	3a000109 	bcc	0x8004ac8
 80046a0:	e2401001 	sub	r1, r0, #1
 80046a4:	e3570008 	cmp	r7, #8
 80046a8:	e0200001 	eor	r0, r0, r1
 80046ac:	93a07008 	movls	r7, #8
 80046b0:	e1500001 	cmp	r0, r1
 80046b4:	9a0000f5 	bls	0x8004a90
 80046b8:	e3760122 	cmn	r6, #-2147483640	@ 0x80000008
 80046bc:	8a0000f3 	bhi	0x8004a90
 80046c0:	e3560008 	cmp	r6, #8
 80046c4:	93a06008 	movls	r6, #8
 80046c8:	e2660102 	rsb	r0, r6, #-2147483648	@ 0x80000000
 80046cc:	e1500007 	cmp	r0, r7
 80046d0:	3a0000fe 	bcc	0x8004ad0
 80046d4:	e2460001 	sub	r0, r6, #1
 80046d8:	e2661000 	rsb	r1, r6, #0
 80046dc:	e59f6410 	ldr	r6, [pc, #1040]	@ 0x8004af4
 80046e0:	e0802007 	add	r2, r0, r7
 80046e4:	e0022001 	and	r2, r2, r1
 80046e8:	e1a07006 	mov	r7, r6
 80046ec:	e5b7300c 	ldr	r3, [r7, #12]!
 80046f0:	e3530000 	cmp	r3, #0
 80046f4:	0a00002d 	beq	0x80047b0
 80046f8:	e286700c 	add	r7, r6, #12
 80046fc:	e1530004 	cmp	r3, r4
 8004700:	9a000002 	bls	0x8004710
 8004704:	e1a06003 	mov	r6, r3
 8004708:	e1a03007 	mov	r3, r7
 800470c:	ea00002b 	b	0x80047c0
 8004710:	e5b36004 	ldr	r6, [r3, #4]!
 8004714:	e3560000 	cmp	r6, #0
 8004718:	0a000027 	beq	0x80047bc
 800471c:	e1560004 	cmp	r6, r4
 8004720:	8a000026 	bhi	0x80047c0
 8004724:	e1a07003 	mov	r7, r3
 8004728:	e1a03006 	mov	r3, r6
 800472c:	eafffff7 	b	0x8004710
 8004730:	e593500c 	ldr	r5, [r3, #12]
 8004734:	e3550000 	cmp	r5, #0
 8004738:	0a000059 	beq	0x80048a4
 800473c:	e1550004 	cmp	r5, r4
 8004740:	9a000003 	bls	0x8004754
 8004744:	e283c00c 	add	ip, r3, #12
 8004748:	e155000e 	cmp	r5, lr
 800474c:	1a000054 	bne	0x80048a4
 8004750:	ea000008 	b	0x8004778
 8004754:	e1a02005 	mov	r2, r5
 8004758:	e5955004 	ldr	r5, [r5, #4]
 800475c:	e3550000 	cmp	r5, #0
 8004760:	0a00004f 	beq	0x80048a4
 8004764:	e1550004 	cmp	r5, r4
 8004768:	9afffff9 	bls	0x8004754
 800476c:	e282c004 	add	ip, r2, #4
 8004770:	e155000e 	cmp	r5, lr
 8004774:	1a00004a 	bne	0x80048a4
 8004778:	e2802007 	add	r2, r0, #7
 800477c:	e3c2e007 	bic	lr, r2, #7
 8004780:	e28e2008 	add	r2, lr, #8
 8004784:	e152000a 	cmp	r2, sl
 8004788:	8a0000d2 	bhi	0x8004ad8
 800478c:	e5953000 	ldr	r3, [r5]
 8004790:	e1530000 	cmp	r3, r0
 8004794:	1a00003f 	bne	0x8004898
 8004798:	e5950004 	ldr	r0, [r5, #4]
 800479c:	e58c0000 	str	r0, [ip]
 80047a0:	e1a00004 	mov	r0, r4
 80047a4:	e24bd01c 	sub	sp, fp, #28
 80047a8:	e8bd4ff0 	pop	{r4, r5, r6, r7, r8, r9, sl, fp, lr}
 80047ac:	e12fff1e 	bx	lr
 80047b0:	e3a06000 	mov	r6, #0
 80047b4:	e1a03007 	mov	r3, r7
 80047b8:	ea000000 	b	0x80047c0
 80047bc:	e3a06000 	mov	r6, #0
 80047c0:	e0800002 	add	r0, r0, r2
 80047c4:	e0000001 	and	r0, r0, r1
 80047c8:	e8840041 	stm	r4, {r0, r6}
 80047cc:	e5834000 	str	r4, [r3]
 80047d0:	e5972000 	ldr	r2, [r7]
 80047d4:	e3520000 	cmp	r2, #0
 80047d8:	15920004 	ldrne	r0, [r2, #4]
 80047dc:	13500000 	cmpne	r0, #0
 80047e0:	1a000004 	bne	0x80047f8
 80047e4:	e1a04008 	mov	r4, r8
 80047e8:	e1a00004 	mov	r0, r4
 80047ec:	e24bd01c 	sub	sp, fp, #28
 80047f0:	e8bd4ff0 	pop	{r4, r5, r6, r7, r8, r9, sl, fp, lr}
 80047f4:	e12fff1e 	bx	lr
 80047f8:	e5d21000 	ldrb	r1, [r2]
 80047fc:	e5d23001 	ldrb	r3, [r2, #1]
 8004800:	e5d27002 	ldrb	r7, [r2, #2]
 8004804:	e5d26003 	ldrb	r6, [r2, #3]
 8004808:	e1877406 	orr	r7, r7, r6, lsl #8
 800480c:	e1811403 	orr	r1, r1, r3, lsl #8
 8004810:	e1813807 	orr	r3, r1, r7, lsl #16
 8004814:	e5901004 	ldr	r1, [r0, #4]
 8004818:	e0407002 	sub	r7, r0, r2
 800481c:	e1570003 	cmp	r7, r3
 8004820:	1a000007 	bne	0x8004844
 8004824:	e5821004 	str	r1, [r2, #4]
 8004828:	e3510000 	cmp	r1, #0
 800482c:	e5900000 	ldr	r0, [r0]
 8004830:	e0803003 	add	r3, r0, r3
 8004834:	e1a00001 	mov	r0, r1
 8004838:	e5823000 	str	r3, [r2]
 800483c:	1afffff4 	bne	0x8004814
 8004840:	eaffffe7 	b	0x80047e4
 8004844:	e3510000 	cmp	r1, #0
 8004848:	0affffe5 	beq	0x80047e4
 800484c:	e5d02000 	ldrb	r2, [r0]
 8004850:	e5d03001 	ldrb	r3, [r0, #1]
 8004854:	e5d07002 	ldrb	r7, [r0, #2]
 8004858:	e5d06003 	ldrb	r6, [r0, #3]
 800485c:	e1877406 	orr	r7, r7, r6, lsl #8
 8004860:	e1822403 	orr	r2, r2, r3, lsl #8
 8004864:	e1822807 	orr	r2, r2, r7, lsl #16
 8004868:	e0413000 	sub	r3, r1, r0
 800486c:	e1530002 	cmp	r3, r2
 8004870:	1affffdb 	bne	0x80047e4
 8004874:	e5913004 	ldr	r3, [r1, #4]
 8004878:	e5803004 	str	r3, [r0, #4]
 800487c:	e3530000 	cmp	r3, #0
 8004880:	e5911000 	ldr	r1, [r1]
 8004884:	e0812002 	add	r2, r1, r2
 8004888:	e1a01003 	mov	r1, r3
 800488c:	e5802000 	str	r2, [r0]
 8004890:	1afffff4 	bne	0x8004868
 8004894:	eaffffd2 	b	0x80047e4
 8004898:	e1530002 	cmp	r3, r2
 800489c:	2a000035 	bcs	0x8004978
 80048a0:	e59f324c 	ldr	r3, [pc, #588]	@ 0x8004af4
 80048a4:	e1a00006 	mov	r0, r6
 80048a8:	e1a05003 	mov	r5, r3
 80048ac:	ebfffdbb 	bl	0x8003fa0
 80048b0:	e3500000 	cmp	r0, #0
 80048b4:	0a000014 	beq	0x800490c
 80048b8:	e1a01004 	mov	r1, r4
 80048bc:	e1a02007 	mov	r2, r7
 80048c0:	e1a06000 	mov	r6, r0
 80048c4:	eb0034a1 	bl	0x8011b50
 80048c8:	e15a0007 	cmp	sl, r7
 80048cc:	3a00007d 	bcc	0x8004ac8
 80048d0:	e3570008 	cmp	r7, #8
 80048d4:	e1a03005 	mov	r3, r5
 80048d8:	93a07008 	movls	r7, #8
 80048dc:	e0880007 	add	r0, r8, r7
 80048e0:	e5b3700c 	ldr	r7, [r3, #12]!
 80048e4:	e000c009 	and	ip, r0, r9
 80048e8:	e3a00000 	mov	r0, #0
 80048ec:	e3570000 	cmp	r7, #0
 80048f0:	0a00000a 	beq	0x8004920
 80048f4:	e285300c 	add	r3, r5, #12
 80048f8:	e1570004 	cmp	r7, r4
 80048fc:	9a000009 	bls	0x8004928
 8004900:	e1a00007 	mov	r0, r7
 8004904:	e1a07003 	mov	r7, r3
 8004908:	ea000029 	b	0x80049b4
 800490c:	e3a04000 	mov	r4, #0
 8004910:	e1a00004 	mov	r0, r4
 8004914:	e24bd01c 	sub	sp, fp, #28
 8004918:	e8bd4ff0 	pop	{r4, r5, r6, r7, r8, r9, sl, fp, lr}
 800491c:	e12fff1e 	bx	lr
 8004920:	e1a07003 	mov	r7, r3
 8004924:	ea000022 	b	0x80049b4
 8004928:	e5b71004 	ldr	r1, [r7, #4]!
 800492c:	e3510000 	cmp	r1, #0
 8004930:	0a00001f 	beq	0x80049b4
 8004934:	e1510004 	cmp	r1, r4
 8004938:	9a000001 	bls	0x8004944
 800493c:	e1a00001 	mov	r0, r1
 8004940:	ea00001b 	b	0x80049b4
 8004944:	e5b13004 	ldr	r3, [r1, #4]!
 8004948:	e3530000 	cmp	r3, #0
 800494c:	0a000012 	beq	0x800499c
 8004950:	e1a02001 	mov	r2, r1
 8004954:	e1530004 	cmp	r3, r4
 8004958:	8a000012 	bhi	0x80049a8
 800495c:	e1a01003 	mov	r1, r3
 8004960:	e1a07002 	mov	r7, r2
 8004964:	e5b13004 	ldr	r3, [r1, #4]!
 8004968:	e3530000 	cmp	r3, #0
 800496c:	1afffff7 	bne	0x8004950
 8004970:	e1a03002 	mov	r3, r2
 8004974:	ea000009 	b	0x80049a0
 8004978:	e5951004 	ldr	r1, [r5, #4]
 800497c:	e043000e 	sub	r0, r3, lr
 8004980:	e7a5000e 	str	r0, [r5, lr]!
 8004984:	e58c5000 	str	r5, [ip]
 8004988:	e5851004 	str	r1, [r5, #4]
 800498c:	e1a00004 	mov	r0, r4
 8004990:	e24bd01c 	sub	sp, fp, #28
 8004994:	e8bd4ff0 	pop	{r4, r5, r6, r7, r8, r9, sl, fp, lr}
 8004998:	e12fff1e 	bx	lr
 800499c:	e1a03007 	mov	r3, r7
 80049a0:	e1a07001 	mov	r7, r1
 80049a4:	ea000002 	b	0x80049b4
 80049a8:	e1a00003 	mov	r0, r3
 80049ac:	e1a03007 	mov	r3, r7
 80049b0:	e1a07002 	mov	r7, r2
 80049b4:	e088100c 	add	r1, r8, ip
 80049b8:	e5840004 	str	r0, [r4, #4]
 80049bc:	e0011009 	and	r1, r1, r9
 80049c0:	e5841000 	str	r1, [r4]
 80049c4:	e5874000 	str	r4, [r7]
 80049c8:	e5932000 	ldr	r2, [r3]
 80049cc:	e3520000 	cmp	r2, #0
 80049d0:	0a000029 	beq	0x8004a7c
 80049d4:	e5920004 	ldr	r0, [r2, #4]
 80049d8:	e3500000 	cmp	r0, #0
 80049dc:	0a000026 	beq	0x8004a7c
 80049e0:	e5d21000 	ldrb	r1, [r2]
 80049e4:	e5d23001 	ldrb	r3, [r2, #1]
 80049e8:	e5d27002 	ldrb	r7, [r2, #2]
 80049ec:	e5d25003 	ldrb	r5, [r2, #3]
 80049f0:	e1877405 	orr	r7, r7, r5, lsl #8
 80049f4:	e1811403 	orr	r1, r1, r3, lsl #8
 80049f8:	e1813807 	orr	r3, r1, r7, lsl #16
 80049fc:	e5901004 	ldr	r1, [r0, #4]
 8004a00:	e0407002 	sub	r7, r0, r2
 8004a04:	e1570003 	cmp	r7, r3
 8004a08:	1a000007 	bne	0x8004a2c
 8004a0c:	e5821004 	str	r1, [r2, #4]
 8004a10:	e3510000 	cmp	r1, #0
 8004a14:	e5900000 	ldr	r0, [r0]
 8004a18:	e0803003 	add	r3, r0, r3
 8004a1c:	e1a00001 	mov	r0, r1
 8004a20:	e5823000 	str	r3, [r2]
 8004a24:	1afffff4 	bne	0x80049fc
 8004a28:	ea000013 	b	0x8004a7c
 8004a2c:	e3510000 	cmp	r1, #0
 8004a30:	0a000011 	beq	0x8004a7c
 8004a34:	e5d02000 	ldrb	r2, [r0]
 8004a38:	e5d03001 	ldrb	r3, [r0, #1]
 8004a3c:	e5d07002 	ldrb	r7, [r0, #2]
 8004a40:	e5d05003 	ldrb	r5, [r0, #3]
 8004a44:	e1877405 	orr	r7, r7, r5, lsl #8
 8004a48:	e1822403 	orr	r2, r2, r3, lsl #8
 8004a4c:	e1822807 	orr	r2, r2, r7, lsl #16
 8004a50:	e0413000 	sub	r3, r1, r0
 8004a54:	e1530002 	cmp	r3, r2
 8004a58:	1a000007 	bne	0x8004a7c
 8004a5c:	e5913004 	ldr	r3, [r1, #4]
 8004a60:	e5803004 	str	r3, [r0, #4]
 8004a64:	e3530000 	cmp	r3, #0
 8004a68:	e5911000 	ldr	r1, [r1]
 8004a6c:	e0812002 	add	r2, r1, r2
 8004a70:	e1a01003 	mov	r1, r3
 8004a74:	e5802000 	str	r2, [r0]
 8004a78:	1afffff4 	bne	0x8004a50
 8004a7c:	e1a04006 	mov	r4, r6
 8004a80:	e1a00004 	mov	r0, r4
 8004a84:	e24bd01c 	sub	sp, fp, #28
 8004a88:	e8bd4ff0 	pop	{r4, r5, r6, r7, r8, r9, sl, fp, lr}
 8004a8c:	e12fff1e 	bx	lr
 8004a90:	e59f006c 	ldr	r0, [pc, #108]	@ 0x8004b04
 8004a94:	e58d0000 	str	r0, [sp]
 8004a98:	e59f005c 	ldr	r0, [pc, #92]	@ 0x8004afc
 8004a9c:	e59f305c 	ldr	r3, [pc, #92]	@ 0x8004b00
 8004aa0:	e28d200b 	add	r2, sp, #11
 8004aa4:	e3a01014 	mov	r1, #20
 8004aa8:	eb001a53 	bl	0x800b3fc
 8004aac:	e59f0060 	ldr	r0, [pc, #96]	@ 0x8004b14
 8004ab0:	e59f3048 	ldr	r3, [pc, #72]	@ 0x8004b00
 8004ab4:	e28d200b 	add	r2, sp, #11
 8004ab8:	e3a0102d 	mov	r1, #45	@ 0x2d
 8004abc:	e58d0000 	str	r0, [sp]
 8004ac0:	e59f0050 	ldr	r0, [pc, #80]	@ 0x8004b18
 8004ac4:	eb001a4c 	bl	0x800b3fc
 8004ac8:	e59f0038 	ldr	r0, [pc, #56]	@ 0x8004b08
 8004acc:	eafffff0 	b	0x8004a94
 8004ad0:	e59f0020 	ldr	r0, [pc, #32]	@ 0x8004af8
 8004ad4:	eaffffee 	b	0x8004a94
 8004ad8:	e59f002c 	ldr	r0, [pc, #44]	@ 0x8004b0c
 8004adc:	e59f301c 	ldr	r3, [pc, #28]	@ 0x8004b00
 8004ae0:	e28d200b 	add	r2, sp, #11
 8004ae4:	e3a0102b 	mov	r1, #43	@ 0x2b
 8004ae8:	e58d0000 	str	r0, [sp]
 8004aec:	e59f001c 	ldr	r0, [pc, #28]	@ 0x8004b10
 8004af0:	eb001a41 	bl	0x800b3fc
 8004af4:	020010e0 	andeq	r1, r0, #224	@ 0xe0
 8004af8:	082fcc14 	stmdaeq	pc!, {r2, r4, sl, fp, lr, pc}	@ <UNPREDICTABLE>
 8004afc:	082fcb80 	stmdaeq	pc!, {r7, r8, r9, fp, lr, pc}	@ <UNPREDICTABLE>
 8004b00:	082fcb70 	stmdaeq	pc!, {r4, r5, r6, r8, r9, fp, lr, pc}	@ <UNPREDICTABLE>
 8004b04:	082fcc04 	stmdaeq	pc!, {r2, sl, fp, lr, pc}	@ <UNPREDICTABLE>
 8004b08:	082fcc24 	stmdaeq	pc!, {r2, r5, sl, fp, lr, pc}	@ <UNPREDICTABLE>
 8004b0c:	082fcc60 	stmdaeq	pc!, {r5, r6, sl, fp, lr, pc}	@ <UNPREDICTABLE>
 8004b10:	082fcc34 	stmdaeq	pc!, {r2, r4, r5, sl, fp, lr, pc}	@ <UNPREDICTABLE>
 8004b14:	082fcca0 	stmdaeq	pc!, {r5, r7, sl, fp, lr, pc}	@ <UNPREDICTABLE>
 8004b18:	082fcc70 	stmdaeq	pc!, {r4, r5, r6, sl, fp, lr, pc}	@ <UNPREDICTABLE>
 8004b1c:	e92d4800 	push	{fp, lr}
 8004b20:	e1a0b00d 	mov	fp, sp
 8004b24:	e92d0003 	push	{r0, r1}
 8004b28:	e3a00f82 	mov	r0, #520	@ 0x208
 8004b2c:	e3800301 	orr	r0, r0, #67108864	@ 0x4000000
 8004b30:	e1d010b0 	ldrh	r1, [r0]
 8004b34:	e3a01000 	mov	r1, #0
 8004b38:	e1c010b0 	strh	r1, [r0]
 8004b3c:	e1a0000d 	mov	r0, sp
 8004b40:	e28d1004 	add	r1, sp, #4
 8004b44:	ebfff2af 	bl	0x8001608
 8004b48:	e92d4ff0 	push	{r4, r5, r6, r7, r8, r9, sl, fp, lr}
 8004b4c:	e28db01c 	add	fp, sp, #28
 8004b50:	e24dd034 	sub	sp, sp, #52	@ 0x34
 8004b54:	e1a0a000 	mov	sl, r0
 8004b58:	e5900000 	ldr	r0, [r0]
 8004b5c:	e1a04001 	mov	r4, r1
 8004b60:	e3500000 	cmp	r0, #0
 8004b64:	0a00000e 	beq	0x8004ba4
 8004b68:	e5945020 	ldr	r5, [r4, #32]
 8004b6c:	e594701c 	ldr	r7, [r4, #28]
 8004b70:	e59f121c 	ldr	r1, [pc, #540]	@ 0x8004d94
 8004b74:	e3a02010 	mov	r2, #16
 8004b78:	e595600c 	ldr	r6, [r5, #12]
 8004b7c:	e1a00007 	mov	r0, r7
 8004b80:	e1a0e00f 	mov	lr, pc
 8004b84:	e12fff16 	bx	r6
 8004b88:	e3500000 	cmp	r0, #0
 8004b8c:	0a00000c 	beq	0x8004bc4
 8004b90:	e3a09001 	mov	r9, #1
 8004b94:	e1a00009 	mov	r0, r9
 8004b98:	e24bd01c 	sub	sp, fp, #28
 8004b9c:	e8bd4ff0 	pop	{r4, r5, r6, r7, r8, r9, sl, fp, lr}
 8004ba0:	e12fff1e 	bx	lr
 8004ba4:	e5941020 	ldr	r1, [r4, #32]
 8004ba8:	e594001c 	ldr	r0, [r4, #28]
 8004bac:	e3a0200e 	mov	r2, #14
 8004bb0:	e591300c 	ldr	r3, [r1, #12]
 8004bb4:	e59f11d4 	ldr	r1, [pc, #468]	@ 0x8004d90
 8004bb8:	e24bd01c 	sub	sp, fp, #28
 8004bbc:	e8bd4ff0 	pop	{r4, r5, r6, r7, r8, r9, sl, fp, lr}
 8004bc0:	e12fff13 	bx	r3
 8004bc4:	e5948014 	ldr	r8, [r4, #20]
 8004bc8:	e3180004 	tst	r8, #4
 8004bcc:	1a00000e 	bne	0x8004c0c
 8004bd0:	e59f11cc 	ldr	r1, [pc, #460]	@ 0x8004da4
 8004bd4:	e1a00007 	mov	r0, r7
 8004bd8:	e3a02001 	mov	r2, #1
 8004bdc:	e3a09001 	mov	r9, #1
 8004be0:	e1a0e00f 	mov	lr, pc
 8004be4:	e12fff16 	bx	r6
 8004be8:	e3500000 	cmp	r0, #0
 8004bec:	1affffe8 	bne	0x8004b94
 8004bf0:	e59a0004 	ldr	r0, [sl, #4]
 8004bf4:	e1a01004 	mov	r1, r4
 8004bf8:	eb00006c 	bl	0x8004db0
 8004bfc:	e3500000 	cmp	r0, #0
 8004c00:	1affffe3 	bne	0x8004b94
 8004c04:	e5948014 	ldr	r8, [r4, #20]
 8004c08:	ea000024 	b	0x8004ca0
 8004c0c:	e59f1184 	ldr	r1, [pc, #388]	@ 0x8004d98
 8004c10:	e1a00007 	mov	r0, r7
 8004c14:	e3a02002 	mov	r2, #2
 8004c18:	e1a0e00f 	mov	lr, pc
 8004c1c:	e12fff16 	bx	r6
 8004c20:	e3a09001 	mov	r9, #1
 8004c24:	e3500000 	cmp	r0, #0
 8004c28:	1affffd9 	bne	0x8004b94
 8004c2c:	e28d000f 	add	r0, sp, #15
 8004c30:	e5cd900f 	strb	r9, [sp, #15]
 8004c34:	e58d5004 	str	r5, [sp, #4]
 8004c38:	e58d7000 	str	r7, [sp]
 8004c3c:	e28d1010 	add	r1, sp, #16
 8004c40:	e58d0008 	str	r0, [sp, #8]
 8004c44:	e1a00004 	mov	r0, r4
 8004c48:	e1a02001 	mov	r2, r1
 8004c4c:	e8b000c8 	ldm	r0!, {r3, r6, r7}
 8004c50:	e8a200c8 	stmia	r2!, {r3, r6, r7}
 8004c54:	e89000e8 	ldm	r0, {r3, r5, r6, r7}
 8004c58:	e59f013c 	ldr	r0, [pc, #316]	@ 0x8004d9c
 8004c5c:	e88200e8 	stm	r2, {r3, r5, r6, r7}
 8004c60:	e58d0030 	str	r0, [sp, #48]	@ 0x30
 8004c64:	e1a0000d 	mov	r0, sp
 8004c68:	e58d002c 	str	r0, [sp, #44]	@ 0x2c
 8004c6c:	e59a0004 	ldr	r0, [sl, #4]
 8004c70:	eb00004e 	bl	0x8004db0
 8004c74:	e3500000 	cmp	r0, #0
 8004c78:	1affffc5 	bne	0x8004b94
 8004c7c:	e59d1030 	ldr	r1, [sp, #48]	@ 0x30
 8004c80:	e59d002c 	ldr	r0, [sp, #44]	@ 0x2c
 8004c84:	e3a02002 	mov	r2, #2
 8004c88:	e591300c 	ldr	r3, [r1, #12]
 8004c8c:	e59f110c 	ldr	r1, [pc, #268]	@ 0x8004da0
 8004c90:	e1a0e00f 	mov	lr, pc
 8004c94:	e12fff13 	bx	r3
 8004c98:	e3500000 	cmp	r0, #0
 8004c9c:	1affffbc 	bne	0x8004b94
 8004ca0:	e28a7008 	add	r7, sl, #8
 8004ca4:	e3180004 	tst	r8, #4
 8004ca8:	1a000010 	bne	0x8004cf0
 8004cac:	e5941020 	ldr	r1, [r4, #32]
 8004cb0:	e594001c 	ldr	r0, [r4, #28]
 8004cb4:	e3a02002 	mov	r2, #2
 8004cb8:	e591300c 	ldr	r3, [r1, #12]
 8004cbc:	e59f10e4 	ldr	r1, [pc, #228]	@ 0x8004da8
 8004cc0:	e1a0e00f 	mov	lr, pc
 8004cc4:	e12fff13 	bx	r3
 8004cc8:	e3500000 	cmp	r0, #0
 8004ccc:	1affffb0 	bne	0x8004b94
 8004cd0:	e1a00007 	mov	r0, r7
 8004cd4:	e1a01004 	mov	r1, r4
 8004cd8:	ebfffd23 	bl	0x800416c
 8004cdc:	e3500000 	cmp	r0, #0
 8004ce0:	1affffab 	bne	0x8004b94
 8004ce4:	e594801c 	ldr	r8, [r4, #28]
 8004ce8:	e594a020 	ldr	sl, [r4, #32]
 8004cec:	ea00001c 	b	0x8004d64
 8004cf0:	e594801c 	ldr	r8, [r4, #28]
 8004cf4:	e28d000f 	add	r0, sp, #15
 8004cf8:	e594a020 	ldr	sl, [r4, #32]
 8004cfc:	e5cd900f 	strb	r9, [sp, #15]
 8004d00:	e28d1010 	add	r1, sp, #16
 8004d04:	e58d0008 	str	r0, [sp, #8]
 8004d08:	e1a00001 	mov	r0, r1
 8004d0c:	e88d0500 	stm	sp, {r8, sl}
 8004d10:	e8b4002c 	ldm	r4!, {r2, r3, r5}
 8004d14:	e8a0002c 	stmia	r0!, {r2, r3, r5}
 8004d18:	e894006c 	ldm	r4, {r2, r3, r5, r6}
 8004d1c:	e880006c 	stm	r0, {r2, r3, r5, r6}
 8004d20:	e59f0074 	ldr	r0, [pc, #116]	@ 0x8004d9c
 8004d24:	e58d0030 	str	r0, [sp, #48]	@ 0x30
 8004d28:	e1a0000d 	mov	r0, sp
 8004d2c:	e58d002c 	str	r0, [sp, #44]	@ 0x2c
 8004d30:	e1a00007 	mov	r0, r7
 8004d34:	ebfffd0c 	bl	0x800416c
 8004d38:	e3500000 	cmp	r0, #0
 8004d3c:	1affff94 	bne	0x8004b94
 8004d40:	e59d1030 	ldr	r1, [sp, #48]	@ 0x30
 8004d44:	e59d002c 	ldr	r0, [sp, #44]	@ 0x2c
 8004d48:	e3a02002 	mov	r2, #2
 8004d4c:	e591300c 	ldr	r3, [r1, #12]
 8004d50:	e59f1048 	ldr	r1, [pc, #72]	@ 0x8004da0
 8004d54:	e1a0e00f 	mov	lr, pc
 8004d58:	e12fff13 	bx	r3
 8004d5c:	e3500000 	cmp	r0, #0
 8004d60:	1affff8b 	bne	0x8004b94
 8004d64:	e59a300c 	ldr	r3, [sl, #12]
 8004d68:	e59f103c 	ldr	r1, [pc, #60]	@ 0x8004dac
 8004d6c:	e1a00008 	mov	r0, r8
 8004d70:	e3a02001 	mov	r2, #1
 8004d74:	e1a0e00f 	mov	lr, pc
 8004d78:	e12fff13 	bx	r3
 8004d7c:	e1a09000 	mov	r9, r0
 8004d80:	e1a00009 	mov	r0, r9
 8004d84:	e24bd01c 	sub	sp, fp, #28
 8004d88:	e8bd4ff0 	pop	{r4, r5, r6, r7, r8, r9, sl, fp, lr}
 8004d8c:	e12fff1e 	bx	lr
 8004d90:	082fcb56 	stmdaeq	pc!, {r1, r2, r4, r6, r8, r9, fp, lr, pc}	@ <UNPREDICTABLE>
 8004d94:	082e3798 	stmdaeq	lr!, {r3, r4, r7, r8, r9, sl, ip, sp}
 8004d98:	082fd9a1 	stmdaeq	pc!, {r0, r5, r7, r8, fp, ip, lr, pc}	@ <UNPREDICTABLE>
 8004d9c:	082fd984 	stmdaeq	pc!, {r2, r7, r8, fp, ip, lr, pc}	@ <UNPREDICTABLE>
 8004da0:	082fd99e 	stmdaeq	pc!, {r1, r2, r3, r4, r7, r8, fp, ip, lr, pc}	@ <UNPREDICTABLE>
 8004da4:	082fd9a0 	stmdaeq	pc!, {r5, r7, r8, fp, ip, lr, pc}	@ <UNPREDICTABLE>
 8004da8:	082fd99c 	stmdaeq	pc!, {r2, r3, r4, r7, r8, fp, ip, lr, pc}	@ <UNPREDICTABLE>
 8004dac:	082fd8b8 	stmdaeq	pc!, {r3, r4, r5, r7, fp, ip, lr, pc}	@ <UNPREDICTABLE>
 8004db0:	e92d4ff0 	push	{r4, r5, r6, r7, r8, r9, sl, fp, lr}
 8004db4:	e28db01c 	add	fp, sp, #28
 8004db8:	e24dd08c 	sub	sp, sp, #140	@ 0x8c
 8004dbc:	e1a06001 	mov	r6, r1
 8004dc0:	e5911014 	ldr	r1, [r1, #20]
 8004dc4:	e3110010 	tst	r1, #16
 8004dc8:	1a00003d 	bne	0x8004ec4
 8004dcc:	e3110020 	tst	r1, #32
 8004dd0:	1a000047 	bne	0x8004ef4
 8004dd4:	e3a08e71 	mov	r8, #1808	@ 0x710
 8004dd8:	e3a0e0ff 	mov	lr, #255	@ 0xff
 8004ddc:	e3a0c07b 	mov	ip, #123	@ 0x7b
 8004de0:	e3a0100a 	mov	r1, #10
 8004de4:	e3888a02 	orr	r8, r8, #8192	@ 0x2000
 8004de8:	e38eecff 	orr	lr, lr, #65280	@ 0xff00
 8004dec:	e38ccb05 	orr	ip, ip, #5120	@ 0x1400
 8004df0:	e1500008 	cmp	r0, r8
 8004df4:	3a000054 	bcc	0x8004f4c
 8004df8:	e59fa1e4 	ldr	sl, [pc, #484]	@ 0x8004fe4
 8004dfc:	e3a03000 	mov	r3, #0
 8004e00:	e58d6008 	str	r6, [sp, #8]
 8004e04:	e59f41d4 	ldr	r4, [pc, #468]	@ 0x8004fe0
 8004e08:	e28d100c 	add	r1, sp, #12
 8004e0c:	e1a0700a 	mov	r7, sl
 8004e10:	e0816003 	add	r6, r1, r3
 8004e14:	e1a0100c 	mov	r1, ip
 8004e18:	e2433004 	sub	r3, r3, #4
 8004e1c:	e08c2490 	umull	r2, ip, r0, r4
 8004e20:	e1a096ac 	lsr	r9, ip, #13
 8004e24:	e1a0c001 	mov	ip, r1
 8004e28:	e3a02064 	mov	r2, #100	@ 0x64
 8004e2c:	e0040899 	mul	r4, r9, r8
 8004e30:	e0404004 	sub	r4, r0, r4
 8004e34:	e004500e 	and	r5, r4, lr
 8004e38:	e1a05125 	lsr	r5, r5, #2
 8004e3c:	e0010c95 	mul	r1, r5, ip
 8004e40:	e1a018a1 	lsr	r1, r1, #17
 8004e44:	e7f75081 	ldrb	r5, [r7, r1, lsl #1]!
 8004e48:	e5d77001 	ldrb	r7, [r7, #1]
 8004e4c:	e5c65006 	strb	r5, [r6, #6]
 8004e50:	e5c67007 	strb	r7, [r6, #7]
 8004e54:	e0070291 	mul	r7, r1, r2
 8004e58:	e0441007 	sub	r1, r4, r7
 8004e5c:	e1a0700a 	mov	r7, sl
 8004e60:	e001100e 	and	r1, r1, lr
 8004e64:	e7f71081 	ldrb	r1, [r7, r1, lsl #1]!
 8004e68:	e5c61008 	strb	r1, [r6, #8]
 8004e6c:	e5d71001 	ldrb	r1, [r7, #1]
 8004e70:	e5c61009 	strb	r1, [r6, #9]
 8004e74:	e59f116c 	ldr	r1, [pc, #364]	@ 0x8004fe8
 8004e78:	e1500001 	cmp	r0, r1
 8004e7c:	e1a00009 	mov	r0, r9
 8004e80:	8affffdf 	bhi	0x8004e04
 8004e84:	e59d6008 	ldr	r6, [sp, #8]
 8004e88:	e283100a 	add	r1, r3, #10
 8004e8c:	e3590063 	cmp	r9, #99	@ 0x63
 8004e90:	8a000030 	bhi	0x8004f58
 8004e94:	e1a00009 	mov	r0, r9
 8004e98:	e350000a 	cmp	r0, #10
 8004e9c:	3a00003f 	bcc	0x8004fa0
 8004ea0:	e59f213c 	ldr	r2, [pc, #316]	@ 0x8004fe4
 8004ea4:	e2411002 	sub	r1, r1, #2
 8004ea8:	e28d300c 	add	r3, sp, #12
 8004eac:	e7f20080 	ldrb	r0, [r2, r0, lsl #1]!
 8004eb0:	e5d22001 	ldrb	r2, [r2, #1]
 8004eb4:	e7c30001 	strb	r0, [r3, r1]
 8004eb8:	e0830001 	add	r0, r3, r1
 8004ebc:	e5c02001 	strb	r2, [r0, #1]
 8004ec0:	ea00003a 	b	0x8004fb0
 8004ec4:	e3a0307f 	mov	r3, #127	@ 0x7f
 8004ec8:	e28d100c 	add	r1, sp, #12
 8004ecc:	e1a02003 	mov	r2, r3
 8004ed0:	e200300f 	and	r3, r0, #15
 8004ed4:	e2837057 	add	r7, r3, #87	@ 0x57
 8004ed8:	e353000a 	cmp	r3, #10
 8004edc:	33837030 	orrcc	r7, r3, #48	@ 0x30
 8004ee0:	e2423001 	sub	r3, r2, #1
 8004ee4:	e1b00220 	lsrs	r0, r0, #4
 8004ee8:	e7c17002 	strb	r7, [r1, r2]
 8004eec:	1afffff6 	bne	0x8004ecc
 8004ef0:	ea00000a 	b	0x8004f20
 8004ef4:	e3a0307f 	mov	r3, #127	@ 0x7f
 8004ef8:	e28d100c 	add	r1, sp, #12
 8004efc:	e1a02003 	mov	r2, r3
 8004f00:	e200300f 	and	r3, r0, #15
 8004f04:	e2837037 	add	r7, r3, #55	@ 0x37
 8004f08:	e353000a 	cmp	r3, #10
 8004f0c:	33837030 	orrcc	r7, r3, #48	@ 0x30
 8004f10:	e2423001 	sub	r3, r2, #1
 8004f14:	e1b00220 	lsrs	r0, r0, #4
 8004f18:	e7c17002 	strb	r7, [r1, r2]
 8004f1c:	1afffff6 	bne	0x8004efc
 8004f20:	e0813002 	add	r3, r1, r2
 8004f24:	e59f10b0 	ldr	r1, [pc, #176]	@ 0x8004fdc
 8004f28:	e2820001 	add	r0, r2, #1
 8004f2c:	e3a02002 	mov	r2, #2
 8004f30:	e2600081 	rsb	r0, r0, #129	@ 0x81
 8004f34:	e58d0000 	str	r0, [sp]
 8004f38:	e1a00006 	mov	r0, r6
 8004f3c:	eb000872 	bl	0x800710c
 8004f40:	e24bd01c 	sub	sp, fp, #28
 8004f44:	e8bd4ff0 	pop	{r4, r5, r6, r7, r8, r9, sl, fp, lr}
 8004f48:	e12fff1e 	bx	lr
 8004f4c:	e1a09000 	mov	r9, r0
 8004f50:	e3590063 	cmp	r9, #99	@ 0x63
 8004f54:	9affffce 	bls	0x8004e94
 8004f58:	e009000e 	and	r0, r9, lr
 8004f5c:	e2411002 	sub	r1, r1, #2
 8004f60:	e1a00120 	lsr	r0, r0, #2
 8004f64:	e0030c90 	mul	r3, r0, ip
 8004f68:	e1a008a3 	lsr	r0, r3, #17
 8004f6c:	e3a03064 	mov	r3, #100	@ 0x64
 8004f70:	e0070390 	mul	r7, r0, r3
 8004f74:	e59f3068 	ldr	r3, [pc, #104]	@ 0x8004fe4
 8004f78:	e0492007 	sub	r2, r9, r7
 8004f7c:	e28d700c 	add	r7, sp, #12
 8004f80:	e002200e 	and	r2, r2, lr
 8004f84:	e7f32082 	ldrb	r2, [r3, r2, lsl #1]!
 8004f88:	e5d33001 	ldrb	r3, [r3, #1]
 8004f8c:	e7c72001 	strb	r2, [r7, r1]
 8004f90:	e0872001 	add	r2, r7, r1
 8004f94:	e5c23001 	strb	r3, [r2, #1]
 8004f98:	e350000a 	cmp	r0, #10
 8004f9c:	2affffbf 	bcs	0x8004ea0
 8004fa0:	e2411001 	sub	r1, r1, #1
 8004fa4:	e3800030 	orr	r0, r0, #48	@ 0x30
 8004fa8:	e28d200c 	add	r2, sp, #12
 8004fac:	e7c20001 	strb	r0, [r2, r1]
 8004fb0:	e261000a 	rsb	r0, r1, #10
 8004fb4:	e3a02000 	mov	r2, #0
 8004fb8:	e58d0000 	str	r0, [sp]
 8004fbc:	e28d000c 	add	r0, sp, #12
 8004fc0:	e0803001 	add	r3, r0, r1
 8004fc4:	e1a00006 	mov	r0, r6
 8004fc8:	e3a01001 	mov	r1, #1
 8004fcc:	eb00084e 	bl	0x800710c
 8004fd0:	e24bd01c 	sub	sp, fp, #28
 8004fd4:	e8bd4ff0 	pop	{r4, r5, r6, r7, r8, r9, sl, fp, lr}
 8004fd8:	e12fff1e 	bx	lr
 8004fdc:	082fda0e 	stmdaeq	pc!, {r1, r2, r3, r9, fp, ip, lr, pc}	@ <UNPREDICTABLE>
 8004fe0:	d1b71759 			@ <UNDEFINED> instruction: 0xd1b71759
 8004fe4:	082fda10 	stmdaeq	pc!, {r4, r9, fp, ip, lr, pc}	@ <UNPREDICTABLE>
 8004fe8:	05f5e0ff 	ldrbeq	lr, [r5, #255]!	@ 0xff
 8004fec:	e92d4830 	push	{r4, r5, fp, lr}
 8004ff0:	e28db008 	add	fp, sp, #8
 8004ff4:	e24dd008 	sub	sp, sp, #8
 8004ff8:	e3520004 	cmp	r2, #4
 8004ffc:	e1a04002 	mov	r4, r2
 8005000:	93a04004 	movls	r4, #4
 8005004:	e264c102 	rsb	ip, r4, #-2147483648	@ 0x80000000
 8005008:	e15c0001 	cmp	ip, r1
 800500c:	3a000062 	bcc	0x800519c
 8005010:	e2443001 	sub	r3, r4, #1
 8005014:	e3510008 	cmp	r1, #8
 8005018:	e0244003 	eor	r4, r4, r3
 800501c:	93a01008 	movls	r1, #8
 8005020:	e1540003 	cmp	r4, r3
 8005024:	9a000055 	bls	0x8005180
 8005028:	e15c0001 	cmp	ip, r1
 800502c:	3a000053 	bcc	0x8005180
 8005030:	e3520008 	cmp	r2, #8
 8005034:	93a02008 	movls	r2, #8
 8005038:	e2623102 	rsb	r3, r2, #-2147483648	@ 0x80000000
 800503c:	e1530001 	cmp	r3, r1
 8005040:	3a000057 	bcc	0x80051a4
 8005044:	e59f4160 	ldr	r4, [pc, #352]	@ 0x80051ac
 8005048:	e242e001 	sub	lr, r2, #1
 800504c:	e2625000 	rsb	r5, r2, #0
 8005050:	e08e3001 	add	r3, lr, r1
 8005054:	e003c005 	and	ip, r3, r5
 8005058:	e1a03004 	mov	r3, r4
 800505c:	e5b3200c 	ldr	r2, [r3, #12]!
 8005060:	e3520000 	cmp	r2, #0
 8005064:	0a00000d 	beq	0x80050a0
 8005068:	e284300c 	add	r3, r4, #12
 800506c:	e1520000 	cmp	r2, r0
 8005070:	9a000002 	bls	0x8005080
 8005074:	e1a04002 	mov	r4, r2
 8005078:	e1a02003 	mov	r2, r3
 800507c:	ea00000b 	b	0x80050b0
 8005080:	e5b24004 	ldr	r4, [r2, #4]!
 8005084:	e3540000 	cmp	r4, #0
 8005088:	0a000007 	beq	0x80050ac
 800508c:	e1540000 	cmp	r4, r0
 8005090:	8a000006 	bhi	0x80050b0
 8005094:	e1a03002 	mov	r3, r2
 8005098:	e1a02004 	mov	r2, r4
 800509c:	eafffff7 	b	0x8005080
 80050a0:	e3a04000 	mov	r4, #0
 80050a4:	e1a02003 	mov	r2, r3
 80050a8:	ea000000 	b	0x80050b0
 80050ac:	e3a04000 	mov	r4, #0
 80050b0:	e08e100c 	add	r1, lr, ip
 80050b4:	e0011005 	and	r1, r1, r5
 80050b8:	e8800012 	stm	r0, {r1, r4}
 80050bc:	e5820000 	str	r0, [r2]
 80050c0:	e5932000 	ldr	r2, [r3]
 80050c4:	e3520000 	cmp	r2, #0
 80050c8:	15920004 	ldrne	r0, [r2, #4]
 80050cc:	13500000 	cmpne	r0, #0
 80050d0:	1a000002 	bne	0x80050e0
 80050d4:	e24bd008 	sub	sp, fp, #8
 80050d8:	e8bd4830 	pop	{r4, r5, fp, lr}
 80050dc:	e12fff1e 	bx	lr
 80050e0:	e5d21000 	ldrb	r1, [r2]
 80050e4:	e5d23001 	ldrb	r3, [r2, #1]
 80050e8:	e5d25002 	ldrb	r5, [r2, #2]
 80050ec:	e5d24003 	ldrb	r4, [r2, #3]
 80050f0:	e1855404 	orr	r5, r5, r4, lsl #8
 80050f4:	e1811403 	orr	r1, r1, r3, lsl #8
 80050f8:	e1813805 	orr	r3, r1, r5, lsl #16
 80050fc:	e5901004 	ldr	r1, [r0, #4]
 8005100:	e0405002 	sub	r5, r0, r2
 8005104:	e1550003 	cmp	r5, r3
 8005108:	1a000007 	bne	0x800512c
 800510c:	e5821004 	str	r1, [r2, #4]
 8005110:	e3510000 	cmp	r1, #0
 8005114:	e5900000 	ldr	r0, [r0]
 8005118:	e0803003 	add	r3, r0, r3
 800511c:	e1a00001 	mov	r0, r1
 8005120:	e5823000 	str	r3, [r2]
 8005124:	1afffff4 	bne	0x80050fc
 8005128:	eaffffe9 	b	0x80050d4
 800512c:	e3510000 	cmp	r1, #0
 8005130:	0affffe7 	beq	0x80050d4
 8005134:	e5d02000 	ldrb	r2, [r0]
 8005138:	e5d03001 	ldrb	r3, [r0, #1]
 800513c:	e5d05002 	ldrb	r5, [r0, #2]
 8005140:	e5d04003 	ldrb	r4, [r0, #3]
 8005144:	e1855404 	orr	r5, r5, r4, lsl #8
 8005148:	e1822403 	orr	r2, r2, r3, lsl #8
 800514c:	e1822805 	orr	r2, r2, r5, lsl #16
 8005150:	e0413000 	sub	r3, r1, r0
 8005154:	e1530002 	cmp	r3, r2
 8005158:	1affffdd 	bne	0x80050d4
 800515c:	e5913004 	ldr	r3, [r1, #4]
 8005160:	e5803004 	str	r3, [r0, #4]
 8005164:	e3530000 	cmp	r3, #0
 8005168:	e5911000 	ldr	r1, [r1]
 800516c:	e0812002 	add	r2, r1, r2
 8005170:	e1a01003 	mov	r1, r3
 8005174:	e5802000 	str	r2, [r0]
 8005178:	1afffff4 	bne	0x8005150
 800517c:	eaffffd4 	b	0x80050d4
 8005180:	e59f0034 	ldr	r0, [pc, #52]	@ 0x80051bc
 8005184:	e58d0000 	str	r0, [sp]
 8005188:	e59f0024 	ldr	r0, [pc, #36]	@ 0x80051b4
 800518c:	e59f3024 	ldr	r3, [pc, #36]	@ 0x80051b8
 8005190:	e28d2007 	add	r2, sp, #7
 8005194:	e3a01014 	mov	r1, #20
 8005198:	eb001897 	bl	0x800b3fc
 800519c:	e59f001c 	ldr	r0, [pc, #28]	@ 0x80051c0
 80051a0:	eafffff7 	b	0x8005184
 80051a4:	e59f0004 	ldr	r0, [pc, #4]	@ 0x80051b0
 80051a8:	eafffff5 	b	0x8005184
 80051ac:	020010e0 	andeq	r1, r0, #224	@ 0xe0
 80051b0:	082fcc14 	stmdaeq	pc!, {r2, r4, sl, fp, lr, pc}	@ <UNPREDICTABLE>
 80051b4:	082fcb80 	stmdaeq	pc!, {r7, r8, r9, fp, lr, pc}	@ <UNPREDICTABLE>
 80051b8:	082fcb70 	stmdaeq	pc!, {r4, r5, r6, r8, r9, fp, lr, pc}	@ <UNPREDICTABLE>
 80051bc:	082fcc04 	stmdaeq	pc!, {r2, sl, fp, lr, pc}	@ <UNPREDICTABLE>
 80051c0:	082fcc24 	stmdaeq	pc!, {r2, r5, sl, fp, lr, pc}	@ <UNPREDICTABLE>
 80051c4:	e92d48f0 	push	{r4, r5, r6, r7, fp, lr}
 80051c8:	e28db010 	add	fp, sp, #16
 80051cc:	e5913004 	ldr	r3, [r1, #4]
 80051d0:	e1a02001 	mov	r2, r1
 80051d4:	e591100c 	ldr	r1, [r1, #12]
 80051d8:	e3530001 	cmp	r3, #1
 80051dc:	0a000006 	beq	0x80051fc
 80051e0:	e3530000 	cmp	r3, #0
 80051e4:	03510000 	cmpeq	r1, #0
 80051e8:	1a000005 	bne	0x8005204
 80051ec:	e5905008 	ldr	r5, [r0, #8]
 80051f0:	e3a04000 	mov	r4, #0
 80051f4:	e3a01001 	mov	r1, #1
 80051f8:	ea00000b 	b	0x800522c
 80051fc:	e3510000 	cmp	r1, #0
 8005200:	0a000002 	beq	0x8005210
 8005204:	e59f1070 	ldr	r1, [pc, #112]	@ 0x800527c
 8005208:	e8bd48f0 	pop	{r4, r5, r6, r7, fp, lr}
 800520c:	ea000485 	b	0x8006428
 8005210:	e5922000 	ldr	r2, [r2]
 8005214:	e5905008 	ldr	r5, [r0, #8]
 8005218:	e8920012 	ldm	r2, {r1, r4}
 800521c:	e5902000 	ldr	r2, [r0]
 8005220:	e0422005 	sub	r2, r2, r5
 8005224:	e1520004 	cmp	r2, r4
 8005228:	3a00000a 	bcc	0x8005258
 800522c:	e5902004 	ldr	r2, [r0, #4]
 8005230:	e1a06000 	mov	r6, r0
 8005234:	e0822005 	add	r2, r2, r5
 8005238:	e1a00002 	mov	r0, r2
 800523c:	e1a02004 	mov	r2, r4
 8005240:	eb003242 	bl	0x8011b50
 8005244:	e0850004 	add	r0, r5, r4
 8005248:	e5860008 	str	r0, [r6, #8]
 800524c:	e3a00000 	mov	r0, #0
 8005250:	e8bd48f0 	pop	{r4, r5, r6, r7, fp, lr}
 8005254:	e12fff1e 	bx	lr
 8005258:	e1a07001 	mov	r7, r1
 800525c:	e1a01005 	mov	r1, r5
 8005260:	e1a02004 	mov	r2, r4
 8005264:	e1a06000 	mov	r6, r0
 8005268:	eb000143 	bl	0x800577c
 800526c:	e5965008 	ldr	r5, [r6, #8]
 8005270:	e1a01007 	mov	r1, r7
 8005274:	e1a00006 	mov	r0, r6
 8005278:	eaffffeb 	b	0x800522c
 800527c:	082fcd2c 	stmdaeq	pc!, {r2, r3, r5, r8, sl, fp, lr, pc}	@ <UNPREDICTABLE>
 8005280:	e5901000 	ldr	r1, [r0]
 8005284:	e3510000 	cmp	r1, #0
 8005288:	012fff1e 	bxeq	lr
 800528c:	e5900004 	ldr	r0, [r0, #4]
 8005290:	e3a02001 	mov	r2, #1
 8005294:	eaffff54 	b	0x8004fec
 8005298:	e92d48f0 	push	{r4, r5, r6, r7, fp, lr}
 800529c:	e28db010 	add	fp, sp, #16
 80052a0:	e1a05000 	mov	r5, r0
 80052a4:	e5900000 	ldr	r0, [r0]
 80052a8:	e1a04002 	mov	r4, r2
 80052ac:	e5956008 	ldr	r6, [r5, #8]
 80052b0:	e0400006 	sub	r0, r0, r6
 80052b4:	e1500002 	cmp	r0, r2
 80052b8:	3a000008 	bcc	0x80052e0
 80052bc:	e5950004 	ldr	r0, [r5, #4]
 80052c0:	e1a02004 	mov	r2, r4
 80052c4:	e0800006 	add	r0, r0, r6
 80052c8:	eb003220 	bl	0x8011b50
 80052cc:	e0860004 	add	r0, r6, r4
 80052d0:	e5850008 	str	r0, [r5, #8]
 80052d4:	e3a00000 	mov	r0, #0
 80052d8:	e8bd48f0 	pop	{r4, r5, r6, r7, fp, lr}
 80052dc:	e12fff1e 	bx	lr
 80052e0:	e1a07001 	mov	r7, r1
 80052e4:	e1a00005 	mov	r0, r5
 80052e8:	e1a01006 	mov	r1, r6
 80052ec:	e1a02004 	mov	r2, r4
 80052f0:	eb000121 	bl	0x800577c
 80052f4:	e5956008 	ldr	r6, [r5, #8]
 80052f8:	e1a01007 	mov	r1, r7
 80052fc:	eaffffee 	b	0x80052bc
 8005300:	e92d4c70 	push	{r4, r5, r6, sl, fp, lr}
 8005304:	e28db010 	add	fp, sp, #16
 8005308:	e24dd008 	sub	sp, sp, #8
 800530c:	e1a04000 	mov	r4, r0
 8005310:	e3510080 	cmp	r1, #128	@ 0x80
 8005314:	2a00000d 	bcs	0x8005350
 8005318:	e5940000 	ldr	r0, [r4]
 800531c:	e5945008 	ldr	r5, [r4, #8]
 8005320:	e1550000 	cmp	r5, r0
 8005324:	1a000005 	bne	0x8005340
 8005328:	e59f210c 	ldr	r2, [pc, #268]	@ 0x800543c
 800532c:	e1a06001 	mov	r6, r1
 8005330:	e1a00004 	mov	r0, r4
 8005334:	e1a01002 	mov	r1, r2
 8005338:	eb0000b5 	bl	0x8005614
 800533c:	e1a01006 	mov	r1, r6
 8005340:	e5940004 	ldr	r0, [r4, #4]
 8005344:	e7c01005 	strb	r1, [r0, r5]
 8005348:	e2850001 	add	r0, r5, #1
 800534c:	ea00002f 	b	0x8005410
 8005350:	e3a02000 	mov	r2, #0
 8005354:	e28d0004 	add	r0, sp, #4
 8005358:	e3510b02 	cmp	r1, #2048	@ 0x800
 800535c:	e58d2004 	str	r2, [sp, #4]
 8005360:	2a000005 	bcs	0x800537c
 8005364:	e3a020c0 	mov	r2, #192	@ 0xc0
 8005368:	e3800001 	orr	r0, r0, #1
 800536c:	e3a05002 	mov	r5, #2
 8005370:	e1822321 	orr	r2, r2, r1, lsr #6
 8005374:	e5cd2004 	strb	r2, [sp, #4]
 8005378:	ea000016 	b	0x80053d8
 800537c:	e3510801 	cmp	r1, #65536	@ 0x10000
 8005380:	2a000008 	bcs	0x80053a8
 8005384:	e3a020e0 	mov	r2, #224	@ 0xe0
 8005388:	e3800002 	orr	r0, r0, #2
 800538c:	e3a05003 	mov	r5, #3
 8005390:	e1822621 	orr	r2, r2, r1, lsr #12
 8005394:	e5cd2004 	strb	r2, [sp, #4]
 8005398:	e3a0203f 	mov	r2, #63	@ 0x3f
 800539c:	e0022321 	and	r2, r2, r1, lsr #6
 80053a0:	e3822080 	orr	r2, r2, #128	@ 0x80
 80053a4:	ea00000a 	b	0x80053d4
 80053a8:	e3a020f0 	mov	r2, #240	@ 0xf0
 80053ac:	e3800003 	orr	r0, r0, #3
 80053b0:	e3a05004 	mov	r5, #4
 80053b4:	e1822921 	orr	r2, r2, r1, lsr #18
 80053b8:	e5cd2004 	strb	r2, [sp, #4]
 80053bc:	e3a0203f 	mov	r2, #63	@ 0x3f
 80053c0:	e0023321 	and	r3, r2, r1, lsr #6
 80053c4:	e0022621 	and	r2, r2, r1, lsr #12
 80053c8:	e3833080 	orr	r3, r3, #128	@ 0x80
 80053cc:	e3822080 	orr	r2, r2, #128	@ 0x80
 80053d0:	e5cd3006 	strb	r3, [sp, #6]
 80053d4:	e5cd2005 	strb	r2, [sp, #5]
 80053d8:	e201103f 	and	r1, r1, #63	@ 0x3f
 80053dc:	e5946008 	ldr	r6, [r4, #8]
 80053e0:	e3811080 	orr	r1, r1, #128	@ 0x80
 80053e4:	e5c01000 	strb	r1, [r0]
 80053e8:	e5940000 	ldr	r0, [r4]
 80053ec:	e0400006 	sub	r0, r0, r6
 80053f0:	e1500005 	cmp	r0, r5
 80053f4:	3a00000a 	bcc	0x8005424
 80053f8:	e5940004 	ldr	r0, [r4, #4]
 80053fc:	e28d1004 	add	r1, sp, #4
 8005400:	e1a02005 	mov	r2, r5
 8005404:	e0800006 	add	r0, r0, r6
 8005408:	eb0031d0 	bl	0x8011b50
 800540c:	e0860005 	add	r0, r6, r5
 8005410:	e5840008 	str	r0, [r4, #8]
 8005414:	e3a00000 	mov	r0, #0
 8005418:	e24bd010 	sub	sp, fp, #16
 800541c:	e8bd4c70 	pop	{r4, r5, r6, sl, fp, lr}
 8005420:	e12fff1e 	bx	lr
 8005424:	e1a00004 	mov	r0, r4
 8005428:	e1a01006 	mov	r1, r6
 800542c:	e1a02005 	mov	r2, r5
 8005430:	eb0000d1 	bl	0x800577c
 8005434:	e5946008 	ldr	r6, [r4, #8]
 8005438:	eaffffee 	b	0x80053f8
 800543c:	082fced0 	stmdaeq	pc!, {r4, r6, r7, r9, sl, fp, lr, pc}	@ <UNPREDICTABLE>
 8005440:	e92d4800 	push	{fp, lr}
 8005444:	e1a0b00d 	mov	fp, sp
 8005448:	ebffef10 	bl	0x8001090
 800544c:	e92d4ff0 	push	{r4, r5, r6, r7, r8, r9, sl, fp, lr}
 8005450:	e28db01c 	add	fp, sp, #28
 8005454:	e24dd014 	sub	sp, sp, #20
 8005458:	e5917004 	ldr	r7, [r1, #4]
 800545c:	e5919000 	ldr	r9, [r1]
 8005460:	e1a05001 	mov	r5, r1
 8005464:	e1a0a000 	mov	sl, r0
 8005468:	e3570000 	cmp	r7, #0
 800546c:	0a000020 	beq	0x80054f4
 8005470:	e2890004 	add	r0, r9, #4
 8005474:	e3a06000 	mov	r6, #0
 8005478:	e1a01007 	mov	r1, r7
 800547c:	e4902008 	ldr	r2, [r0], #8
 8005480:	e2511001 	subs	r1, r1, #1
 8005484:	e0826006 	add	r6, r2, r6
 8005488:	1afffffb 	bne	0x800547c
 800548c:	e595400c 	ldr	r4, [r5, #12]
 8005490:	e3540000 	cmp	r4, #0
 8005494:	0a00000a 	beq	0x80054c4
 8005498:	e5990004 	ldr	r0, [r9, #4]
 800549c:	e2701000 	rsbs	r1, r0, #0
 80054a0:	e0a00001 	adc	r0, r0, r1
 80054a4:	e3a01000 	mov	r1, #0
 80054a8:	e3560010 	cmp	r6, #16
 80054ac:	33a01001 	movcc	r1, #1
 80054b0:	e1110000 	tst	r1, r0
 80054b4:	1a00000f 	bne	0x80054f8
 80054b8:	e3760001 	cmn	r6, #1
 80054bc:	da00000d 	ble	0x80054f8
 80054c0:	e1a06086 	lsl	r6, r6, #1
 80054c4:	e3560000 	cmp	r6, #0
 80054c8:	4a00003f 	bmi	0x80055cc
 80054cc:	0a000009 	beq	0x80054f8
 80054d0:	e59f0108 	ldr	r0, [pc, #264]	@ 0x80055e0
 80054d4:	e1a01006 	mov	r1, r6
 80054d8:	e3a08001 	mov	r8, #1
 80054dc:	e5d00000 	ldrb	r0, [r0]
 80054e0:	e3a00001 	mov	r0, #1
 80054e4:	ebfffaad 	bl	0x8003fa0
 80054e8:	e3500000 	cmp	r0, #0
 80054ec:	1a000003 	bne	0x8005500
 80054f0:	ea000036 	b	0x80055d0
 80054f4:	e595400c 	ldr	r4, [r5, #12]
 80054f8:	e3a06000 	mov	r6, #0
 80054fc:	e3a00001 	mov	r0, #1
 8005500:	e3a01000 	mov	r1, #0
 8005504:	e3570001 	cmp	r7, #1
 8005508:	e58d0008 	str	r0, [sp, #8]
 800550c:	e58d6004 	str	r6, [sp, #4]
 8005510:	e58d100c 	str	r1, [sp, #12]
 8005514:	0a000006 	beq	0x8005534
 8005518:	e3570000 	cmp	r7, #0
 800551c:	03540000 	cmpeq	r4, #0
 8005520:	1a000005 	bne	0x800553c
 8005524:	e3a05000 	mov	r5, #0
 8005528:	e3a01001 	mov	r1, #1
 800552c:	e3a04000 	mov	r4, #0
 8005530:	ea000012 	b	0x8005580
 8005534:	e3540000 	cmp	r4, #0
 8005538:	0a00000c 	beq	0x8005570
 800553c:	e59f10a4 	ldr	r1, [pc, #164]	@ 0x80055e8
 8005540:	e28d0004 	add	r0, sp, #4
 8005544:	e1a02005 	mov	r2, r5
 8005548:	eb0003b6 	bl	0x8006428
 800554c:	e3500000 	cmp	r0, #0
 8005550:	0a00000f 	beq	0x8005594
 8005554:	e59f0090 	ldr	r0, [pc, #144]	@ 0x80055ec
 8005558:	e59f3094 	ldr	r3, [pc, #148]	@ 0x80055f4
 800555c:	e28d2013 	add	r2, sp, #19
 8005560:	e3a01056 	mov	r1, #86	@ 0x56
 8005564:	e58d0000 	str	r0, [sp]
 8005568:	e59f0080 	ldr	r0, [pc, #128]	@ 0x80055f0
 800556c:	eb0017a2 	bl	0x800b3fc
 8005570:	e8990022 	ldm	r9, {r1, r5}
 8005574:	e3a04000 	mov	r4, #0
 8005578:	e1560005 	cmp	r6, r5
 800557c:	3a000009 	bcc	0x80055a8
 8005580:	e0800004 	add	r0, r0, r4
 8005584:	e1a02005 	mov	r2, r5
 8005588:	eb003170 	bl	0x8011b50
 800558c:	e0840005 	add	r0, r4, r5
 8005590:	e58d000c 	str	r0, [sp, #12]
 8005594:	e99d0007 	ldmib	sp, {r0, r1, r2}
 8005598:	e88a0007 	stm	sl, {r0, r1, r2}
 800559c:	e24bd01c 	sub	sp, fp, #28
 80055a0:	e8bd4ff0 	pop	{r4, r5, r6, r7, r8, r9, sl, fp, lr}
 80055a4:	e12fff1e 	bx	lr
 80055a8:	e1a04001 	mov	r4, r1
 80055ac:	e28d0004 	add	r0, sp, #4
 80055b0:	e3a01000 	mov	r1, #0
 80055b4:	e1a02005 	mov	r2, r5
 80055b8:	eb00006f 	bl	0x800577c
 80055bc:	e1a01004 	mov	r1, r4
 80055c0:	e59d0008 	ldr	r0, [sp, #8]
 80055c4:	e59d400c 	ldr	r4, [sp, #12]
 80055c8:	eaffffec 	b	0x8005580
 80055cc:	e3a08000 	mov	r8, #0
 80055d0:	e59f200c 	ldr	r2, [pc, #12]	@ 0x80055e4
 80055d4:	e1a00008 	mov	r0, r8
 80055d8:	e1a01006 	mov	r1, r6
 80055dc:	eb00004f 	bl	0x8005720
 80055e0:	020010f1 	andeq	r1, r0, #241	@ 0xf1
 80055e4:	082fcdd8 	stmdaeq	pc!, {r3, r4, r6, r7, r8, sl, fp, lr, pc}	@ <UNPREDICTABLE>
 80055e8:	082fcd4c 	stmdaeq	pc!, {r2, r3, r6, r8, sl, fp, lr, pc}	@ <UNPREDICTABLE>
 80055ec:	082fcec0 	stmdaeq	pc!, {r6, r7, r9, sl, fp, lr, pc}	@ <UNPREDICTABLE>
 80055f0:	082fcdf8 	stmdaeq	pc!, {r3, r4, r5, r6, r7, r8, sl, fp, lr, pc}	@ <UNPREDICTABLE>
 80055f4:	082fcde8 	stmdaeq	pc!, {r3, r5, r6, r7, r8, sl, fp, lr, pc}	@ <UNPREDICTABLE>
 80055f8:	e591001c 	ldr	r0, [r1, #28]
 80055fc:	e5911020 	ldr	r1, [r1, #32]
 8005600:	e3a02005 	mov	r2, #5
 8005604:	e591300c 	ldr	r3, [r1, #12]
 8005608:	e59f1000 	ldr	r1, [pc]	@ 0x8005610
 800560c:	e12fff13 	bx	r3
 8005610:	082fcd44 	stmdaeq	pc!, {r2, r6, r8, sl, fp, lr, pc}	@ <UNPREDICTABLE>
 8005614:	e92d4c70 	push	{r4, r5, r6, sl, fp, lr}
 8005618:	e28db010 	add	fp, sp, #16
 800561c:	e24dd018 	sub	sp, sp, #24
 8005620:	e1a04001 	mov	r4, r1
 8005624:	e5901000 	ldr	r1, [r0]
 8005628:	e1a05000 	mov	r5, r0
 800562c:	e3a00000 	mov	r0, #0
 8005630:	e2916001 	adds	r6, r1, #1
 8005634:	2a00001a 	bcs	0x80056a4
 8005638:	e1560081 	cmp	r6, r1, lsl #1
 800563c:	31a06081 	lslcc	r6, r1, #1
 8005640:	e3560008 	cmp	r6, #8
 8005644:	93a06008 	movls	r6, #8
 8005648:	e3560000 	cmp	r6, #0
 800564c:	4a000014 	bmi	0x80056a4
 8005650:	e3510000 	cmp	r1, #0
 8005654:	e28d200c 	add	r2, sp, #12
 8005658:	15950004 	ldrne	r0, [r5, #4]
 800565c:	158d1014 	strne	r1, [sp, #20]
 8005660:	e1a01006 	mov	r1, r6
 8005664:	158d000c 	strne	r0, [sp, #12]
 8005668:	13a00001 	movne	r0, #1
 800566c:	e58d0010 	str	r0, [sp, #16]
 8005670:	e1a0000d 	mov	r0, sp
 8005674:	eb00000c 	bl	0x80056ac
 8005678:	e59d0000 	ldr	r0, [sp]
 800567c:	e3500001 	cmp	r0, #1
 8005680:	159d0004 	ldrne	r0, [sp, #4]
 8005684:	15856000 	strne	r6, [r5]
 8005688:	15850004 	strne	r0, [r5, #4]
 800568c:	124bd010 	subne	sp, fp, #16
 8005690:	18bd4c70 	popne	{r4, r5, r6, sl, fp, lr}
 8005694:	112fff1e 	bxne	lr
 8005698:	e99d0003 	ldmib	sp, {r0, r1}
 800569c:	e1a02004 	mov	r2, r4
 80056a0:	eb00001e 	bl	0x8005720
 80056a4:	e1a02004 	mov	r2, r4
 80056a8:	eb00001c 	bl	0x8005720
 80056ac:	e92d4830 	push	{r4, r5, fp, lr}
 80056b0:	e28db008 	add	fp, sp, #8
 80056b4:	e1a05000 	mov	r5, r0
 80056b8:	e5920004 	ldr	r0, [r2, #4]
 80056bc:	e1a04001 	mov	r4, r1
 80056c0:	e3500000 	cmp	r0, #0
 80056c4:	15923008 	ldrne	r3, [r2, #8]
 80056c8:	13530000 	cmpne	r3, #0
 80056cc:	1a000005 	bne	0x80056e8
 80056d0:	e59f0044 	ldr	r0, [pc, #68]	@ 0x800571c
 80056d4:	e1a01004 	mov	r1, r4
 80056d8:	e5d00000 	ldrb	r0, [r0]
 80056dc:	e3a00001 	mov	r0, #1
 80056e0:	ebfffa2e 	bl	0x8003fa0
 80056e4:	ea000004 	b	0x80056fc
 80056e8:	e5920000 	ldr	r0, [r2]
 80056ec:	e1a02003 	mov	r2, r3
 80056f0:	e3a01001 	mov	r1, #1
 80056f4:	e1a03004 	mov	r3, r4
 80056f8:	ebfffb95 	bl	0x8004554
 80056fc:	e3500000 	cmp	r0, #0
 8005700:	e1a01000 	mov	r1, r0
 8005704:	03a01001 	moveq	r1, #1
 8005708:	e2702000 	rsbs	r2, r0, #0
 800570c:	e0a00002 	adc	r0, r0, r2
 8005710:	e8850013 	stm	r5, {r0, r1, r4}
 8005714:	e8bd4830 	pop	{r4, r5, fp, lr}
 8005718:	e12fff1e 	bx	lr
 800571c:	020010f1 	andeq	r1, r0, #241	@ 0xf1
 8005720:	e92d4800 	push	{fp, lr}
 8005724:	e1a0b00d 	mov	fp, sp
 8005728:	e3500000 	cmp	r0, #0
 800572c:	01a00002 	moveq	r0, r2
 8005730:	0b000001 	bleq	0x800573c
 8005734:	e1a00001 	mov	r0, r1
 8005738:	ebffff40 	bl	0x8005440
 800573c:	e92d4800 	push	{fp, lr}
 8005740:	e1a0b00d 	mov	fp, sp
 8005744:	e24dd018 	sub	sp, sp, #24
 8005748:	e3a02001 	mov	r2, #1
 800574c:	e1a01000 	mov	r1, r0
 8005750:	e3a00000 	mov	r0, #0
 8005754:	e58d2004 	str	r2, [sp, #4]
 8005758:	e59f2018 	ldr	r2, [pc, #24]	@ 0x8005778
 800575c:	e58d0010 	str	r0, [sp, #16]
 8005760:	e58d000c 	str	r0, [sp, #12]
 8005764:	e3a00004 	mov	r0, #4
 8005768:	e58d0008 	str	r0, [sp, #8]
 800576c:	e1a0000d 	mov	r0, sp
 8005770:	e58d2000 	str	r2, [sp]
 8005774:	eb000323 	bl	0x8006408
 8005778:	082fcef4 	stmdaeq	pc!, {r2, r4, r5, r6, r7, r9, sl, fp, lr, pc}	@ <UNPREDICTABLE>
 800577c:	e92d4830 	push	{r4, r5, fp, lr}
 8005780:	e28db008 	add	fp, sp, #8
 8005784:	e24dd018 	sub	sp, sp, #24
 8005788:	e1a04000 	mov	r4, r0
 800578c:	e0910002 	adds	r0, r1, r2
 8005790:	e3a00000 	mov	r0, #0
 8005794:	2a00001c 	bcs	0x800580c
 8005798:	e0825001 	add	r5, r2, r1
 800579c:	e5941000 	ldr	r1, [r4]
 80057a0:	e1550081 	cmp	r5, r1, lsl #1
 80057a4:	31a05081 	lslcc	r5, r1, #1
 80057a8:	e3550008 	cmp	r5, #8
 80057ac:	93a05008 	movls	r5, #8
 80057b0:	e3550000 	cmp	r5, #0
 80057b4:	4a000014 	bmi	0x800580c
 80057b8:	e3510000 	cmp	r1, #0
 80057bc:	e28d200c 	add	r2, sp, #12
 80057c0:	15940004 	ldrne	r0, [r4, #4]
 80057c4:	158d1014 	strne	r1, [sp, #20]
 80057c8:	e1a01005 	mov	r1, r5
 80057cc:	158d000c 	strne	r0, [sp, #12]
 80057d0:	13a00001 	movne	r0, #1
 80057d4:	e58d0010 	str	r0, [sp, #16]
 80057d8:	e1a0000d 	mov	r0, sp
 80057dc:	ebffffb2 	bl	0x80056ac
 80057e0:	e59d0000 	ldr	r0, [sp]
 80057e4:	e3500001 	cmp	r0, #1
 80057e8:	159d0004 	ldrne	r0, [sp, #4]
 80057ec:	15845000 	strne	r5, [r4]
 80057f0:	15840004 	strne	r0, [r4, #4]
 80057f4:	124bd008 	subne	sp, fp, #8
 80057f8:	18bd4830 	popne	{r4, r5, fp, lr}
 80057fc:	112fff1e 	bxne	lr
 8005800:	e99d0003 	ldmib	sp, {r0, r1}
 8005804:	e59f2008 	ldr	r2, [pc, #8]	@ 0x8005814
 8005808:	ebffffc4 	bl	0x8005720
 800580c:	e59f2000 	ldr	r2, [pc]	@ 0x8005814
 8005810:	ebffffc2 	bl	0x8005720
 8005814:	082fcf70 	stmdaeq	pc!, {r4, r5, r6, r8, r9, sl, fp, lr, pc}	@ <UNPREDICTABLE>
 8005818:	e92d4800 	push	{fp, lr}
 800581c:	e1a0b00d 	mov	fp, sp
 8005820:	e24dd028 	sub	sp, sp, #40	@ 0x28
 8005824:	e58d0004 	str	r0, [sp, #4]
 8005828:	e3a00000 	mov	r0, #0
 800582c:	e58d0018 	str	r0, [sp, #24]
 8005830:	e3a00002 	mov	r0, #2
 8005834:	e58d000c 	str	r0, [sp, #12]
 8005838:	e59f0028 	ldr	r0, [pc, #40]	@ 0x8005868
 800583c:	e58d0008 	str	r0, [sp, #8]
 8005840:	e3a00001 	mov	r0, #1
 8005844:	e58d0014 	str	r0, [sp, #20]
 8005848:	e24b0008 	sub	r0, fp, #8
 800584c:	e58d0010 	str	r0, [sp, #16]
 8005850:	e59f0014 	ldr	r0, [pc, #20]	@ 0x800586c
 8005854:	e50b0004 	str	r0, [fp, #-4]
 8005858:	e28d0004 	add	r0, sp, #4
 800585c:	e50b0008 	str	r0, [fp, #-8]
 8005860:	e28d0008 	add	r0, sp, #8
 8005864:	eb000454 	bl	0x80069bc
 8005868:	082fcfa4 	stmdaeq	pc!, {r2, r5, r7, r8, r9, sl, fp, lr, pc}	@ <UNPREDICTABLE>
 800586c:	0800ae8c 	stmdaeq	r0, {r2, r3, r7, r9, sl, fp, sp, pc}
 8005870:	e92d4ff0 	push	{r4, r5, r6, r7, r8, r9, sl, fp, lr}
 8005874:	e28db01c 	add	fp, sp, #28
 8005878:	e52d2004 	push	{r2}		@ (str r2, [sp, #-4]!)
 800587c:	e59b7020 	ldr	r7, [fp, #32]
 8005880:	e59bc018 	ldr	ip, [fp, #24]
 8005884:	e59b4024 	ldr	r4, [fp, #36]	@ 0x24
 8005888:	e59b801c 	ldr	r8, [fp, #28]
 800588c:	e057500c 	subs	r5, r7, ip
 8005890:	e0d45008 	sbcs	r5, r4, r8
 8005894:	2a000029 	bcs	0x8005940
 8005898:	e05c5007 	subs	r5, ip, r7
 800589c:	e0c86004 	sbc	r6, r8, r4
 80058a0:	e0575005 	subs	r5, r7, r5
 80058a4:	e0d46006 	sbcs	r6, r4, r6
 80058a8:	2a000024 	bcs	0x8005940
 80058ac:	e59b2014 	ldr	r2, [fp, #20]
 80058b0:	e59be010 	ldr	lr, [fp, #16]
 80058b4:	e1a05082 	lsl	r5, r2, #1
 80058b8:	e05c908e 	subs	r9, ip, lr, lsl #1
 80058bc:	e1855fae 	orr	r5, r5, lr, lsr #31
 80058c0:	e0c8a005 	sbc	sl, r8, r5
 80058c4:	e05c500e 	subs	r5, ip, lr
 80058c8:	e0c86002 	sbc	r6, r8, r2
 80058cc:	e05e5005 	subs	r5, lr, r5
 80058d0:	e0d25006 	sbcs	r5, r2, r6
 80058d4:	2a00000f 	bcs	0x8005918
 80058d8:	e1a05084 	lsl	r5, r4, #1
 80058dc:	e1a06087 	lsl	r6, r7, #1
 80058e0:	e1855fa7 	orr	r5, r5, r7, lsr #31
 80058e4:	e0596006 	subs	r6, r9, r6
 80058e8:	e0da5005 	sbcs	r5, sl, r5
 80058ec:	3a000009 	bcc	0x8005918
 80058f0:	e59d2000 	ldr	r2, [sp]
 80058f4:	e1530002 	cmp	r3, r2
 80058f8:	8a00005f 	bhi	0x8005a7c
 80058fc:	e59b2008 	ldr	r2, [fp, #8]
 8005900:	e1c020b8 	strh	r2, [r0, #8]
 8005904:	e5801000 	str	r1, [r0]
 8005908:	e5803004 	str	r3, [r0, #4]
 800590c:	e24bd01c 	sub	sp, fp, #28
 8005910:	e8bd4ff0 	pop	{r4, r5, r6, r7, r8, r9, sl, fp, lr}
 8005914:	e12fff1e 	bx	lr
 8005918:	e057500e 	subs	r5, r7, lr
 800591c:	e0d45002 	sbcs	r5, r4, r2
 8005920:	2a000006 	bcs	0x8005940
 8005924:	e05e7007 	subs	r7, lr, r7
 8005928:	e0c22004 	sbc	r2, r2, r4
 800592c:	e05c6007 	subs	r6, ip, r7
 8005930:	e0c85002 	sbc	r5, r8, r2
 8005934:	e0577006 	subs	r7, r7, r6
 8005938:	e0d22005 	sbcs	r2, r2, r5
 800593c:	2a000004 	bcs	0x8005954
 8005940:	e3a01000 	mov	r1, #0
 8005944:	e5801000 	str	r1, [r0]
 8005948:	e24bd01c 	sub	sp, fp, #28
 800594c:	e8bd4ff0 	pop	{r4, r5, r6, r7, r8, r9, sl, fp, lr}
 8005950:	e12fff1e 	bx	lr
 8005954:	e59d2000 	ldr	r2, [sp]
 8005958:	e1530002 	cmp	r3, r2
 800595c:	8a00004a 	bhi	0x8005a8c
 8005960:	e59b900c 	ldr	r9, [fp, #12]
 8005964:	e2416001 	sub	r6, r1, #1
 8005968:	e3e0c000 	mvn	ip, #0
 800596c:	e1a04003 	mov	r4, r3
 8005970:	e3540000 	cmp	r4, #0
 8005974:	0a000017 	beq	0x80059d8
 8005978:	e7d62004 	ldrb	r2, [r6, r4]
 800597c:	e1a07004 	mov	r7, r4
 8005980:	e28cc001 	add	ip, ip, #1
 8005984:	e2444001 	sub	r4, r4, #1
 8005988:	e3520039 	cmp	r2, #57	@ 0x39
 800598c:	0afffff7 	beq	0x8005970
 8005990:	e7d12004 	ldrb	r2, [r1, r4]
 8005994:	e1570003 	cmp	r7, r3
 8005998:	e2822001 	add	r2, r2, #1
 800599c:	e7c12004 	strb	r2, [r1, r4]
 80059a0:	2a000020 	bcs	0x8005a28
 80059a4:	e081e007 	add	lr, r1, r7
 80059a8:	e1a08000 	mov	r8, r0
 80059ac:	e1a04001 	mov	r4, r1
 80059b0:	e1a0100c 	mov	r1, ip
 80059b4:	e3a02030 	mov	r2, #48	@ 0x30
 80059b8:	e1a07003 	mov	r7, r3
 80059bc:	e1a0000e 	mov	r0, lr
 80059c0:	eb003064 	bl	0x8011b58
 80059c4:	e1a03007 	mov	r3, r7
 80059c8:	e59b7008 	ldr	r7, [fp, #8]
 80059cc:	e1a01004 	mov	r1, r4
 80059d0:	e1a00008 	mov	r0, r8
 80059d4:	ea000023 	b	0x8005a68
 80059d8:	e3530000 	cmp	r3, #0
 80059dc:	0a000013 	beq	0x8005a30
 80059e0:	e59b5008 	ldr	r5, [fp, #8]
 80059e4:	e3a02031 	mov	r2, #49	@ 0x31
 80059e8:	e253c001 	subs	ip, r3, #1
 80059ec:	e5c12000 	strb	r2, [r1]
 80059f0:	0a000011 	beq	0x8005a3c
 80059f4:	e281e001 	add	lr, r1, #1
 80059f8:	e1a0a000 	mov	sl, r0
 80059fc:	e1a08001 	mov	r8, r1
 8005a00:	e1a0100c 	mov	r1, ip
 8005a04:	e3a02030 	mov	r2, #48	@ 0x30
 8005a08:	e3a04030 	mov	r4, #48	@ 0x30
 8005a0c:	e1a06003 	mov	r6, r3
 8005a10:	e1a0000e 	mov	r0, lr
 8005a14:	eb00304f 	bl	0x8011b58
 8005a18:	e1a01008 	mov	r1, r8
 8005a1c:	e1a0000a 	mov	r0, sl
 8005a20:	e1a03006 	mov	r3, r6
 8005a24:	ea000005 	b	0x8005a40
 8005a28:	e59b7008 	ldr	r7, [fp, #8]
 8005a2c:	ea00000d 	b	0x8005a68
 8005a30:	e59b5008 	ldr	r5, [fp, #8]
 8005a34:	e3a04031 	mov	r4, #49	@ 0x31
 8005a38:	ea000000 	b	0x8005a40
 8005a3c:	e3a04030 	mov	r4, #48	@ 0x30
 8005a40:	e2852001 	add	r2, r5, #1
 8005a44:	e1a02802 	lsl	r2, r2, #16
 8005a48:	e1a07842 	asr	r7, r2, #16
 8005a4c:	e59d2000 	ldr	r2, [sp]
 8005a50:	e1530002 	cmp	r3, r2
 8005a54:	2a000003 	bcs	0x8005a68
 8005a58:	e1a02809 	lsl	r2, r9, #16
 8005a5c:	e1570842 	cmp	r7, r2, asr #16
 8005a60:	c7c14003 	strbgt	r4, [r1, r3]
 8005a64:	c2833001 	addgt	r3, r3, #1
 8005a68:	e59d2000 	ldr	r2, [sp]
 8005a6c:	e1530002 	cmp	r3, r2
 8005a70:	8a000009 	bhi	0x8005a9c
 8005a74:	e1c070b8 	strh	r7, [r0, #8]
 8005a78:	eaffffa1 	b	0x8005904
 8005a7c:	e59f2028 	ldr	r2, [pc, #40]	@ 0x8005aac
 8005a80:	e59d1000 	ldr	r1, [sp]
 8005a84:	e1a00003 	mov	r0, r3
 8005a88:	eb00000a 	bl	0x8005ab8
 8005a8c:	e59f2020 	ldr	r2, [pc, #32]	@ 0x8005ab4
 8005a90:	e59d1000 	ldr	r1, [sp]
 8005a94:	e1a00003 	mov	r0, r3
 8005a98:	eb000006 	bl	0x8005ab8
 8005a9c:	e59f200c 	ldr	r2, [pc, #12]	@ 0x8005ab0
 8005aa0:	e59d1000 	ldr	r1, [sp]
 8005aa4:	e1a00003 	mov	r0, r3
 8005aa8:	eb000002 	bl	0x8005ab8
 8005aac:	082fd768 	stmdaeq	pc!, {r3, r5, r6, r8, r9, sl, ip, lr, pc}	@ <UNPREDICTABLE>
 8005ab0:	082fd758 	stmdaeq	pc!, {r3, r4, r6, r8, r9, sl, ip, lr, pc}	@ <UNPREDICTABLE>
 8005ab4:	082fd748 	stmdaeq	pc!, {r3, r6, r8, r9, sl, ip, lr, pc}	@ <UNPREDICTABLE>
 8005ab8:	e92d4800 	push	{fp, lr}
 8005abc:	e1a0b00d 	mov	fp, sp
 8005ac0:	ebffffff 	bl	0x8005ac4
 8005ac4:	e92d4800 	push	{fp, lr}
 8005ac8:	e1a0b00d 	mov	fp, sp
 8005acc:	e24dd030 	sub	sp, sp, #48	@ 0x30
 8005ad0:	e88d0003 	stm	sp, {r0, r1}
 8005ad4:	e3a00000 	mov	r0, #0
 8005ad8:	e59f1040 	ldr	r1, [pc, #64]	@ 0x8005b20
 8005adc:	e58d0018 	str	r0, [sp, #24]
 8005ae0:	e3a00002 	mov	r0, #2
 8005ae4:	e58d000c 	str	r0, [sp, #12]
 8005ae8:	e58d0014 	str	r0, [sp, #20]
 8005aec:	e24b0010 	sub	r0, fp, #16
 8005af0:	e58d0010 	str	r0, [sp, #16]
 8005af4:	e59f0028 	ldr	r0, [pc, #40]	@ 0x8005b24
 8005af8:	e58d1008 	str	r1, [sp, #8]
 8005afc:	e28d1004 	add	r1, sp, #4
 8005b00:	e50b1008 	str	r1, [fp, #-8]
 8005b04:	e1a01002 	mov	r1, r2
 8005b08:	e50b0004 	str	r0, [fp, #-4]
 8005b0c:	e50b000c 	str	r0, [fp, #-12]
 8005b10:	e1a0000d 	mov	r0, sp
 8005b14:	e50b0010 	str	r0, [fp, #-16]
 8005b18:	e28d0008 	add	r0, sp, #8
 8005b1c:	eb000239 	bl	0x8006408
 8005b20:	082fd874 	stmdaeq	pc!, {r2, r4, r5, r6, fp, ip, lr, pc}	@ <UNPREDICTABLE>
 8005b24:	0800ae8c 	stmdaeq	r0, {r2, r3, r7, r9, sl, fp, sp, pc}
 8005b28:	e92d4800 	push	{fp, lr}
 8005b2c:	e1a0b00d 	mov	fp, sp
 8005b30:	ebffffff 	bl	0x8005b34
 8005b34:	e92d4800 	push	{fp, lr}
 8005b38:	e1a0b00d 	mov	fp, sp
 8005b3c:	e24dd030 	sub	sp, sp, #48	@ 0x30
 8005b40:	e88d0003 	stm	sp, {r0, r1}
 8005b44:	e3a00000 	mov	r0, #0
 8005b48:	e59f1040 	ldr	r1, [pc, #64]	@ 0x8005b90
 8005b4c:	e58d0018 	str	r0, [sp, #24]
 8005b50:	e3a00002 	mov	r0, #2
 8005b54:	e58d000c 	str	r0, [sp, #12]
 8005b58:	e58d0014 	str	r0, [sp, #20]
 8005b5c:	e24b0010 	sub	r0, fp, #16
 8005b60:	e58d0010 	str	r0, [sp, #16]
 8005b64:	e59f0028 	ldr	r0, [pc, #40]	@ 0x8005b94
 8005b68:	e58d1008 	str	r1, [sp, #8]
 8005b6c:	e28d1004 	add	r1, sp, #4
 8005b70:	e50b1008 	str	r1, [fp, #-8]
 8005b74:	e1a01002 	mov	r1, r2
 8005b78:	e50b0004 	str	r0, [fp, #-4]
 8005b7c:	e50b000c 	str	r0, [fp, #-12]
 8005b80:	e1a0000d 	mov	r0, sp
 8005b84:	e50b0010 	str	r0, [fp, #-16]
 8005b88:	e28d0008 	add	r0, sp, #8
 8005b8c:	eb00021d 	bl	0x8006408
 8005b90:	082fd8a8 	stmdaeq	pc!, {r3, r5, r7, fp, ip, lr, pc}	@ <UNPREDICTABLE>
 8005b94:	0800ae8c 	stmdaeq	r0, {r2, r3, r7, r9, sl, fp, sp, pc}
 8005b98:	e92d4ff0 	push	{r4, r5, r6, r7, r8, r9, sl, fp, lr}
 8005b9c:	e28db01c 	add	fp, sp, #28
 8005ba0:	e24dd004 	sub	sp, sp, #4
 8005ba4:	e3510c05 	cmp	r1, #1280	@ 0x500
 8005ba8:	2a000049 	bcs	0x8005cd4
 8005bac:	e59020a0 	ldr	r2, [r0, #160]	@ 0xa0
 8005bb0:	e1a09001 	mov	r9, r1
 8005bb4:	e1a082a1 	lsr	r8, r1, #5
 8005bb8:	e3520000 	cmp	r2, #0
 8005bbc:	0a00000e 	beq	0x8005bfc
 8005bc0:	e2407004 	sub	r7, r0, #4
 8005bc4:	e2486001 	sub	r6, r8, #1
 8005bc8:	e1a01002 	mov	r1, r2
 8005bcc:	e0875108 	add	r5, r7, r8, lsl #2
 8005bd0:	e2414001 	sub	r4, r1, #1
 8005bd4:	e3520029 	cmp	r2, #41	@ 0x29
 8005bd8:	2a000045 	bcs	0x8005cf4
 8005bdc:	e0863001 	add	r3, r6, r1
 8005be0:	e3530028 	cmp	r3, #40	@ 0x28
 8005be4:	2a00003e 	bcs	0x8005ce4
 8005be8:	e7973101 	ldr	r3, [r7, r1, lsl #2]
 8005bec:	e3540000 	cmp	r4, #0
 8005bf0:	e7853101 	str	r3, [r5, r1, lsl #2]
 8005bf4:	e1a01004 	mov	r1, r4
 8005bf8:	1afffff4 	bne	0x8005bd0
 8005bfc:	e209a01f 	and	sl, r9, #31
 8005c00:	e3590020 	cmp	r9, #32
 8005c04:	3a000003 	bcc	0x8005c18
 8005c08:	e1a01108 	lsl	r1, r8, #2
 8005c0c:	e1a05000 	mov	r5, r0
 8005c10:	eb002fcc 	bl	0x8011b48
 8005c14:	e1a00005 	mov	r0, r5
 8005c18:	e59010a0 	ldr	r1, [r0, #160]	@ 0xa0
 8005c1c:	e35a0000 	cmp	sl, #0
 8005c20:	e0811008 	add	r1, r1, r8
 8005c24:	0a000025 	beq	0x8005cc0
 8005c28:	e2413001 	sub	r3, r1, #1
 8005c2c:	e3530027 	cmp	r3, #39	@ 0x27
 8005c30:	8a00002b 	bhi	0x8005ce4
 8005c34:	e7904103 	ldr	r4, [r0, r3, lsl #2]
 8005c38:	e2692000 	rsb	r2, r9, #0
 8005c3c:	e1a0c001 	mov	ip, r1
 8005c40:	e202e01f 	and	lr, r2, #31
 8005c44:	e1b03e34 	lsrs	r3, r4, lr
 8005c48:	0a000003 	beq	0x8005c5c
 8005c4c:	e3510027 	cmp	r1, #39	@ 0x27
 8005c50:	8a00002f 	bhi	0x8005d14
 8005c54:	e7803101 	str	r3, [r0, r1, lsl #2]
 8005c58:	e281c001 	add	ip, r1, #1
 8005c5c:	e2882001 	add	r2, r8, #1
 8005c60:	e1520001 	cmp	r2, r1
 8005c64:	2a00000e 	bcs	0x8005ca4
 8005c68:	e0803101 	add	r3, r0, r1, lsl #2
 8005c6c:	e2437004 	sub	r7, r3, #4
 8005c70:	e2416002 	sub	r6, r1, #2
 8005c74:	e3560028 	cmp	r6, #40	@ 0x28
 8005c78:	2a000021 	bcs	0x8005d04
 8005c7c:	e1a03007 	mov	r3, r7
 8005c80:	e2411001 	sub	r1, r1, #1
 8005c84:	e5335004 	ldr	r5, [r3, #-4]!
 8005c88:	e1520001 	cmp	r2, r1
 8005c8c:	e1a06e35 	lsr	r6, r5, lr
 8005c90:	e1864a14 	orr	r4, r6, r4, lsl sl
 8005c94:	e5874000 	str	r4, [r7]
 8005c98:	e1a07003 	mov	r7, r3
 8005c9c:	e1a04005 	mov	r4, r5
 8005ca0:	3afffff2 	bcc	0x8005c70
 8005ca4:	e7901108 	ldr	r1, [r0, r8, lsl #2]
 8005ca8:	e1a01a11 	lsl	r1, r1, sl
 8005cac:	e7801108 	str	r1, [r0, r8, lsl #2]
 8005cb0:	e580c0a0 	str	ip, [r0, #160]	@ 0xa0
 8005cb4:	e24bd01c 	sub	sp, fp, #28
 8005cb8:	e8bd4ff0 	pop	{r4, r5, r6, r7, r8, r9, sl, fp, lr}
 8005cbc:	e12fff1e 	bx	lr
 8005cc0:	e1a0c001 	mov	ip, r1
 8005cc4:	e580c0a0 	str	ip, [r0, #160]	@ 0xa0
 8005cc8:	e24bd01c 	sub	sp, fp, #28
 8005ccc:	e8bd4ff0 	pop	{r4, r5, r6, r7, r8, r9, sl, fp, lr}
 8005cd0:	e12fff1e 	bx	lr
 8005cd4:	e59f0048 	ldr	r0, [pc, #72]	@ 0x8005d24
 8005cd8:	e59f2048 	ldr	r2, [pc, #72]	@ 0x8005d28
 8005cdc:	e3a0101d 	mov	r1, #29
 8005ce0:	eb000344 	bl	0x80069f8
 8005ce4:	e59f203c 	ldr	r2, [pc, #60]	@ 0x8005d28
 8005ce8:	e1a00003 	mov	r0, r3
 8005cec:	e3a01028 	mov	r1, #40	@ 0x28
 8005cf0:	eb000355 	bl	0x8006a4c
 8005cf4:	e59f202c 	ldr	r2, [pc, #44]	@ 0x8005d28
 8005cf8:	e1a00004 	mov	r0, r4
 8005cfc:	e3a01028 	mov	r1, #40	@ 0x28
 8005d00:	eb000351 	bl	0x8006a4c
 8005d04:	e59f201c 	ldr	r2, [pc, #28]	@ 0x8005d28
 8005d08:	e3e00000 	mvn	r0, #0
 8005d0c:	e3a01028 	mov	r1, #40	@ 0x28
 8005d10:	eb00034d 	bl	0x8006a4c
 8005d14:	e59f200c 	ldr	r2, [pc, #12]	@ 0x8005d28
 8005d18:	e1a00001 	mov	r0, r1
 8005d1c:	e3a01028 	mov	r1, #40	@ 0x28
 8005d20:	eb000349 	bl	0x8006a4c
 8005d24:	082fd81a 	stmdaeq	pc!, {r1, r3, r4, fp, ip, lr, pc}	@ <UNPREDICTABLE>
 8005d28:	082fd7f0 	stmdaeq	pc!, {r4, r5, r6, r7, r8, r9, sl, ip, lr, pc}	@ <UNPREDICTABLE>
 8005d2c:	e92d4ff0 	push	{r4, r5, r6, r7, r8, r9, sl, fp, lr}
 8005d30:	e28db01c 	add	fp, sp, #28
 8005d34:	e24dd0bc 	sub	sp, sp, #188	@ 0xbc
 8005d38:	e28d601c 	add	r6, sp, #28
 8005d3c:	e1a09001 	mov	r9, r1
 8005d40:	e1a05000 	mov	r5, r0
 8005d44:	e3a010a0 	mov	r1, #160	@ 0xa0
 8005d48:	e1a08002 	mov	r8, r2
 8005d4c:	e1a00006 	mov	r0, r6
 8005d50:	eb002f7c 	bl	0x8011b48
 8005d54:	e59500a0 	ldr	r0, [r5, #160]	@ 0xa0
 8005d58:	e58d5018 	str	r5, [sp, #24]
 8005d5c:	e1500008 	cmp	r0, r8
 8005d60:	2a000033 	bcs	0x8005e34
 8005d64:	e3500029 	cmp	r0, #41	@ 0x29
 8005d68:	2a000069 	bcs	0x8005f14
 8005d6c:	e2882001 	add	r2, r8, #1
 8005d70:	e0850100 	add	r0, r5, r0, lsl #2
 8005d74:	e1a01108 	lsl	r1, r8, #2
 8005d78:	e3a07000 	mov	r7, #0
 8005d7c:	e1a04005 	mov	r4, r5
 8005d80:	e3a0a000 	mov	sl, #0
 8005d84:	e58d2004 	str	r2, [sp, #4]
 8005d88:	e1540000 	cmp	r4, r0
 8005d8c:	0a000057 	beq	0x8005ef0
 8005d90:	e494e004 	ldr	lr, [r4], #4
 8005d94:	e1a02007 	mov	r2, r7
 8005d98:	e2877001 	add	r7, r7, #1
 8005d9c:	e35e0000 	cmp	lr, #0
 8005da0:	0afffff8 	beq	0x8005d88
 8005da4:	e28d300c 	add	r3, sp, #12
 8005da8:	e3a0c000 	mov	ip, #0
 8005dac:	e1a05009 	mov	r5, r9
 8005db0:	e58d1008 	str	r1, [sp, #8]
 8005db4:	e8830501 	stm	r3, {r0, r8, sl}
 8005db8:	e1a08001 	mov	r8, r1
 8005dbc:	e1a00002 	mov	r0, r2
 8005dc0:	e3500028 	cmp	r0, #40	@ 0x28
 8005dc4:	2a000055 	bcs	0x8005f20
 8005dc8:	e796a100 	ldr	sl, [r6, r0, lsl #2]
 8005dcc:	e3a01000 	mov	r1, #0
 8005dd0:	e09a300c 	adds	r3, sl, ip
 8005dd4:	e2a1c000 	adc	ip, r1, #0
 8005dd8:	e4951004 	ldr	r1, [r5], #4
 8005ddc:	e2588004 	subs	r8, r8, #4
 8005de0:	e0ac3e91 	umlal	r3, ip, r1, lr
 8005de4:	e7863100 	str	r3, [r6, r0, lsl #2]
 8005de8:	e2800001 	add	r0, r0, #1
 8005dec:	1afffff3 	bne	0x8005dc0
 8005df0:	e59d8010 	ldr	r8, [sp, #16]
 8005df4:	e59d5018 	ldr	r5, [sp, #24]
 8005df8:	e59da014 	ldr	sl, [sp, #20]
 8005dfc:	e35c0000 	cmp	ip, #0
 8005e00:	e1a00008 	mov	r0, r8
 8005e04:	0a000004 	beq	0x8005e1c
 8005e08:	e0820008 	add	r0, r2, r8
 8005e0c:	e3500028 	cmp	r0, #40	@ 0x28
 8005e10:	2a000042 	bcs	0x8005f20
 8005e14:	e786c100 	str	ip, [r6, r0, lsl #2]
 8005e18:	e59d0004 	ldr	r0, [sp, #4]
 8005e1c:	e0800002 	add	r0, r0, r2
 8005e20:	e59d1008 	ldr	r1, [sp, #8]
 8005e24:	e15a0000 	cmp	sl, r0
 8005e28:	91a0a000 	movls	sl, r0
 8005e2c:	e59d000c 	ldr	r0, [sp, #12]
 8005e30:	eaffffd4 	b	0x8005d88
 8005e34:	e3500029 	cmp	r0, #41	@ 0x29
 8005e38:	2a000035 	bcs	0x8005f14
 8005e3c:	e2801001 	add	r1, r0, #1
 8005e40:	e0898108 	add	r8, r9, r8, lsl #2
 8005e44:	e1a0e100 	lsl	lr, r0, #2
 8005e48:	e3a03000 	mov	r3, #0
 8005e4c:	e3a0a000 	mov	sl, #0
 8005e50:	e58d100c 	str	r1, [sp, #12]
 8005e54:	e1590008 	cmp	r9, r8
 8005e58:	0a000024 	beq	0x8005ef0
 8005e5c:	e499c004 	ldr	ip, [r9], #4
 8005e60:	e1a04003 	mov	r4, r3
 8005e64:	e2833001 	add	r3, r3, #1
 8005e68:	e35c0000 	cmp	ip, #0
 8005e6c:	0afffff8 	beq	0x8005e54
 8005e70:	e3a07000 	mov	r7, #0
 8005e74:	e1a01004 	mov	r1, r4
 8005e78:	e1a02005 	mov	r2, r5
 8005e7c:	e58da014 	str	sl, [sp, #20]
 8005e80:	e58de010 	str	lr, [sp, #16]
 8005e84:	e3510028 	cmp	r1, #40	@ 0x28
 8005e88:	2a000027 	bcs	0x8005f2c
 8005e8c:	e7965101 	ldr	r5, [r6, r1, lsl #2]
 8005e90:	e492a004 	ldr	sl, [r2], #4
 8005e94:	e0955007 	adds	r5, r5, r7
 8005e98:	e3a07000 	mov	r7, #0
 8005e9c:	e2a77000 	adc	r7, r7, #0
 8005ea0:	e25ee004 	subs	lr, lr, #4
 8005ea4:	e0a75c9a 	umlal	r5, r7, sl, ip
 8005ea8:	e7865101 	str	r5, [r6, r1, lsl #2]
 8005eac:	e2811001 	add	r1, r1, #1
 8005eb0:	1afffff3 	bne	0x8005e84
 8005eb4:	e59da014 	ldr	sl, [sp, #20]
 8005eb8:	e3570000 	cmp	r7, #0
 8005ebc:	e1a01000 	mov	r1, r0
 8005ec0:	0a000004 	beq	0x8005ed8
 8005ec4:	e0841000 	add	r1, r4, r0
 8005ec8:	e3510028 	cmp	r1, #40	@ 0x28
 8005ecc:	2a000016 	bcs	0x8005f2c
 8005ed0:	e7867101 	str	r7, [r6, r1, lsl #2]
 8005ed4:	e59d100c 	ldr	r1, [sp, #12]
 8005ed8:	e59d5018 	ldr	r5, [sp, #24]
 8005edc:	e59de010 	ldr	lr, [sp, #16]
 8005ee0:	e0811004 	add	r1, r1, r4
 8005ee4:	e15a0001 	cmp	sl, r1
 8005ee8:	91a0a001 	movls	sl, r1
 8005eec:	eaffffd8 	b	0x8005e54
 8005ef0:	e28d101c 	add	r1, sp, #28
 8005ef4:	e1a00005 	mov	r0, r5
 8005ef8:	e3a020a0 	mov	r2, #160	@ 0xa0
 8005efc:	eb002f17 	bl	0x8011b60
 8005f00:	e585a0a0 	str	sl, [r5, #160]	@ 0xa0
 8005f04:	e1a00005 	mov	r0, r5
 8005f08:	e24bd01c 	sub	sp, fp, #28
 8005f0c:	e8bd4ff0 	pop	{r4, r5, r6, r7, r8, r9, sl, fp, lr}
 8005f10:	e12fff1e 	bx	lr
 8005f14:	e59f2020 	ldr	r2, [pc, #32]	@ 0x8005f3c
 8005f18:	e3a01028 	mov	r1, #40	@ 0x28
 8005f1c:	ebfffee5 	bl	0x8005ab8
 8005f20:	e59f2014 	ldr	r2, [pc, #20]	@ 0x8005f3c
 8005f24:	e3a01028 	mov	r1, #40	@ 0x28
 8005f28:	eb0002c7 	bl	0x8006a4c
 8005f2c:	e59f2008 	ldr	r2, [pc, #8]	@ 0x8005f3c
 8005f30:	e1a00001 	mov	r0, r1
 8005f34:	e3a01028 	mov	r1, #40	@ 0x28
 8005f38:	eb0002c3 	bl	0x8006a4c
 8005f3c:	082fd7f0 	stmdaeq	pc!, {r4, r5, r6, r7, r8, r9, sl, ip, lr, pc}	@ <UNPREDICTABLE>
 8005f40:	e92d4ff0 	push	{r4, r5, r6, r7, r8, r9, sl, fp, lr}
 8005f44:	e28db01c 	add	fp, sp, #28
 8005f48:	e24dd01c 	sub	sp, sp, #28
 8005f4c:	e590c000 	ldr	ip, [r0]
 8005f50:	e1a08001 	mov	r8, r1
 8005f54:	e5901008 	ldr	r1, [r0, #8]
 8005f58:	e35c0000 	cmp	ip, #0
 8005f5c:	03110001 	tsteq	r1, #1
 8005f60:	0a000009 	beq	0x8005f8c
 8005f64:	e3110001 	tst	r1, #1
 8005f68:	0a000030 	beq	0x8006030
 8005f6c:	e590700c 	ldr	r7, [r0, #12]
 8005f70:	e088e002 	add	lr, r8, r2
 8005f74:	e3a05000 	mov	r5, #0
 8005f78:	e3570000 	cmp	r7, #0
 8005f7c:	0a000018 	beq	0x8005fe4
 8005f80:	e3a06000 	mov	r6, #0
 8005f84:	e1a01008 	mov	r1, r8
 8005f88:	ea00000a 	b	0x8005fb8
 8005f8c:	e590101c 	ldr	r1, [r0, #28]
 8005f90:	e5900020 	ldr	r0, [r0, #32]
 8005f94:	ea000100 	b	0x800639c
 8005f98:	e35100f0 	cmp	r1, #240	@ 0xf0
 8005f9c:	22841004 	addcs	r1, r4, #4
 8005fa0:	32841003 	addcc	r1, r4, #3
 8005fa4:	e2866001 	add	r6, r6, #1
 8005fa8:	e0413004 	sub	r3, r1, r4
 8005fac:	e0835005 	add	r5, r3, r5
 8005fb0:	e1570006 	cmp	r7, r6
 8005fb4:	0a00000b 	beq	0x8005fe8
 8005fb8:	e151000e 	cmp	r1, lr
 8005fbc:	0a00001b 	beq	0x8006030
 8005fc0:	e1a04001 	mov	r4, r1
 8005fc4:	e0d130d1 	ldrsb	r3, [r1], #1
 8005fc8:	e3730001 	cmn	r3, #1
 8005fcc:	cafffff4 	bgt	0x8005fa4
 8005fd0:	e20310ff 	and	r1, r3, #255	@ 0xff
 8005fd4:	e35100e0 	cmp	r1, #224	@ 0xe0
 8005fd8:	2affffee 	bcs	0x8005f98
 8005fdc:	e2841002 	add	r1, r4, #2
 8005fe0:	eaffffef 	b	0x8005fa4
 8005fe4:	e1a01008 	mov	r1, r8
 8005fe8:	e151000e 	cmp	r1, lr
 8005fec:	0a00000f 	beq	0x8006030
 8005ff0:	e1d110d0 	ldrsb	r1, [r1]
 8005ff4:	e3710001 	cmn	r1, #1
 8005ff8:	ca000001 	bgt	0x8006004
 8005ffc:	e20110ff 	and	r1, r1, #255	@ 0xff
 8006000:	e35100e0 	cmp	r1, #224	@ 0xe0
 8006004:	e3550000 	cmp	r5, #0
 8006008:	0a000006 	beq	0x8006028
 800600c:	e1550002 	cmp	r5, r2
 8006010:	2a0000d7 	bcs	0x8006374
 8006014:	e0881005 	add	r1, r8, r5
 8006018:	e1d130d0 	ldrsb	r3, [r1]
 800601c:	e3a01000 	mov	r1, #0
 8006020:	e3730040 	cmn	r3, #64	@ 0x40
 8006024:	ba0000d4 	blt	0x800637c
 8006028:	e1a01008 	mov	r1, r8
 800602c:	ea0000d2 	b	0x800637c
 8006030:	e1a05002 	mov	r5, r2
 8006034:	e35c0000 	cmp	ip, #0
 8006038:	0a0000d4 	beq	0x8006390
 800603c:	e5902004 	ldr	r2, [r0, #4]
 8006040:	e3550010 	cmp	r5, #16
 8006044:	e58d800c 	str	r8, [sp, #12]
 8006048:	e58d5008 	str	r5, [sp, #8]
 800604c:	e58d0010 	str	r0, [sp, #16]
 8006050:	2a000016 	bcs	0x80060b0
 8006054:	e3a08000 	mov	r8, #0
 8006058:	e3550000 	cmp	r5, #0
 800605c:	0a000005 	beq	0x8006078
 8006060:	e59d100c 	ldr	r1, [sp, #12]
 8006064:	e0d100d1 	ldrsb	r0, [r1], #1
 8006068:	e3700041 	cmn	r0, #65	@ 0x41
 800606c:	c2888001 	addgt	r8, r8, #1
 8006070:	e2555001 	subs	r5, r5, #1
 8006074:	1afffffa 	bne	0x8006064
 8006078:	e1520008 	cmp	r2, r8
 800607c:	9a00006b 	bls	0x8006230
 8006080:	e59d0010 	ldr	r0, [sp, #16]
 8006084:	e0422008 	sub	r2, r2, r8
 8006088:	e5d00018 	ldrb	r0, [r0, #24]
 800608c:	e2501003 	subs	r1, r0, #3
 8006090:	11a01000 	movne	r1, r0
 8006094:	e3510000 	cmp	r1, #0
 8006098:	0a000091 	beq	0x80062e4
 800609c:	e3510001 	cmp	r1, #1
 80060a0:	1a000091 	bne	0x80062ec
 80060a4:	e3a09000 	mov	r9, #0
 80060a8:	e1a01002 	mov	r1, r2
 80060ac:	ea000091 	b	0x80062f8
 80060b0:	e2881003 	add	r1, r8, #3
 80060b4:	e58d2004 	str	r2, [sp, #4]
 80060b8:	e3a07000 	mov	r7, #0
 80060bc:	e3a02000 	mov	r2, #0
 80060c0:	e3c14003 	bic	r4, r1, #3
 80060c4:	e0586004 	subs	r6, r8, r4
 80060c8:	e085c006 	add	ip, r5, r6
 80060cc:	e20ce003 	and	lr, ip, #3
 80060d0:	0a000005 	beq	0x80060ec
 80060d4:	e1a01008 	mov	r1, r8
 80060d8:	e0d130d1 	ldrsb	r3, [r1], #1
 80060dc:	e3730041 	cmn	r3, #65	@ 0x41
 80060e0:	c2822001 	addgt	r2, r2, #1
 80060e4:	e2966001 	adds	r6, r6, #1
 80060e8:	3afffffa 	bcc	0x80060d8
 80060ec:	e35e0000 	cmp	lr, #0
 80060f0:	0a00000f 	beq	0x8006134
 80060f4:	e3cc1003 	bic	r1, ip, #3
 80060f8:	e3a07000 	mov	r7, #0
 80060fc:	e0841001 	add	r1, r4, r1
 8006100:	e1d130d0 	ldrsb	r3, [r1]
 8006104:	e3730041 	cmn	r3, #65	@ 0x41
 8006108:	c3a07001 	movgt	r7, #1
 800610c:	e35e0001 	cmp	lr, #1
 8006110:	0a000007 	beq	0x8006134
 8006114:	e1d130d1 	ldrsb	r3, [r1, #1]
 8006118:	e3730041 	cmn	r3, #65	@ 0x41
 800611c:	c2877001 	addgt	r7, r7, #1
 8006120:	e35e0002 	cmp	lr, #2
 8006124:	0a000002 	beq	0x8006134
 8006128:	e1d110d2 	ldrsb	r1, [r1, #2]
 800612c:	e3710041 	cmn	r1, #65	@ 0x41
 8006130:	c2877001 	addgt	r7, r7, #1
 8006134:	e59f62c8 	ldr	r6, [pc, #712]	@ 0x8006404
 8006138:	e1a0312c 	lsr	r3, ip, #2
 800613c:	e0878002 	add	r8, r7, r2
 8006140:	ea00000d 	b	0x800617c
 8006144:	e3a010ff 	mov	r1, #255	@ 0xff
 8006148:	e59d5018 	ldr	r5, [sp, #24]
 800614c:	e3a02001 	mov	r2, #1
 8006150:	e0433007 	sub	r3, r3, r7
 8006154:	e38118ff 	orr	r1, r1, #16711680	@ 0xff0000
 8006158:	e3822801 	orr	r2, r2, #65536	@ 0x10000
 800615c:	e00c0001 	and	r0, ip, r1
 8006160:	e001142c 	and	r1, r1, ip, lsr #8
 8006164:	e0810000 	add	r0, r1, r0
 8006168:	e0010290 	mul	r1, r0, r2
 800616c:	e0854107 	add	r4, r5, r7, lsl #2
 8006170:	e2177003 	ands	r7, r7, #3
 8006174:	e0888821 	add	r8, r8, r1, lsr #16
 8006178:	1a000036 	bne	0x8006258
 800617c:	e3530000 	cmp	r3, #0
 8006180:	0a000027 	beq	0x8006224
 8006184:	e35300c0 	cmp	r3, #192	@ 0xc0
 8006188:	e1a07003 	mov	r7, r3
 800618c:	e3a0c000 	mov	ip, #0
 8006190:	e58d4018 	str	r4, [sp, #24]
 8006194:	23a070c0 	movcs	r7, #192	@ 0xc0
 8006198:	e3530004 	cmp	r3, #4
 800619c:	e20700fc 	and	r0, r7, #252	@ 0xfc
 80061a0:	e58d0014 	str	r0, [sp, #20]
 80061a4:	3affffe6 	bcc	0x8006144
 80061a8:	e59d1018 	ldr	r1, [sp, #24]
 80061ac:	e59d0014 	ldr	r0, [sp, #20]
 80061b0:	e0814100 	add	r4, r1, r0, lsl #2
 80061b4:	e591e000 	ldr	lr, [r1]
 80061b8:	e5919004 	ldr	r9, [r1, #4]
 80061bc:	e5910008 	ldr	r0, [r1, #8]
 80061c0:	e591a00c 	ldr	sl, [r1, #12]
 80061c4:	e2811010 	add	r1, r1, #16
 80061c8:	e1510004 	cmp	r1, r4
 80061cc:	e1e0200e 	mvn	r2, lr
 80061d0:	e1e05009 	mvn	r5, r9
 80061d4:	e1a023a2 	lsr	r2, r2, #7
 80061d8:	e1a053a5 	lsr	r5, r5, #7
 80061dc:	e182232e 	orr	r2, r2, lr, lsr #6
 80061e0:	e1855329 	orr	r5, r5, r9, lsr #6
 80061e4:	e0022006 	and	r2, r2, r6
 80061e8:	e0055006 	and	r5, r5, r6
 80061ec:	e082200c 	add	r2, r2, ip
 80061f0:	e0852002 	add	r2, r5, r2
 80061f4:	e1e05000 	mvn	r5, r0
 80061f8:	e1a053a5 	lsr	r5, r5, #7
 80061fc:	e1850320 	orr	r0, r5, r0, lsr #6
 8006200:	e0000006 	and	r0, r0, r6
 8006204:	e0800002 	add	r0, r0, r2
 8006208:	e1e0200a 	mvn	r2, sl
 800620c:	e1a023a2 	lsr	r2, r2, #7
 8006210:	e182232a 	orr	r2, r2, sl, lsr #6
 8006214:	e0022006 	and	r2, r2, r6
 8006218:	e082c000 	add	ip, r2, r0
 800621c:	1affffe4 	bne	0x80061b4
 8006220:	eaffffc7 	b	0x8006144
 8006224:	e59d2004 	ldr	r2, [sp, #4]
 8006228:	e1520008 	cmp	r2, r8
 800622c:	8affff93 	bhi	0x8006080
 8006230:	e59d0010 	ldr	r0, [sp, #16]
 8006234:	e59d2008 	ldr	r2, [sp, #8]
 8006238:	e590101c 	ldr	r1, [r0, #28]
 800623c:	e5900020 	ldr	r0, [r0, #32]
 8006240:	e590300c 	ldr	r3, [r0, #12]
 8006244:	e1a00001 	mov	r0, r1
 8006248:	e59d100c 	ldr	r1, [sp, #12]
 800624c:	e24bd01c 	sub	sp, fp, #28
 8006250:	e8bd4ff0 	pop	{r4, r5, r6, r7, r8, r9, sl, fp, lr}
 8006254:	e12fff13 	bx	r3
 8006258:	e59d0014 	ldr	r0, [sp, #20]
 800625c:	e3570001 	cmp	r7, #1
 8006260:	e7b50100 	ldr	r0, [r5, r0, lsl #2]!
 8006264:	e1e01000 	mvn	r1, r0
 8006268:	e1a013a1 	lsr	r1, r1, #7
 800626c:	e1810320 	orr	r0, r1, r0, lsr #6
 8006270:	e0001006 	and	r1, r0, r6
 8006274:	0a00000d 	beq	0x80062b0
 8006278:	e5950004 	ldr	r0, [r5, #4]
 800627c:	e3570002 	cmp	r7, #2
 8006280:	e1e02000 	mvn	r2, r0
 8006284:	e1a023a2 	lsr	r2, r2, #7
 8006288:	e1820320 	orr	r0, r2, r0, lsr #6
 800628c:	e0000006 	and	r0, r0, r6
 8006290:	e0801001 	add	r1, r0, r1
 8006294:	0a000005 	beq	0x80062b0
 8006298:	e5950008 	ldr	r0, [r5, #8]
 800629c:	e1e02000 	mvn	r2, r0
 80062a0:	e1a023a2 	lsr	r2, r2, #7
 80062a4:	e1820320 	orr	r0, r2, r0, lsr #6
 80062a8:	e0000006 	and	r0, r0, r6
 80062ac:	e0801001 	add	r1, r0, r1
 80062b0:	e3a020ff 	mov	r2, #255	@ 0xff
 80062b4:	e38228ff 	orr	r2, r2, #16711680	@ 0xff0000
 80062b8:	e0010002 	and	r0, r1, r2
 80062bc:	e0021421 	and	r1, r2, r1, lsr #8
 80062c0:	e3a02001 	mov	r2, #1
 80062c4:	e0810000 	add	r0, r1, r0
 80062c8:	e3822801 	orr	r2, r2, #65536	@ 0x10000
 80062cc:	e0010290 	mul	r1, r0, r2
 80062d0:	e59d2004 	ldr	r2, [sp, #4]
 80062d4:	e0888821 	add	r8, r8, r1, lsr #16
 80062d8:	e1520008 	cmp	r2, r8
 80062dc:	8affff67 	bhi	0x8006080
 80062e0:	eaffffd2 	b	0x8006230
 80062e4:	e1a09002 	mov	r9, r2
 80062e8:	ea000002 	b	0x80062f8
 80062ec:	e2820001 	add	r0, r2, #1
 80062f0:	e1a010a2 	lsr	r1, r2, #1
 80062f4:	e1a090a0 	lsr	r9, r0, #1
 80062f8:	e59d0010 	ldr	r0, [sp, #16]
 80062fc:	e2816001 	add	r6, r1, #1
 8006300:	e5908010 	ldr	r8, [r0, #16]
 8006304:	e590701c 	ldr	r7, [r0, #28]
 8006308:	e5904020 	ldr	r4, [r0, #32]
 800630c:	e2566001 	subs	r6, r6, #1
 8006310:	0a00000a 	beq	0x8006340
 8006314:	e5942010 	ldr	r2, [r4, #16]
 8006318:	e1a00007 	mov	r0, r7
 800631c:	e1a01008 	mov	r1, r8
 8006320:	e1a0e00f 	mov	lr, pc
 8006324:	e12fff12 	bx	r2
 8006328:	e3500000 	cmp	r0, #0
 800632c:	0afffff6 	beq	0x800630c
 8006330:	e3a00001 	mov	r0, #1
 8006334:	e24bd01c 	sub	sp, fp, #28
 8006338:	e8bd4ff0 	pop	{r4, r5, r6, r7, r8, r9, sl, fp, lr}
 800633c:	e12fff1e 	bx	lr
 8006340:	e594300c 	ldr	r3, [r4, #12]
 8006344:	e59d100c 	ldr	r1, [sp, #12]
 8006348:	e59d2008 	ldr	r2, [sp, #8]
 800634c:	e1a00007 	mov	r0, r7
 8006350:	e1a0e00f 	mov	lr, pc
 8006354:	e12fff13 	bx	r3
 8006358:	e1a01000 	mov	r1, r0
 800635c:	e3a00001 	mov	r0, #1
 8006360:	e3510000 	cmp	r1, #0
 8006364:	0a000012 	beq	0x80063b4
 8006368:	e24bd01c 	sub	sp, fp, #28
 800636c:	e8bd4ff0 	pop	{r4, r5, r6, r7, r8, r9, sl, fp, lr}
 8006370:	e12fff1e 	bx	lr
 8006374:	e3a01000 	mov	r1, #0
 8006378:	01a01008 	moveq	r1, r8
 800637c:	e3510000 	cmp	r1, #0
 8006380:	01a05002 	moveq	r5, r2
 8006384:	11a08001 	movne	r8, r1
 8006388:	e35c0000 	cmp	ip, #0
 800638c:	1affff2a 	bne	0x800603c
 8006390:	e590101c 	ldr	r1, [r0, #28]
 8006394:	e5900020 	ldr	r0, [r0, #32]
 8006398:	e1a02005 	mov	r2, r5
 800639c:	e590300c 	ldr	r3, [r0, #12]
 80063a0:	e1a00001 	mov	r0, r1
 80063a4:	e1a01008 	mov	r1, r8
 80063a8:	e24bd01c 	sub	sp, fp, #28
 80063ac:	e8bd4ff0 	pop	{r4, r5, r6, r7, r8, r9, sl, fp, lr}
 80063b0:	e12fff13 	bx	r3
 80063b4:	e3a05000 	mov	r5, #0
 80063b8:	e1590005 	cmp	r9, r5
 80063bc:	0a000009 	beq	0x80063e8
 80063c0:	e5942010 	ldr	r2, [r4, #16]
 80063c4:	e1a00007 	mov	r0, r7
 80063c8:	e1a01008 	mov	r1, r8
 80063cc:	e1a0e00f 	mov	lr, pc
 80063d0:	e12fff12 	bx	r2
 80063d4:	e2855001 	add	r5, r5, #1
 80063d8:	e3500000 	cmp	r0, #0
 80063dc:	0afffff5 	beq	0x80063b8
 80063e0:	e2451001 	sub	r1, r5, #1
 80063e4:	ea000000 	b	0x80063ec
 80063e8:	e1a01009 	mov	r1, r9
 80063ec:	e3a00000 	mov	r0, #0
 80063f0:	e1510009 	cmp	r1, r9
 80063f4:	33a00001 	movcc	r0, #1
 80063f8:	e24bd01c 	sub	sp, fp, #28
 80063fc:	e8bd4ff0 	pop	{r4, r5, r6, r7, r8, r9, sl, fp, lr}
 8006400:	e12fff1e 	bx	lr
 8006404:	01010101 	tsteq	r1, r1, lsl #2
 8006408:	e92d4800 	push	{fp, lr}
 800640c:	e1a0b00d 	mov	fp, sp
 8006410:	e24dd010 	sub	sp, sp, #16
 8006414:	e3a02001 	mov	r2, #1
 8006418:	e98d0003 	stmib	sp, {r0, r1}
 800641c:	e28d0004 	add	r0, sp, #4
 8006420:	e1cd20bc 	strh	r2, [sp, #12]
 8006424:	ebfff596 	bl	0x8003a84
 8006428:	e92d4ff0 	push	{r4, r5, r6, r7, r8, r9, sl, fp, lr}
 800642c:	e28db01c 	add	fp, sp, #28
 8006430:	e24dd02c 	sub	sp, sp, #44	@ 0x2c
 8006434:	e5927010 	ldr	r7, [r2, #16]
 8006438:	e58d0024 	str	r0, [sp, #36]	@ 0x24
 800643c:	e3a00003 	mov	r0, #3
 8006440:	e3a0a000 	mov	sl, #0
 8006444:	e58d1028 	str	r1, [sp, #40]	@ 0x28
 8006448:	e5cd0020 	strb	r0, [sp, #32]
 800644c:	e3a00020 	mov	r0, #32
 8006450:	e58da01c 	str	sl, [sp, #28]
 8006454:	e58da010 	str	sl, [sp, #16]
 8006458:	e58da008 	str	sl, [sp, #8]
 800645c:	e58d0018 	str	r0, [sp, #24]
 8006460:	e3570000 	cmp	r7, #0
 8006464:	0a00004d 	beq	0x80065a0
 8006468:	e5920014 	ldr	r0, [r2, #20]
 800646c:	e3500000 	cmp	r0, #0
 8006470:	0a00006e 	beq	0x8006630
 8006474:	e5924000 	ldr	r4, [r2]
 8006478:	e5926008 	ldr	r6, [r2, #8]
 800647c:	e1a05280 	lsl	r5, r0, #5
 8006480:	e2400001 	sub	r0, r0, #1
 8006484:	e3a08000 	mov	r8, #0
 8006488:	e3a09000 	mov	r9, #0
 800648c:	e58d2004 	str	r2, [sp, #4]
 8006490:	e3c0033e 	bic	r0, r0, #-134217728	@ 0xf8000000
 8006494:	e280a001 	add	sl, r0, #1
 8006498:	e0840189 	add	r0, r4, r9, lsl #3
 800649c:	e5902004 	ldr	r2, [r0, #4]
 80064a0:	e3520000 	cmp	r2, #0
 80064a4:	0a000007 	beq	0x80064c8
 80064a8:	e59d3028 	ldr	r3, [sp, #40]	@ 0x28
 80064ac:	e7941189 	ldr	r1, [r4, r9, lsl #3]
 80064b0:	e59d0024 	ldr	r0, [sp, #36]	@ 0x24
 80064b4:	e593300c 	ldr	r3, [r3, #12]
 80064b8:	e1a0e00f 	mov	lr, pc
 80064bc:	e12fff13 	bx	r3
 80064c0:	e3500000 	cmp	r0, #0
 80064c4:	1a000066 	bne	0x8006664
 80064c8:	e0870008 	add	r0, r7, r8
 80064cc:	e5900010 	ldr	r0, [r0, #16]
 80064d0:	e58d0018 	str	r0, [sp, #24]
 80064d4:	e0870289 	add	r0, r7, r9, lsl #5
 80064d8:	e5d0101c 	ldrb	r1, [r0, #28]
 80064dc:	e5903008 	ldr	r3, [r0, #8]
 80064e0:	e5902018 	ldr	r2, [r0, #24]
 80064e4:	e5cd1020 	strb	r1, [sp, #32]
 80064e8:	e590100c 	ldr	r1, [r0, #12]
 80064ec:	e3530000 	cmp	r3, #0
 80064f0:	e58d201c 	str	r2, [sp, #28]
 80064f4:	0a000007 	beq	0x8006518
 80064f8:	e3a02000 	mov	r2, #0
 80064fc:	e3530001 	cmp	r3, #1
 8006500:	1a000006 	bne	0x8006520
 8006504:	e1a03006 	mov	r3, r6
 8006508:	e7b31181 	ldr	r1, [r3, r1, lsl #3]!
 800650c:	e3510000 	cmp	r1, #0
 8006510:	1a000002 	bne	0x8006520
 8006514:	e5931004 	ldr	r1, [r3, #4]
 8006518:	e3a02001 	mov	r2, #1
 800651c:	eaffffff 	b	0x8006520
 8006520:	e7973008 	ldr	r3, [r7, r8]
 8006524:	e58d100c 	str	r1, [sp, #12]
 8006528:	e3a01000 	mov	r1, #0
 800652c:	e58d2008 	str	r2, [sp, #8]
 8006530:	e3530002 	cmp	r3, #2
 8006534:	0a000009 	beq	0x8006560
 8006538:	e5902004 	ldr	r2, [r0, #4]
 800653c:	e3530001 	cmp	r3, #1
 8006540:	1a000004 	bne	0x8006558
 8006544:	e1a03006 	mov	r3, r6
 8006548:	e7b32182 	ldr	r2, [r3, r2, lsl #3]!
 800654c:	e3520000 	cmp	r2, #0
 8006550:	1a000002 	bne	0x8006560
 8006554:	e5932004 	ldr	r2, [r3, #4]
 8006558:	e3a01001 	mov	r1, #1
 800655c:	eaffffff 	b	0x8006560
 8006560:	e5900014 	ldr	r0, [r0, #20]
 8006564:	e58d1010 	str	r1, [sp, #16]
 8006568:	e1a01006 	mov	r1, r6
 800656c:	e58d2014 	str	r2, [sp, #20]
 8006570:	e7b10180 	ldr	r0, [r1, r0, lsl #3]!
 8006574:	e5912004 	ldr	r2, [r1, #4]
 8006578:	e28d1008 	add	r1, sp, #8
 800657c:	e1a0e00f 	mov	lr, pc
 8006580:	e12fff12 	bx	r2
 8006584:	e3500000 	cmp	r0, #0
 8006588:	1a000035 	bne	0x8006664
 800658c:	e2888020 	add	r8, r8, #32
 8006590:	e2899001 	add	r9, r9, #1
 8006594:	e1550008 	cmp	r5, r8
 8006598:	1affffbe 	bne	0x8006498
 800659c:	ea000022 	b	0x800662c
 80065a0:	e592000c 	ldr	r0, [r2, #12]
 80065a4:	e3500000 	cmp	r0, #0
 80065a8:	0a000020 	beq	0x8006630
 80065ac:	e5924008 	ldr	r4, [r2, #8]
 80065b0:	e5927000 	ldr	r7, [r2]
 80065b4:	e3a05000 	mov	r5, #0
 80065b8:	e28d8008 	add	r8, sp, #8
 80065bc:	e58d2004 	str	r2, [sp, #4]
 80065c0:	e0849180 	add	r9, r4, r0, lsl #3
 80065c4:	e2400001 	sub	r0, r0, #1
 80065c8:	e3c0020e 	bic	r0, r0, #-536870912	@ 0xe0000000
 80065cc:	e280a001 	add	sl, r0, #1
 80065d0:	e0871185 	add	r1, r7, r5, lsl #3
 80065d4:	e5912004 	ldr	r2, [r1, #4]
 80065d8:	e3520000 	cmp	r2, #0
 80065dc:	0a000007 	beq	0x8006600
 80065e0:	e59d3028 	ldr	r3, [sp, #40]	@ 0x28
 80065e4:	e59d0024 	ldr	r0, [sp, #36]	@ 0x24
 80065e8:	e5911000 	ldr	r1, [r1]
 80065ec:	e593300c 	ldr	r3, [r3, #12]
 80065f0:	e1a0e00f 	mov	lr, pc
 80065f4:	e12fff13 	bx	r3
 80065f8:	e3500000 	cmp	r0, #0
 80065fc:	1a000018 	bne	0x8006664
 8006600:	e0846185 	add	r6, r4, r5, lsl #3
 8006604:	e1a01008 	mov	r1, r8
 8006608:	e8960005 	ldm	r6, {r0, r2}
 800660c:	e1a0e00f 	mov	lr, pc
 8006610:	e12fff12 	bx	r2
 8006614:	e3500000 	cmp	r0, #0
 8006618:	1a000011 	bne	0x8006664
 800661c:	e2860008 	add	r0, r6, #8
 8006620:	e2855001 	add	r5, r5, #1
 8006624:	e1500009 	cmp	r0, r9
 8006628:	1affffe8 	bne	0x80065d0
 800662c:	e59d2004 	ldr	r2, [sp, #4]
 8006630:	e5920004 	ldr	r0, [r2, #4]
 8006634:	e15a0000 	cmp	sl, r0
 8006638:	2a00000d 	bcs	0x8006674
 800663c:	e5920000 	ldr	r0, [r2]
 8006640:	e59d3028 	ldr	r3, [sp, #40]	@ 0x28
 8006644:	e7b0118a 	ldr	r1, [r0, sl, lsl #3]!
 8006648:	e593300c 	ldr	r3, [r3, #12]
 800664c:	e5902004 	ldr	r2, [r0, #4]
 8006650:	e59d0024 	ldr	r0, [sp, #36]	@ 0x24
 8006654:	e1a0e00f 	mov	lr, pc
 8006658:	e12fff13 	bx	r3
 800665c:	e3500000 	cmp	r0, #0
 8006660:	0a000003 	beq	0x8006674
 8006664:	e3a00001 	mov	r0, #1
 8006668:	e24bd01c 	sub	sp, fp, #28
 800666c:	e8bd4ff0 	pop	{r4, r5, r6, r7, r8, r9, sl, fp, lr}
 8006670:	e12fff1e 	bx	lr
 8006674:	e3a00000 	mov	r0, #0
 8006678:	e24bd01c 	sub	sp, fp, #28
 800667c:	e8bd4ff0 	pop	{r4, r5, r6, r7, r8, r9, sl, fp, lr}
 8006680:	e12fff1e 	bx	lr
 8006684:	e92d4ff0 	push	{r4, r5, r6, r7, r8, r9, sl, fp, lr}
 8006688:	e28db01c 	add	fp, sp, #28
 800668c:	e24dd044 	sub	sp, sp, #68	@ 0x44
 8006690:	e1a04001 	mov	r4, r1
 8006694:	e3a0100a 	mov	r1, #10
 8006698:	e5907008 	ldr	r7, [r0, #8]
 800669c:	e59fe250 	ldr	lr, [pc, #592]	@ 0x80068f4
 80066a0:	e3a0a000 	mov	sl, #0
 80066a4:	e3a05000 	mov	r5, #0
 80066a8:	e3a09000 	mov	r9, #0
 80066ac:	e58d2010 	str	r2, [sp, #16]
 80066b0:	e58d1030 	str	r1, [sp, #48]	@ 0x30
 80066b4:	e2441001 	sub	r1, r4, #1
 80066b8:	e58da038 	str	sl, [sp, #56]	@ 0x38
 80066bc:	e58d4004 	str	r4, [sp, #4]
 80066c0:	e58d100c 	str	r1, [sp, #12]
 80066c4:	e5901000 	ldr	r1, [r0]
 80066c8:	e58d1018 	str	r1, [sp, #24]
 80066cc:	e5901004 	ldr	r1, [r0, #4]
 80066d0:	e58d1014 	str	r1, [sp, #20]
 80066d4:	ea00000b 	b	0x8006708
 80066d8:	e5c70000 	strb	r0, [r7]
 80066dc:	e59d0014 	ldr	r0, [sp, #20]
 80066e0:	e048200a 	sub	r2, r8, sl
 80066e4:	e084100a 	add	r1, r4, sl
 80066e8:	e590300c 	ldr	r3, [r0, #12]
 80066ec:	e59d0018 	ldr	r0, [sp, #24]
 80066f0:	e1a0e00f 	mov	lr, pc
 80066f4:	e12fff13 	bx	r3
 80066f8:	e59fe1f4 	ldr	lr, [pc, #500]	@ 0x80068f4
 80066fc:	e3500000 	cmp	r0, #0
 8006700:	e1a0a006 	mov	sl, r6
 8006704:	1a000075 	bne	0x80068e0
 8006708:	e3150001 	tst	r5, #1
 800670c:	1a00006f 	bne	0x80068d0
 8006710:	e59d8010 	ldr	r8, [sp, #16]
 8006714:	e1a0c007 	mov	ip, r7
 8006718:	e1590008 	cmp	r9, r8
 800671c:	8a000051 	bhi	0x8006868
 8006720:	e58d5008 	str	r5, [sp, #8]
 8006724:	e59f51c4 	ldr	r5, [pc, #452]	@ 0x80068f0
 8006728:	ea000001 	b	0x8006734
 800672c:	e1590008 	cmp	r9, r8
 8006730:	8a00004c 	bhi	0x8006868
 8006734:	e0481009 	sub	r1, r8, r9
 8006738:	e0847009 	add	r7, r4, r9
 800673c:	e3510007 	cmp	r1, #7
 8006740:	8a000009 	bhi	0x800676c
 8006744:	e1580009 	cmp	r8, r9
 8006748:	0a000045 	beq	0x8006864
 800674c:	e3a03000 	mov	r3, #0
 8006750:	e7d72003 	ldrb	r2, [r7, r3]
 8006754:	e352000a 	cmp	r2, #10
 8006758:	0a000033 	beq	0x800682c
 800675c:	e2833001 	add	r3, r3, #1
 8006760:	e1510003 	cmp	r1, r3
 8006764:	1afffff9 	bne	0x8006750
 8006768:	ea00003d 	b	0x8006864
 800676c:	e2872003 	add	r2, r7, #3
 8006770:	e3c22003 	bic	r2, r2, #3
 8006774:	e0522007 	subs	r2, r2, r7
 8006778:	1a000002 	bne	0x8006788
 800677c:	e2413008 	sub	r3, r1, #8
 8006780:	e3a02000 	mov	r2, #0
 8006784:	ea000008 	b	0x80067ac
 8006788:	e3a03000 	mov	r3, #0
 800678c:	e7d70003 	ldrb	r0, [r7, r3]
 8006790:	e350000a 	cmp	r0, #10
 8006794:	0a000024 	beq	0x800682c
 8006798:	e2833001 	add	r3, r3, #1
 800679c:	e1520003 	cmp	r2, r3
 80067a0:	1afffff9 	bne	0x800678c
 80067a4:	e2413008 	sub	r3, r1, #8
 80067a8:	ea00000e 	b	0x80067e8
 80067ac:	e1a00007 	mov	r0, r7
 80067b0:	e7b06002 	ldr	r6, [r0, r2]!
 80067b4:	e5900004 	ldr	r0, [r0, #4]
 80067b8:	e020000e 	eor	r0, r0, lr
 80067bc:	e0454000 	sub	r4, r5, r0
 80067c0:	e1840000 	orr	r0, r4, r0
 80067c4:	e026400e 	eor	r4, r6, lr
 80067c8:	e0454004 	sub	r4, r5, r4
 80067cc:	e1846006 	orr	r6, r4, r6
 80067d0:	e59f4120 	ldr	r4, [pc, #288]	@ 0x80068f8
 80067d4:	e0066004 	and	r6, r6, r4
 80067d8:	e0060000 	and	r0, r6, r0
 80067dc:	e1500004 	cmp	r0, r4
 80067e0:	1a000002 	bne	0x80067f0
 80067e4:	e2822008 	add	r2, r2, #8
 80067e8:	e1520003 	cmp	r2, r3
 80067ec:	9affffee 	bls	0x80067ac
 80067f0:	e1520001 	cmp	r2, r1
 80067f4:	0a000019 	beq	0x8006860
 80067f8:	e59d4004 	ldr	r4, [sp, #4]
 80067fc:	e0480002 	sub	r0, r8, r2
 8006800:	e0871002 	add	r1, r7, r2
 8006804:	e3a03000 	mov	r3, #0
 8006808:	e0406009 	sub	r6, r0, r9
 800680c:	e7d10003 	ldrb	r0, [r1, r3]
 8006810:	e350000a 	cmp	r0, #10
 8006814:	0a000003 	beq	0x8006828
 8006818:	e2833001 	add	r3, r3, #1
 800681c:	e1560003 	cmp	r6, r3
 8006820:	1afffff9 	bne	0x800680c
 8006824:	ea00000e 	b	0x8006864
 8006828:	e0833002 	add	r3, r3, r2
 800682c:	e0890003 	add	r0, r9, r3
 8006830:	e2809001 	add	r9, r0, #1
 8006834:	e1500008 	cmp	r0, r8
 8006838:	2affffbb 	bcs	0x800672c
 800683c:	e7d70003 	ldrb	r0, [r7, r3]
 8006840:	e3a0100a 	mov	r1, #10
 8006844:	e1500001 	cmp	r0, r1
 8006848:	1affffb7 	bne	0x800672c
 800684c:	e59d5008 	ldr	r5, [sp, #8]
 8006850:	e1a06009 	mov	r6, r9
 8006854:	e1a08009 	mov	r8, r9
 8006858:	e1a0700c 	mov	r7, ip
 800685c:	ea000006 	b	0x800687c
 8006860:	e59d4004 	ldr	r4, [sp, #4]
 8006864:	e1a09008 	mov	r9, r8
 8006868:	e3a05001 	mov	r5, #1
 800686c:	e15a0008 	cmp	sl, r8
 8006870:	e1a0600a 	mov	r6, sl
 8006874:	e1a0700c 	mov	r7, ip
 8006878:	0a000014 	beq	0x80068d0
 800687c:	e5d70000 	ldrb	r0, [r7]
 8006880:	e3500000 	cmp	r0, #0
 8006884:	0a000008 	beq	0x80068ac
 8006888:	e59d0014 	ldr	r0, [sp, #20]
 800688c:	e59f1068 	ldr	r1, [pc, #104]	@ 0x80068fc
 8006890:	e3a02004 	mov	r2, #4
 8006894:	e590300c 	ldr	r3, [r0, #12]
 8006898:	e59d0018 	ldr	r0, [sp, #24]
 800689c:	e1a0e00f 	mov	lr, pc
 80068a0:	e12fff13 	bx	r3
 80068a4:	e3500000 	cmp	r0, #0
 80068a8:	1a00000c 	bne	0x80068e0
 80068ac:	e3a00000 	mov	r0, #0
 80068b0:	e158000a 	cmp	r8, sl
 80068b4:	0affff87 	beq	0x80066d8
 80068b8:	e59d000c 	ldr	r0, [sp, #12]
 80068bc:	e7d00008 	ldrb	r0, [r0, r8]
 80068c0:	e240000a 	sub	r0, r0, #10
 80068c4:	e2701000 	rsbs	r1, r0, #0
 80068c8:	e0a00001 	adc	r0, r0, r1
 80068cc:	eaffff81 	b	0x80066d8
 80068d0:	e3a00000 	mov	r0, #0
 80068d4:	e24bd01c 	sub	sp, fp, #28
 80068d8:	e8bd4ff0 	pop	{r4, r5, r6, r7, r8, r9, sl, fp, lr}
 80068dc:	e12fff1e 	bx	lr
 80068e0:	e3a00001 	mov	r0, #1
 80068e4:	e24bd01c 	sub	sp, fp, #28
 80068e8:	e8bd4ff0 	pop	{r4, r5, r6, r7, r8, r9, sl, fp, lr}
 80068ec:	e12fff1e 	bx	lr
 80068f0:	01010100 	mrseq	r0, (UNDEF: 17)
 80068f4:	0a0a0a0a 	beq	0x8289124
 80068f8:	80808080 	addhi	r8, r0, r0, lsl #1
 80068fc:	08011e34 	stmdaeq	r1, {r2, r4, r5, r9, sl, fp, ip}
 8006900:	e92d48f0 	push	{r4, r5, r6, r7, fp, lr}
 8006904:	e28db010 	add	fp, sp, #16
 8006908:	e8900070 	ldm	r0, {r4, r5, r6}
 800690c:	e5d60000 	ldrb	r0, [r6]
 8006910:	e3500000 	cmp	r0, #0
 8006914:	0a00000c 	beq	0x800694c
 8006918:	e59f204c 	ldr	r2, [pc, #76]	@ 0x800696c
 800691c:	e595300c 	ldr	r3, [r5, #12]
 8006920:	e1a07001 	mov	r7, r1
 8006924:	e1a00004 	mov	r0, r4
 8006928:	e1a01002 	mov	r1, r2
 800692c:	e3a02004 	mov	r2, #4
 8006930:	e1a0e00f 	mov	lr, pc
 8006934:	e12fff13 	bx	r3
 8006938:	e3500000 	cmp	r0, #0
 800693c:	e1a01007 	mov	r1, r7
 8006940:	13a00001 	movne	r0, #1
 8006944:	18bd48f0 	popne	{r4, r5, r6, r7, fp, lr}
 8006948:	112fff1e 	bxne	lr
 800694c:	e241000a 	sub	r0, r1, #10
 8006950:	e2702000 	rsbs	r2, r0, #0
 8006954:	e0a00002 	adc	r0, r0, r2
 8006958:	e5c60000 	strb	r0, [r6]
 800695c:	e1a00004 	mov	r0, r4
 8006960:	e5952010 	ldr	r2, [r5, #16]
 8006964:	e8bd48f0 	pop	{r4, r5, r6, r7, fp, lr}
 8006968:	e12fff12 	bx	r2
 800696c:	08011e34 	stmdaeq	r1, {r2, r4, r5, r9, sl, fp, ip}
 8006970:	e5913004 	ldr	r3, [r1, #4]
 8006974:	e1a02001 	mov	r2, r1
 8006978:	e591100c 	ldr	r1, [r1, #12]
 800697c:	e3530001 	cmp	r3, #1
 8006980:	0a000005 	beq	0x800699c
 8006984:	e3530000 	cmp	r3, #0
 8006988:	03510000 	cmpeq	r1, #0
 800698c:	1a000004 	bne	0x80069a4
 8006990:	e3a01001 	mov	r1, #1
 8006994:	e3a02000 	mov	r2, #0
 8006998:	eaffff39 	b	0x8006684
 800699c:	e3510000 	cmp	r1, #0
 80069a0:	0a000001 	beq	0x80069ac
 80069a4:	e59f100c 	ldr	r1, [pc, #12]	@ 0x80069b8
 80069a8:	eafffe9e 	b	0x8006428
 80069ac:	e5922000 	ldr	r2, [r2]
 80069b0:	e8920006 	ldm	r2, {r1, r2}
 80069b4:	eaffff32 	b	0x8006684
 80069b8:	082fd984 	stmdaeq	pc!, {r2, r7, r8, fp, ip, lr, pc}	@ <UNPREDICTABLE>
 80069bc:	e92d4800 	push	{fp, lr}
 80069c0:	e1a0b00d 	mov	fp, sp
 80069c4:	e24dd028 	sub	sp, sp, #40	@ 0x28
 80069c8:	e890407a 	ldm	r0, {r1, r3, r4, r5, r6, lr}
 80069cc:	e28dc004 	add	ip, sp, #4
 80069d0:	e3a00000 	mov	r0, #0
 80069d4:	e1a0200c 	mov	r2, ip
 80069d8:	e882407a 	stm	r2, {r1, r3, r4, r5, r6, lr}
 80069dc:	e14b00b4 	strh	r0, [fp, #-4]
 80069e0:	e59f000c 	ldr	r0, [pc, #12]	@ 0x80069f4
 80069e4:	e50bc00c 	str	ip, [fp, #-12]
 80069e8:	e50b0008 	str	r0, [fp, #-8]
 80069ec:	e24b000c 	sub	r0, fp, #12
 80069f0:	ebfff423 	bl	0x8003a84
 80069f4:	082fd028 	stmdaeq	pc!, {r3, r5, ip, lr, pc}	@ <UNPREDICTABLE>
 80069f8:	e92d4800 	push	{fp, lr}
 80069fc:	e1a0b00d 	mov	fp, sp
 8006a00:	e24dd020 	sub	sp, sp, #32
 8006a04:	e1a0c002 	mov	ip, r2
 8006a08:	e3a02001 	mov	r2, #1
 8006a0c:	e3a03000 	mov	r3, #0
 8006a10:	e90b0003 	stmdb	fp, {r0, r1}
 8006a14:	e1a0000d 	mov	r0, sp
 8006a18:	e58d2004 	str	r2, [sp, #4]
 8006a1c:	e24b2008 	sub	r2, fp, #8
 8006a20:	e1a0100c 	mov	r1, ip
 8006a24:	e58d3010 	str	r3, [sp, #16]
 8006a28:	e58d300c 	str	r3, [sp, #12]
 8006a2c:	e58d2000 	str	r2, [sp]
 8006a30:	e3a02004 	mov	r2, #4
 8006a34:	e58d2008 	str	r2, [sp, #8]
 8006a38:	ebfffe72 	bl	0x8006408
 8006a3c:	e1a03001 	mov	r3, r1
 8006a40:	e8900006 	ldm	r0, {r1, r2}
 8006a44:	e1a00003 	mov	r0, r3
 8006a48:	eafffd3c 	b	0x8005f40
 8006a4c:	e92d4800 	push	{fp, lr}
 8006a50:	e1a0b00d 	mov	fp, sp
 8006a54:	e24dd030 	sub	sp, sp, #48	@ 0x30
 8006a58:	e88d0003 	stm	sp, {r0, r1}
 8006a5c:	e3a00000 	mov	r0, #0
 8006a60:	e59f1040 	ldr	r1, [pc, #64]	@ 0x8006aa8
 8006a64:	e58d0018 	str	r0, [sp, #24]
 8006a68:	e3a00002 	mov	r0, #2
 8006a6c:	e58d000c 	str	r0, [sp, #12]
 8006a70:	e58d0014 	str	r0, [sp, #20]
 8006a74:	e24b0010 	sub	r0, fp, #16
 8006a78:	e58d0010 	str	r0, [sp, #16]
 8006a7c:	e59f0028 	ldr	r0, [pc, #40]	@ 0x8006aac
 8006a80:	e58d1008 	str	r1, [sp, #8]
 8006a84:	e1a0100d 	mov	r1, sp
 8006a88:	e50b1008 	str	r1, [fp, #-8]
 8006a8c:	e1a01002 	mov	r1, r2
 8006a90:	e50b0004 	str	r0, [fp, #-4]
 8006a94:	e50b000c 	str	r0, [fp, #-12]
 8006a98:	e28d0004 	add	r0, sp, #4
 8006a9c:	e50b0010 	str	r0, [fp, #-16]
 8006aa0:	e28d0008 	add	r0, sp, #8
 8006aa4:	ebfffe57 	bl	0x8006408
 8006aa8:	082fd8ec 	stmdaeq	pc!, {r2, r3, r5, r6, r7, fp, ip, lr, pc}	@ <UNPREDICTABLE>
 8006aac:	0800ae8c 	stmdaeq	r0, {r2, r3, r7, r9, sl, fp, sp, pc}
 8006ab0:	e92d4f80 	push	{r7, r8, r9, sl, fp, lr}
 8006ab4:	e28db010 	add	fp, sp, #16
 8006ab8:	e50b1004 	str	r1, [fp, #-4]
 8006abc:	e59f1014 	ldr	r1, [pc, #20]	@ 0x8006ad8
 8006ac0:	e88d000c 	stm	sp, {r2, r3}
 8006ac4:	e58d0008 	str	r0, [sp, #8]
 8006ac8:	e28d0008 	add	r0, sp, #8
 8006acc:	e24b2004 	sub	r2, fp, #4
 8006ad0:	e1a03001 	mov	r3, r1
 8006ad4:	eb000000 	bl	0x8006adc
 8006ad8:	082fd8fc 	stmdaeq	pc!, {r2, r3, r4, r5, r6, r7, fp, ip, lr, pc}	@ <UNPREDICTABLE>
 8006adc:	e92d4800 	push	{fp, lr}
 8006ae0:	e1a0b00d 	mov	fp, sp
 8006ae4:	e24dd068 	sub	sp, sp, #104	@ 0x68
 8006ae8:	e59be008 	ldr	lr, [fp, #8]
 8006aec:	e88d000f 	stm	sp, {r0, r1, r2, r3}
 8006af0:	e3a00002 	mov	r0, #2
 8006af4:	e59b100c 	ldr	r1, [fp, #12]
 8006af8:	e58d0014 	str	r0, [sp, #20]
 8006afc:	e59f00c4 	ldr	r0, [pc, #196]	@ 0x8006bc8
 8006b00:	e59e2000 	ldr	r2, [lr]
 8006b04:	e58d0010 	str	r0, [sp, #16]
 8006b08:	e3520000 	cmp	r2, #0
 8006b0c:	1a000010 	bne	0x8006b54
 8006b10:	e3a00000 	mov	r0, #0
 8006b14:	e59f20c0 	ldr	r2, [pc, #192]	@ 0x8006bdc
 8006b18:	e50b0008 	str	r0, [fp, #-8]
 8006b1c:	e3a00003 	mov	r0, #3
 8006b20:	e50b0014 	str	r0, [fp, #-20]	@ 0xffffffec
 8006b24:	e50b000c 	str	r0, [fp, #-12]
 8006b28:	e28d0030 	add	r0, sp, #48	@ 0x30
 8006b2c:	e50b0010 	str	r0, [fp, #-16]
 8006b30:	e59f0098 	ldr	r0, [pc, #152]	@ 0x8006bd0
 8006b34:	e50b2018 	str	r2, [fp, #-24]	@ 0xffffffe8
 8006b38:	e28d2008 	add	r2, sp, #8
 8006b3c:	e58d2040 	str	r2, [sp, #64]	@ 0x40
 8006b40:	e58d0044 	str	r0, [sp, #68]	@ 0x44
 8006b44:	e58d003c 	str	r0, [sp, #60]	@ 0x3c
 8006b48:	e1a0000d 	mov	r0, sp
 8006b4c:	e58d0038 	str	r0, [sp, #56]	@ 0x38
 8006b50:	ea000016 	b	0x8006bb0
 8006b54:	e89e00f5 	ldm	lr, {r0, r2, r4, r5, r6, r7}
 8006b58:	e28dc018 	add	ip, sp, #24
 8006b5c:	e1a0300c 	mov	r3, ip
 8006b60:	e88300f5 	stm	r3, {r0, r2, r4, r5, r6, r7}
 8006b64:	e3a00000 	mov	r0, #0
 8006b68:	e59f205c 	ldr	r2, [pc, #92]	@ 0x8006bcc
 8006b6c:	e58dc038 	str	ip, [sp, #56]	@ 0x38
 8006b70:	e50b0008 	str	r0, [fp, #-8]
 8006b74:	e3a00004 	mov	r0, #4
 8006b78:	e50b0014 	str	r0, [fp, #-20]	@ 0xffffffec
 8006b7c:	e50b000c 	str	r0, [fp, #-12]
 8006b80:	e28d0030 	add	r0, sp, #48	@ 0x30
 8006b84:	e50b0010 	str	r0, [fp, #-16]
 8006b88:	e59f0040 	ldr	r0, [pc, #64]	@ 0x8006bd0
 8006b8c:	e50b2018 	str	r2, [fp, #-24]	@ 0xffffffe8
 8006b90:	e28d2008 	add	r2, sp, #8
 8006b94:	e58d2048 	str	r2, [sp, #72]	@ 0x48
 8006b98:	e58d004c 	str	r0, [sp, #76]	@ 0x4c
 8006b9c:	e58d0044 	str	r0, [sp, #68]	@ 0x44
 8006ba0:	e1a0000d 	mov	r0, sp
 8006ba4:	e58d0040 	str	r0, [sp, #64]	@ 0x40
 8006ba8:	e59f0024 	ldr	r0, [pc, #36]	@ 0x8006bd4
 8006bac:	e58d003c 	str	r0, [sp, #60]	@ 0x3c
 8006bb0:	e59f0020 	ldr	r0, [pc, #32]	@ 0x8006bd8
 8006bb4:	e58d0034 	str	r0, [sp, #52]	@ 0x34
 8006bb8:	e28d0010 	add	r0, sp, #16
 8006bbc:	e58d0030 	str	r0, [sp, #48]	@ 0x30
 8006bc0:	e24b0018 	sub	r0, fp, #24
 8006bc4:	ebfffe0f 	bl	0x8006408
 8006bc8:	082fd91c 	stmdaeq	pc!, {r2, r3, r4, r8, fp, ip, lr, pc}	@ <UNPREDICTABLE>
 8006bcc:	082fd964 	stmdaeq	pc!, {r2, r5, r6, r8, fp, ip, lr, pc}	@ <UNPREDICTABLE>
 8006bd0:	08006be0 	stmdaeq	r0, {r5, r6, r7, r8, r9, fp, sp, lr}
 8006bd4:	08006bf4 	stmdaeq	r0, {r2, r4, r5, r6, r7, r8, r9, fp, sp, lr}
 8006bd8:	08006a3c 	stmdaeq	r0, {r2, r3, r4, r5, r9, fp, sp, lr}
 8006bdc:	082fd940 	stmdaeq	pc!, {r6, r8, fp, ip, lr, pc}	@ <UNPREDICTABLE>
 8006be0:	e5902000 	ldr	r2, [r0]
 8006be4:	e5900004 	ldr	r0, [r0, #4]
 8006be8:	e590300c 	ldr	r3, [r0, #12]
 8006bec:	e1a00002 	mov	r0, r2
 8006bf0:	e12fff13 	bx	r3
 8006bf4:	e1a02000 	mov	r2, r0
 8006bf8:	e591001c 	ldr	r0, [r1, #28]
 8006bfc:	e5911020 	ldr	r1, [r1, #32]
 8006c00:	eafffe08 	b	0x8006428
 8006c04:	e92d4ff0 	push	{r4, r5, r6, r7, r8, r9, sl, fp, lr}
 8006c08:	e28db01c 	add	fp, sp, #28
 8006c0c:	e24dd08c 	sub	sp, sp, #140	@ 0x8c
 8006c10:	e1a06001 	mov	r6, r1
 8006c14:	e5911014 	ldr	r1, [r1, #20]
 8006c18:	e5900000 	ldr	r0, [r0]
 8006c1c:	e3110010 	tst	r1, #16
 8006c20:	1a00003e 	bne	0x8006d20
 8006c24:	e3110020 	tst	r1, #32
 8006c28:	1a000049 	bne	0x8006d54
 8006c2c:	e5902000 	ldr	r2, [r0]
 8006c30:	e3a08e71 	mov	r8, #1808	@ 0x710
 8006c34:	e3a0e0ff 	mov	lr, #255	@ 0xff
 8006c38:	e3a0c07b 	mov	ip, #123	@ 0x7b
 8006c3c:	e3a0000a 	mov	r0, #10
 8006c40:	e3888a02 	orr	r8, r8, #8192	@ 0x2000
 8006c44:	e38eecff 	orr	lr, lr, #65280	@ 0xff00
 8006c48:	e38ccb05 	orr	ip, ip, #5120	@ 0x1400
 8006c4c:	e1520008 	cmp	r2, r8
 8006c50:	3a000056 	bcc	0x8006db0
 8006c54:	e59fa1ec 	ldr	sl, [pc, #492]	@ 0x8006e48
 8006c58:	e3a01000 	mov	r1, #0
 8006c5c:	e58d6008 	str	r6, [sp, #8]
 8006c60:	e59f41dc 	ldr	r4, [pc, #476]	@ 0x8006e44
 8006c64:	e28d000c 	add	r0, sp, #12
 8006c68:	e1a0700a 	mov	r7, sl
 8006c6c:	e0806001 	add	r6, r0, r1
 8006c70:	e1a0000c 	mov	r0, ip
 8006c74:	e2411004 	sub	r1, r1, #4
 8006c78:	e08c3492 	umull	r3, ip, r2, r4
 8006c7c:	e1a096ac 	lsr	r9, ip, #13
 8006c80:	e1a0c000 	mov	ip, r0
 8006c84:	e3a03064 	mov	r3, #100	@ 0x64
 8006c88:	e0040899 	mul	r4, r9, r8
 8006c8c:	e0424004 	sub	r4, r2, r4
 8006c90:	e004500e 	and	r5, r4, lr
 8006c94:	e1a05125 	lsr	r5, r5, #2
 8006c98:	e0000c95 	mul	r0, r5, ip
 8006c9c:	e1a008a0 	lsr	r0, r0, #17
 8006ca0:	e7f75080 	ldrb	r5, [r7, r0, lsl #1]!
 8006ca4:	e5d77001 	ldrb	r7, [r7, #1]
 8006ca8:	e5c65006 	strb	r5, [r6, #6]
 8006cac:	e5c67007 	strb	r7, [r6, #7]
 8006cb0:	e0070390 	mul	r7, r0, r3
 8006cb4:	e0440007 	sub	r0, r4, r7
 8006cb8:	e1a0700a 	mov	r7, sl
 8006cbc:	e000000e 	and	r0, r0, lr
 8006cc0:	e7f70080 	ldrb	r0, [r7, r0, lsl #1]!
 8006cc4:	e5c60008 	strb	r0, [r6, #8]
 8006cc8:	e5d70001 	ldrb	r0, [r7, #1]
 8006ccc:	e5c60009 	strb	r0, [r6, #9]
 8006cd0:	e59f0174 	ldr	r0, [pc, #372]	@ 0x8006e4c
 8006cd4:	e1520000 	cmp	r2, r0
 8006cd8:	e1a02009 	mov	r2, r9
 8006cdc:	8affffdf 	bhi	0x8006c60
 8006ce0:	e59d6008 	ldr	r6, [sp, #8]
 8006ce4:	e281000a 	add	r0, r1, #10
 8006ce8:	e3590063 	cmp	r9, #99	@ 0x63
 8006cec:	8a000032 	bhi	0x8006dbc
 8006cf0:	e1a01009 	mov	r1, r9
 8006cf4:	e351000a 	cmp	r1, #10
 8006cf8:	3a000041 	bcc	0x8006e04
 8006cfc:	e59f2144 	ldr	r2, [pc, #324]	@ 0x8006e48
 8006d00:	e2400002 	sub	r0, r0, #2
 8006d04:	e28d300c 	add	r3, sp, #12
 8006d08:	e7f21081 	ldrb	r1, [r2, r1, lsl #1]!
 8006d0c:	e5d22001 	ldrb	r2, [r2, #1]
 8006d10:	e7c31000 	strb	r1, [r3, r0]
 8006d14:	e0831000 	add	r1, r3, r0
 8006d18:	e5c12001 	strb	r2, [r1, #1]
 8006d1c:	ea00003c 	b	0x8006e14
 8006d20:	e5901000 	ldr	r1, [r0]
 8006d24:	e3a0307f 	mov	r3, #127	@ 0x7f
 8006d28:	e28d000c 	add	r0, sp, #12
 8006d2c:	e1a02003 	mov	r2, r3
 8006d30:	e201300f 	and	r3, r1, #15
 8006d34:	e2837057 	add	r7, r3, #87	@ 0x57
 8006d38:	e353000a 	cmp	r3, #10
 8006d3c:	33837030 	orrcc	r7, r3, #48	@ 0x30
 8006d40:	e2423001 	sub	r3, r2, #1
 8006d44:	e1b01221 	lsrs	r1, r1, #4
 8006d48:	e7c07002 	strb	r7, [r0, r2]
 8006d4c:	1afffff6 	bne	0x8006d2c
 8006d50:	ea00000b 	b	0x8006d84
 8006d54:	e5901000 	ldr	r1, [r0]
 8006d58:	e3a0307f 	mov	r3, #127	@ 0x7f
 8006d5c:	e28d000c 	add	r0, sp, #12
 8006d60:	e1a02003 	mov	r2, r3
 8006d64:	e201300f 	and	r3, r1, #15
 8006d68:	e2837037 	add	r7, r3, #55	@ 0x37
 8006d6c:	e353000a 	cmp	r3, #10
 8006d70:	33837030 	orrcc	r7, r3, #48	@ 0x30
 8006d74:	e2423001 	sub	r3, r2, #1
 8006d78:	e1b01221 	lsrs	r1, r1, #4
 8006d7c:	e7c07002 	strb	r7, [r0, r2]
 8006d80:	1afffff6 	bne	0x8006d60
 8006d84:	e2821001 	add	r1, r2, #1
 8006d88:	e0803002 	add	r3, r0, r2
 8006d8c:	e1a00006 	mov	r0, r6
 8006d90:	e3a02002 	mov	r2, #2
 8006d94:	e2611081 	rsb	r1, r1, #129	@ 0x81
 8006d98:	e58d1000 	str	r1, [sp]
 8006d9c:	e59f109c 	ldr	r1, [pc, #156]	@ 0x8006e40
 8006da0:	eb0000d9 	bl	0x800710c
 8006da4:	e24bd01c 	sub	sp, fp, #28
 8006da8:	e8bd4ff0 	pop	{r4, r5, r6, r7, r8, r9, sl, fp, lr}
 8006dac:	e12fff1e 	bx	lr
 8006db0:	e1a09002 	mov	r9, r2
 8006db4:	e3590063 	cmp	r9, #99	@ 0x63
 8006db8:	9affffcc 	bls	0x8006cf0
 8006dbc:	e009100e 	and	r1, r9, lr
 8006dc0:	e59f3080 	ldr	r3, [pc, #128]	@ 0x8006e48
 8006dc4:	e2400002 	sub	r0, r0, #2
 8006dc8:	e1a01121 	lsr	r1, r1, #2
 8006dcc:	e0020c91 	mul	r2, r1, ip
 8006dd0:	e1a018a2 	lsr	r1, r2, #17
 8006dd4:	e3a02064 	mov	r2, #100	@ 0x64
 8006dd8:	e0070291 	mul	r7, r1, r2
 8006ddc:	e0492007 	sub	r2, r9, r7
 8006de0:	e28d700c 	add	r7, sp, #12
 8006de4:	e002200e 	and	r2, r2, lr
 8006de8:	e7f32082 	ldrb	r2, [r3, r2, lsl #1]!
 8006dec:	e5d33001 	ldrb	r3, [r3, #1]
 8006df0:	e7c72000 	strb	r2, [r7, r0]
 8006df4:	e0872000 	add	r2, r7, r0
 8006df8:	e5c23001 	strb	r3, [r2, #1]
 8006dfc:	e351000a 	cmp	r1, #10
 8006e00:	2affffbd 	bcs	0x8006cfc
 8006e04:	e2400001 	sub	r0, r0, #1
 8006e08:	e3811030 	orr	r1, r1, #48	@ 0x30
 8006e0c:	e28d200c 	add	r2, sp, #12
 8006e10:	e7c21000 	strb	r1, [r2, r0]
 8006e14:	e260100a 	rsb	r1, r0, #10
 8006e18:	e3a02000 	mov	r2, #0
 8006e1c:	e58d1000 	str	r1, [sp]
 8006e20:	e28d100c 	add	r1, sp, #12
 8006e24:	e0813000 	add	r3, r1, r0
 8006e28:	e1a00006 	mov	r0, r6
 8006e2c:	e3a01001 	mov	r1, #1
 8006e30:	eb0000b5 	bl	0x800710c
 8006e34:	e24bd01c 	sub	sp, fp, #28
 8006e38:	e8bd4ff0 	pop	{r4, r5, r6, r7, r8, r9, sl, fp, lr}
 8006e3c:	e12fff1e 	bx	lr
 8006e40:	082fda0e 	stmdaeq	pc!, {r1, r2, r3, r9, fp, ip, lr, pc}	@ <UNPREDICTABLE>
 8006e44:	d1b71759 			@ <UNDEFINED> instruction: 0xd1b71759
 8006e48:	082fda10 	stmdaeq	pc!, {r4, r9, fp, ip, lr, pc}	@ <UNPREDICTABLE>
 8006e4c:	05f5e0ff 	ldrbeq	lr, [r5, #255]!	@ 0xff
 8006e50:	e92d4f80 	push	{r7, r8, r9, sl, fp, lr}
 8006e54:	e28db010 	add	fp, sp, #16
 8006e58:	e50b1004 	str	r1, [fp, #-4]
 8006e5c:	e58d0008 	str	r0, [sp, #8]
 8006e60:	e59f0018 	ldr	r0, [pc, #24]	@ 0x8006e80
 8006e64:	e59f1018 	ldr	r1, [pc, #24]	@ 0x8006e84
 8006e68:	e58d2000 	str	r2, [sp]
 8006e6c:	e24b2004 	sub	r2, fp, #4
 8006e70:	e58d0004 	str	r0, [sp, #4]
 8006e74:	e28d0008 	add	r0, sp, #8
 8006e78:	e1a03001 	mov	r3, r1
 8006e7c:	ebffff16 	bl	0x8006adc
 8006e80:	082fd0e0 	stmdaeq	pc!, {r5, r6, r7, ip, lr, pc}	@ <UNPREDICTABLE>
 8006e84:	082fd90c 	stmdaeq	pc!, {r2, r3, r8, fp, ip, lr, pc}	@ <UNPREDICTABLE>
 8006e88:	e92d4ff0 	push	{r4, r5, r6, r7, r8, r9, sl, fp, lr}
 8006e8c:	e28db01c 	add	fp, sp, #28
 8006e90:	e24dd08c 	sub	sp, sp, #140	@ 0x8c
 8006e94:	e1a05001 	mov	r5, r1
 8006e98:	e5911014 	ldr	r1, [r1, #20]
 8006e9c:	e5900000 	ldr	r0, [r0]
 8006ea0:	e3110010 	tst	r1, #16
 8006ea4:	1a000047 	bne	0x8006fc8
 8006ea8:	e3110020 	tst	r1, #32
 8006eac:	1a000055 	bne	0x8007008
 8006eb0:	e5908000 	ldr	r8, [r0]
 8006eb4:	e5907004 	ldr	r7, [r0, #4]
 8006eb8:	e3a0ae71 	mov	sl, #1808	@ 0x710
 8006ebc:	e3a0c0ff 	mov	ip, #255	@ 0xff
 8006ec0:	e3a0e07b 	mov	lr, #123	@ 0x7b
 8006ec4:	e38aaa02 	orr	sl, sl, #8192	@ 0x2000
 8006ec8:	e38cccff 	orr	ip, ip, #65280	@ 0xff00
 8006ecc:	e38eeb05 	orr	lr, lr, #5120	@ 0x1400
 8006ed0:	e058000a 	subs	r0, r8, sl
 8006ed4:	e2d70000 	sbcs	r0, r7, #0
 8006ed8:	3a000064 	bcc	0x8007070
 8006edc:	e3a02000 	mov	r2, #0
 8006ee0:	e58d5004 	str	r5, [sp, #4]
 8006ee4:	e1a09002 	mov	r9, r2
 8006ee8:	e1a00008 	mov	r0, r8
 8006eec:	e1a01007 	mov	r1, r7
 8006ef0:	e1a0200a 	mov	r2, sl
 8006ef4:	e3a03000 	mov	r3, #0
 8006ef8:	e1a0400c 	mov	r4, ip
 8006efc:	e1a0500e 	mov	r5, lr
 8006f00:	eb002725 	bl	0x8010b9c
 8006f04:	e0020a90 	mul	r2, r0, sl
 8006f08:	e58d1008 	str	r1, [sp, #8]
 8006f0c:	e59f11f0 	ldr	r1, [pc, #496]	@ 0x8007104
 8006f10:	e1a0c004 	mov	ip, r4
 8006f14:	e1a0e005 	mov	lr, r5
 8006f18:	e0482002 	sub	r2, r8, r2
 8006f1c:	e0023004 	and	r3, r2, r4
 8006f20:	e1a03123 	lsr	r3, r3, #2
 8006f24:	e0060593 	mul	r6, r3, r5
 8006f28:	e1a04001 	mov	r4, r1
 8006f2c:	e28d500c 	add	r5, sp, #12
 8006f30:	e1a038a6 	lsr	r3, r6, #17
 8006f34:	e0855009 	add	r5, r5, r9
 8006f38:	e7f46083 	ldrb	r6, [r4, r3, lsl #1]!
 8006f3c:	e5c56010 	strb	r6, [r5, #16]
 8006f40:	e5d46001 	ldrb	r6, [r4, #1]
 8006f44:	e3a04064 	mov	r4, #100	@ 0x64
 8006f48:	e5c56011 	strb	r6, [r5, #17]
 8006f4c:	e0060493 	mul	r6, r3, r4
 8006f50:	e0422006 	sub	r2, r2, r6
 8006f54:	e002200c 	and	r2, r2, ip
 8006f58:	e7f12082 	ldrb	r2, [r1, r2, lsl #1]!
 8006f5c:	e5c52012 	strb	r2, [r5, #18]
 8006f60:	e5d12001 	ldrb	r2, [r1, #1]
 8006f64:	e59f119c 	ldr	r1, [pc, #412]	@ 0x8007108
 8006f68:	e0513008 	subs	r3, r1, r8
 8006f6c:	e5c52013 	strb	r2, [r5, #19]
 8006f70:	e2492004 	sub	r2, r9, #4
 8006f74:	e1a08000 	mov	r8, r0
 8006f78:	e2f73000 	rscs	r3, r7, #0
 8006f7c:	e59d7008 	ldr	r7, [sp, #8]
 8006f80:	3affffd7 	bcc	0x8006ee4
 8006f84:	e59d5004 	ldr	r5, [sp, #4]
 8006f88:	e2891010 	add	r1, r9, #16
 8006f8c:	e1a08000 	mov	r8, r0
 8006f90:	e3580063 	cmp	r8, #99	@ 0x63
 8006f94:	8a000038 	bhi	0x800707c
 8006f98:	e1a00008 	mov	r0, r8
 8006f9c:	e350000a 	cmp	r0, #10
 8006fa0:	3a000047 	bcc	0x80070c4
 8006fa4:	e59f2158 	ldr	r2, [pc, #344]	@ 0x8007104
 8006fa8:	e2411002 	sub	r1, r1, #2
 8006fac:	e28d300c 	add	r3, sp, #12
 8006fb0:	e7f20080 	ldrb	r0, [r2, r0, lsl #1]!
 8006fb4:	e5d22001 	ldrb	r2, [r2, #1]
 8006fb8:	e7c30001 	strb	r0, [r3, r1]
 8006fbc:	e0830001 	add	r0, r3, r1
 8006fc0:	e5c02001 	strb	r2, [r0, #1]
 8006fc4:	ea000042 	b	0x80070d4
 8006fc8:	e8900006 	ldm	r0, {r1, r2}
 8006fcc:	e3a0707f 	mov	r7, #127	@ 0x7f
 8006fd0:	e28d000c 	add	r0, sp, #12
 8006fd4:	e1a03007 	mov	r3, r7
 8006fd8:	e201700f 	and	r7, r1, #15
 8006fdc:	e1a01221 	lsr	r1, r1, #4
 8006fe0:	e2876057 	add	r6, r7, #87	@ 0x57
 8006fe4:	e357000a 	cmp	r7, #10
 8006fe8:	e1811e02 	orr	r1, r1, r2, lsl #28
 8006fec:	33876030 	orrcc	r6, r7, #48	@ 0x30
 8006ff0:	e1917222 	orrs	r7, r1, r2, lsr #4
 8006ff4:	e1a02222 	lsr	r2, r2, #4
 8006ff8:	e2437001 	sub	r7, r3, #1
 8006ffc:	e7c06003 	strb	r6, [r0, r3]
 8007000:	1afffff3 	bne	0x8006fd4
 8007004:	ea00000e 	b	0x8007044
 8007008:	e8900006 	ldm	r0, {r1, r2}
 800700c:	e3a0707f 	mov	r7, #127	@ 0x7f
 8007010:	e28d000c 	add	r0, sp, #12
 8007014:	e1a03007 	mov	r3, r7
 8007018:	e201700f 	and	r7, r1, #15
 800701c:	e1a01221 	lsr	r1, r1, #4
 8007020:	e2876037 	add	r6, r7, #55	@ 0x37
 8007024:	e357000a 	cmp	r7, #10
 8007028:	e1811e02 	orr	r1, r1, r2, lsl #28
 800702c:	33876030 	orrcc	r6, r7, #48	@ 0x30
 8007030:	e1917222 	orrs	r7, r1, r2, lsr #4
 8007034:	e1a02222 	lsr	r2, r2, #4
 8007038:	e2437001 	sub	r7, r3, #1
 800703c:	e7c06003 	strb	r6, [r0, r3]
 8007040:	1afffff3 	bne	0x8007014
 8007044:	e2831001 	add	r1, r3, #1
 8007048:	e0803003 	add	r3, r0, r3
 800704c:	e1a00005 	mov	r0, r5
 8007050:	e3a02002 	mov	r2, #2
 8007054:	e2611081 	rsb	r1, r1, #129	@ 0x81
 8007058:	e58d1000 	str	r1, [sp]
 800705c:	e59f109c 	ldr	r1, [pc, #156]	@ 0x8007100
 8007060:	eb000029 	bl	0x800710c
 8007064:	e24bd01c 	sub	sp, fp, #28
 8007068:	e8bd4ff0 	pop	{r4, r5, r6, r7, r8, r9, sl, fp, lr}
 800706c:	e12fff1e 	bx	lr
 8007070:	e3a01014 	mov	r1, #20
 8007074:	e3580063 	cmp	r8, #99	@ 0x63
 8007078:	9affffc6 	bls	0x8006f98
 800707c:	e008000c 	and	r0, r8, ip
 8007080:	e2411002 	sub	r1, r1, #2
 8007084:	e28d700c 	add	r7, sp, #12
 8007088:	e1a00120 	lsr	r0, r0, #2
 800708c:	e0020e90 	mul	r2, r0, lr
 8007090:	e1a008a2 	lsr	r0, r2, #17
 8007094:	e3a02064 	mov	r2, #100	@ 0x64
 8007098:	e0030290 	mul	r3, r0, r2
 800709c:	e0482003 	sub	r2, r8, r3
 80070a0:	e59f305c 	ldr	r3, [pc, #92]	@ 0x8007104
 80070a4:	e002200c 	and	r2, r2, ip
 80070a8:	e7f32082 	ldrb	r2, [r3, r2, lsl #1]!
 80070ac:	e5d33001 	ldrb	r3, [r3, #1]
 80070b0:	e7c72001 	strb	r2, [r7, r1]
 80070b4:	e0872001 	add	r2, r7, r1
 80070b8:	e5c23001 	strb	r3, [r2, #1]
 80070bc:	e350000a 	cmp	r0, #10
 80070c0:	2affffb7 	bcs	0x8006fa4
 80070c4:	e2411001 	sub	r1, r1, #1
 80070c8:	e3800030 	orr	r0, r0, #48	@ 0x30
 80070cc:	e28d200c 	add	r2, sp, #12
 80070d0:	e7c20001 	strb	r0, [r2, r1]
 80070d4:	e2610014 	rsb	r0, r1, #20
 80070d8:	e3a02000 	mov	r2, #0
 80070dc:	e58d0000 	str	r0, [sp]
 80070e0:	e28d000c 	add	r0, sp, #12
 80070e4:	e0803001 	add	r3, r0, r1
 80070e8:	e1a00005 	mov	r0, r5
 80070ec:	e3a01001 	mov	r1, #1
 80070f0:	eb000005 	bl	0x800710c
 80070f4:	e24bd01c 	sub	sp, fp, #28
 80070f8:	e8bd4ff0 	pop	{r4, r5, r6, r7, r8, r9, sl, fp, lr}
 80070fc:	e12fff1e 	bx	lr
 8007100:	082fda0e 	stmdaeq	pc!, {r1, r2, r3, r9, fp, ip, lr, pc}	@ <UNPREDICTABLE>
 8007104:	082fda10 	stmdaeq	pc!, {r4, r9, fp, ip, lr, pc}	@ <UNPREDICTABLE>
 8007108:	05f5e0ff 	ldrbeq	lr, [r5, #255]!	@ 0xff
 800710c:	e92d4ff0 	push	{r4, r5, r6, r7, r8, r9, sl, fp, lr}
 8007110:	e28db01c 	add	fp, sp, #28
 8007114:	e24dd01c 	sub	sp, sp, #28
 8007118:	e58d1018 	str	r1, [sp, #24]
 800711c:	e5901014 	ldr	r1, [r0, #20]
 8007120:	e1a09002 	mov	r9, r2
 8007124:	e3a0702b 	mov	r7, #43	@ 0x2b
 8007128:	e1a08003 	mov	r8, r3
 800712c:	e59b4008 	ldr	r4, [fp, #8]
 8007130:	e2112001 	ands	r2, r1, #1
 8007134:	e082a004 	add	sl, r2, r4
 8007138:	03a07811 	moveq	r7, #1114112	@ 0x110000
 800713c:	e3a02000 	mov	r2, #0
 8007140:	e3110004 	tst	r1, #4
 8007144:	1a000016 	bne	0x80071a4
 8007148:	e58d2018 	str	r2, [sp, #24]
 800714c:	e5902000 	ldr	r2, [r0]
 8007150:	e3520000 	cmp	r2, #0
 8007154:	1a00001f 	bne	0x80071d8
 8007158:	e5906020 	ldr	r6, [r0, #32]
 800715c:	e590501c 	ldr	r5, [r0, #28]
 8007160:	e58d9000 	str	r9, [sp]
 8007164:	e1a02007 	mov	r2, r7
 8007168:	e59d3018 	ldr	r3, [sp, #24]
 800716c:	e1a00005 	mov	r0, r5
 8007170:	e1a01006 	mov	r1, r6
 8007174:	eb0000b2 	bl	0x8007444
 8007178:	e1a01000 	mov	r1, r0
 800717c:	e3a00001 	mov	r0, #1
 8007180:	e3510000 	cmp	r1, #0
 8007184:	1a00004b 	bne	0x80072b8
 8007188:	e596300c 	ldr	r3, [r6, #12]
 800718c:	e1a00005 	mov	r0, r5
 8007190:	e1a01008 	mov	r1, r8
 8007194:	e1a02004 	mov	r2, r4
 8007198:	e24bd01c 	sub	sp, fp, #28
 800719c:	e8bd4ff0 	pop	{r4, r5, r6, r7, r8, r9, sl, fp, lr}
 80071a0:	e12fff13 	bx	r3
 80071a4:	e3590000 	cmp	r9, #0
 80071a8:	0a000006 	beq	0x80071c8
 80071ac:	e59d3018 	ldr	r3, [sp, #24]
 80071b0:	e1a06009 	mov	r6, r9
 80071b4:	e0d350d1 	ldrsb	r5, [r3], #1
 80071b8:	e3750041 	cmn	r5, #65	@ 0x41
 80071bc:	c2822001 	addgt	r2, r2, #1
 80071c0:	e2566001 	subs	r6, r6, #1
 80071c4:	1afffffa 	bne	0x80071b4
 80071c8:	e082a00a 	add	sl, r2, sl
 80071cc:	e5902000 	ldr	r2, [r0]
 80071d0:	e3520000 	cmp	r2, #0
 80071d4:	0affffdf 	beq	0x8007158
 80071d8:	e58d8014 	str	r8, [sp, #20]
 80071dc:	e5908004 	ldr	r8, [r0, #4]
 80071e0:	e158000a 	cmp	r8, sl
 80071e4:	9a00000d 	bls	0x8007220
 80071e8:	e3110008 	tst	r1, #8
 80071ec:	e58d4010 	str	r4, [sp, #16]
 80071f0:	1a00001d 	bne	0x800726c
 80071f4:	e5d01018 	ldrb	r1, [r0, #24]
 80071f8:	e048200a 	sub	r2, r8, sl
 80071fc:	e3510003 	cmp	r1, #3
 8007200:	03a01001 	moveq	r1, #1
 8007204:	e3510000 	cmp	r1, #0
 8007208:	0a00003e 	beq	0x8007308
 800720c:	e3510001 	cmp	r1, #1
 8007210:	1a00003e 	bne	0x8007310
 8007214:	e3a0a000 	mov	sl, #0
 8007218:	e1a01002 	mov	r1, r2
 800721c:	ea00003e 	b	0x800731c
 8007220:	e5906020 	ldr	r6, [r0, #32]
 8007224:	e590501c 	ldr	r5, [r0, #28]
 8007228:	e58d9000 	str	r9, [sp]
 800722c:	e1a02007 	mov	r2, r7
 8007230:	e59d3018 	ldr	r3, [sp, #24]
 8007234:	e1a00005 	mov	r0, r5
 8007238:	e1a01006 	mov	r1, r6
 800723c:	eb000080 	bl	0x8007444
 8007240:	e1a01000 	mov	r1, r0
 8007244:	e3a00001 	mov	r0, #1
 8007248:	e3510000 	cmp	r1, #0
 800724c:	e59d1014 	ldr	r1, [sp, #20]
 8007250:	1a000018 	bne	0x80072b8
 8007254:	e596300c 	ldr	r3, [r6, #12]
 8007258:	e1a00005 	mov	r0, r5
 800725c:	e1a02004 	mov	r2, r4
 8007260:	e24bd01c 	sub	sp, fp, #28
 8007264:	e8bd4ff0 	pop	{r4, r5, r6, r7, r8, r9, sl, fp, lr}
 8007268:	e12fff13 	bx	r3
 800726c:	e3a01030 	mov	r1, #48	@ 0x30
 8007270:	e5904010 	ldr	r4, [r0, #16]
 8007274:	e590501c 	ldr	r5, [r0, #28]
 8007278:	e5906020 	ldr	r6, [r0, #32]
 800727c:	e1a02007 	mov	r2, r7
 8007280:	e5801010 	str	r1, [r0, #16]
 8007284:	e5d01018 	ldrb	r1, [r0, #24]
 8007288:	e58d1008 	str	r1, [sp, #8]
 800728c:	e3a01001 	mov	r1, #1
 8007290:	e58d000c 	str	r0, [sp, #12]
 8007294:	e5c01018 	strb	r1, [r0, #24]
 8007298:	e58d9000 	str	r9, [sp]
 800729c:	e1a00005 	mov	r0, r5
 80072a0:	e1a01006 	mov	r1, r6
 80072a4:	e59d3018 	ldr	r3, [sp, #24]
 80072a8:	eb000065 	bl	0x8007444
 80072ac:	e3500000 	cmp	r0, #0
 80072b0:	0a000003 	beq	0x80072c4
 80072b4:	e3a00001 	mov	r0, #1
 80072b8:	e24bd01c 	sub	sp, fp, #28
 80072bc:	e8bd4ff0 	pop	{r4, r5, r6, r7, r8, r9, sl, fp, lr}
 80072c0:	e12fff1e 	bx	lr
 80072c4:	e59d7014 	ldr	r7, [sp, #20]
 80072c8:	e048000a 	sub	r0, r8, sl
 80072cc:	e1a09004 	mov	r9, r4
 80072d0:	e2804001 	add	r4, r0, #1
 80072d4:	e2544001 	subs	r4, r4, #1
 80072d8:	0a000041 	beq	0x80073e4
 80072dc:	e5962010 	ldr	r2, [r6, #16]
 80072e0:	e1a00005 	mov	r0, r5
 80072e4:	e3a01030 	mov	r1, #48	@ 0x30
 80072e8:	e1a0e00f 	mov	lr, pc
 80072ec:	e12fff12 	bx	r2
 80072f0:	e3500000 	cmp	r0, #0
 80072f4:	0afffff6 	beq	0x80072d4
 80072f8:	e3a00001 	mov	r0, #1
 80072fc:	e24bd01c 	sub	sp, fp, #28
 8007300:	e8bd4ff0 	pop	{r4, r5, r6, r7, r8, r9, sl, fp, lr}
 8007304:	e12fff1e 	bx	lr
 8007308:	e1a0a002 	mov	sl, r2
 800730c:	ea000002 	b	0x800731c
 8007310:	e1a010a2 	lsr	r1, r2, #1
 8007314:	e2822001 	add	r2, r2, #1
 8007318:	e1a0a0a2 	lsr	sl, r2, #1
 800731c:	e5905010 	ldr	r5, [r0, #16]
 8007320:	e590601c 	ldr	r6, [r0, #28]
 8007324:	e5908020 	ldr	r8, [r0, #32]
 8007328:	e2814001 	add	r4, r1, #1
 800732c:	e2544001 	subs	r4, r4, #1
 8007330:	0a00000a 	beq	0x8007360
 8007334:	e5982010 	ldr	r2, [r8, #16]
 8007338:	e1a00006 	mov	r0, r6
 800733c:	e1a01005 	mov	r1, r5
 8007340:	e1a0e00f 	mov	lr, pc
 8007344:	e12fff12 	bx	r2
 8007348:	e3500000 	cmp	r0, #0
 800734c:	0afffff6 	beq	0x800732c
 8007350:	e3a00001 	mov	r0, #1
 8007354:	e24bd01c 	sub	sp, fp, #28
 8007358:	e8bd4ff0 	pop	{r4, r5, r6, r7, r8, r9, sl, fp, lr}
 800735c:	e12fff1e 	bx	lr
 8007360:	e58d9000 	str	r9, [sp]
 8007364:	e1a00006 	mov	r0, r6
 8007368:	e1a01008 	mov	r1, r8
 800736c:	e1a02007 	mov	r2, r7
 8007370:	e59d3018 	ldr	r3, [sp, #24]
 8007374:	eb000032 	bl	0x8007444
 8007378:	e1a01000 	mov	r1, r0
 800737c:	e3a00001 	mov	r0, #1
 8007380:	e3510000 	cmp	r1, #0
 8007384:	1affffcb 	bne	0x80072b8
 8007388:	e598300c 	ldr	r3, [r8, #12]
 800738c:	e59d1014 	ldr	r1, [sp, #20]
 8007390:	e59d2010 	ldr	r2, [sp, #16]
 8007394:	e1a00006 	mov	r0, r6
 8007398:	e1a0e00f 	mov	lr, pc
 800739c:	e12fff13 	bx	r3
 80073a0:	e1a01000 	mov	r1, r0
 80073a4:	e3a00001 	mov	r0, #1
 80073a8:	e3510000 	cmp	r1, #0
 80073ac:	1affffc1 	bne	0x80072b8
 80073b0:	e3a04000 	mov	r4, #0
 80073b4:	e15a0004 	cmp	sl, r4
 80073b8:	0a00001a 	beq	0x8007428
 80073bc:	e5982010 	ldr	r2, [r8, #16]
 80073c0:	e1a00006 	mov	r0, r6
 80073c4:	e1a01005 	mov	r1, r5
 80073c8:	e1a0e00f 	mov	lr, pc
 80073cc:	e12fff12 	bx	r2
 80073d0:	e2844001 	add	r4, r4, #1
 80073d4:	e3500000 	cmp	r0, #0
 80073d8:	0afffff5 	beq	0x80073b4
 80073dc:	e2441001 	sub	r1, r4, #1
 80073e0:	ea000011 	b	0x800742c
 80073e4:	e596300c 	ldr	r3, [r6, #12]
 80073e8:	e59d2010 	ldr	r2, [sp, #16]
 80073ec:	e1a00005 	mov	r0, r5
 80073f0:	e1a01007 	mov	r1, r7
 80073f4:	e1a0e00f 	mov	lr, pc
 80073f8:	e12fff13 	bx	r3
 80073fc:	e3500000 	cmp	r0, #0
 8007400:	e3a00001 	mov	r0, #1
 8007404:	1affffab 	bne	0x80072b8
 8007408:	e59d000c 	ldr	r0, [sp, #12]
 800740c:	e59d1008 	ldr	r1, [sp, #8]
 8007410:	e5c01018 	strb	r1, [r0, #24]
 8007414:	e5809010 	str	r9, [r0, #16]
 8007418:	e3a00000 	mov	r0, #0
 800741c:	e24bd01c 	sub	sp, fp, #28
 8007420:	e8bd4ff0 	pop	{r4, r5, r6, r7, r8, r9, sl, fp, lr}
 8007424:	e12fff1e 	bx	lr
 8007428:	e1a0100a 	mov	r1, sl
 800742c:	e3a00000 	mov	r0, #0
 8007430:	e151000a 	cmp	r1, sl
 8007434:	33a00001 	movcc	r0, #1
 8007438:	e24bd01c 	sub	sp, fp, #28
 800743c:	e8bd4ff0 	pop	{r4, r5, r6, r7, r8, r9, sl, fp, lr}
 8007440:	e12fff1e 	bx	lr
 8007444:	e92d48f0 	push	{r4, r5, r6, r7, fp, lr}
 8007448:	e28db010 	add	fp, sp, #16
 800744c:	e59b5008 	ldr	r5, [fp, #8]
 8007450:	e1a04003 	mov	r4, r3
 8007454:	e1a06001 	mov	r6, r1
 8007458:	e3520811 	cmp	r2, #1114112	@ 0x110000
 800745c:	0a000009 	beq	0x8007488
 8007460:	e5963010 	ldr	r3, [r6, #16]
 8007464:	e1a01002 	mov	r1, r2
 8007468:	e1a07000 	mov	r7, r0
 800746c:	e1a0e00f 	mov	lr, pc
 8007470:	e12fff13 	bx	r3
 8007474:	e1a02000 	mov	r2, r0
 8007478:	e1a00007 	mov	r0, r7
 800747c:	e3a01001 	mov	r1, #1
 8007480:	e3520000 	cmp	r2, #0
 8007484:	1a000007 	bne	0x80074a8
 8007488:	e3540000 	cmp	r4, #0
 800748c:	0a000004 	beq	0x80074a4
 8007490:	e596300c 	ldr	r3, [r6, #12]
 8007494:	e1a01004 	mov	r1, r4
 8007498:	e1a02005 	mov	r2, r5
 800749c:	e8bd48f0 	pop	{r4, r5, r6, r7, fp, lr}
 80074a0:	e12fff13 	bx	r3
 80074a4:	e3a01000 	mov	r1, #0
 80074a8:	e1a00001 	mov	r0, r1
 80074ac:	e8bd48f0 	pop	{r4, r5, r6, r7, fp, lr}
 80074b0:	e12fff1e 	bx	lr
 80074b4:	e92d4ff0 	push	{r4, r5, r6, r7, r8, r9, sl, fp, lr}
 80074b8:	e28db01c 	add	fp, sp, #28
 80074bc:	e24dd014 	sub	sp, sp, #20
 80074c0:	e1a04000 	mov	r4, r0
 80074c4:	e5900000 	ldr	r0, [r0]
 80074c8:	e1a02001 	mov	r2, r1
 80074cc:	e3500001 	cmp	r0, #1
 80074d0:	1a00000d 	bne	0x800750c
 80074d4:	e5d40014 	ldrb	r0, [r4, #20]
 80074d8:	e89201c2 	ldm	r2, {r1, r6, r7, r8}
 80074dc:	e5949010 	ldr	r9, [r4, #16]
 80074e0:	e594a004 	ldr	sl, [r4, #4]
 80074e4:	e5d4c018 	ldrb	ip, [r4, #24]
 80074e8:	e3100008 	tst	r0, #8
 80074ec:	e98d01c2 	stmib	sp, {r1, r6, r7, r8}
 80074f0:	e58d9000 	str	r9, [sp]
 80074f4:	1a000009 	bne	0x8007520
 80074f8:	e1a01006 	mov	r1, r6
 80074fc:	e1a0000c 	mov	r0, ip
 8007500:	e3580000 	cmp	r8, #0
 8007504:	1a000019 	bne	0x8007570
 8007508:	ea000038 	b	0x80075f0
 800750c:	e594001c 	ldr	r0, [r4, #28]
 8007510:	e5941020 	ldr	r1, [r4, #32]
 8007514:	e24bd01c 	sub	sp, fp, #28
 8007518:	e8bd4ff0 	pop	{r4, r5, r6, r7, r8, r9, sl, fp, lr}
 800751c:	ea000079 	b	0x8007708
 8007520:	e5942020 	ldr	r2, [r4, #32]
 8007524:	e594001c 	ldr	r0, [r4, #28]
 8007528:	e1a0500c 	mov	r5, ip
 800752c:	e592300c 	ldr	r3, [r2, #12]
 8007530:	e1a02006 	mov	r2, r6
 8007534:	e1a0e00f 	mov	lr, pc
 8007538:	e12fff13 	bx	r3
 800753c:	e3500000 	cmp	r0, #0
 8007540:	1a000055 	bne	0x800769c
 8007544:	e3a00001 	mov	r0, #1
 8007548:	e3a09030 	mov	r9, #48	@ 0x30
 800754c:	e3a01000 	mov	r1, #0
 8007550:	e05aa006 	subs	sl, sl, r6
 8007554:	e1a0c005 	mov	ip, r5
 8007558:	e5c40018 	strb	r0, [r4, #24]
 800755c:	e5849010 	str	r9, [r4, #16]
 8007560:	e98d0003 	stmib	sp, {r0, r1}
 8007564:	31a0a001 	movcc	sl, r1
 8007568:	e3580000 	cmp	r8, #0
 800756c:	0a00001f 	beq	0x80075f0
 8007570:	e0883088 	add	r3, r8, r8, lsl #1
 8007574:	e3a06e71 	mov	r6, #1808	@ 0x710
 8007578:	e2872004 	add	r2, r7, #4
 800757c:	e1a03103 	lsl	r3, r3, #2
 8007580:	e3866a02 	orr	r6, r6, #8192	@ 0x2000
 8007584:	ea000004 	b	0x800759c
 8007588:	e5927000 	ldr	r7, [r2]
 800758c:	e0871001 	add	r1, r7, r1
 8007590:	e253300c 	subs	r3, r3, #12
 8007594:	e282200c 	add	r2, r2, #12
 8007598:	0a000014 	beq	0x80075f0
 800759c:	e15270b4 	ldrh	r7, [r2, #-4]
 80075a0:	e3570000 	cmp	r7, #0
 80075a4:	0afffff7 	beq	0x8007588
 80075a8:	e3570001 	cmp	r7, #1
 80075ac:	1a000009 	bne	0x80075d8
 80075b0:	e15250b2 	ldrh	r5, [r2, #-2]
 80075b4:	e3550ffa 	cmp	r5, #1000	@ 0x3e8
 80075b8:	2a000008 	bcs	0x80075e0
 80075bc:	e3a07001 	mov	r7, #1
 80075c0:	e355000a 	cmp	r5, #10
 80075c4:	3afffff0 	bcc	0x800758c
 80075c8:	e3550064 	cmp	r5, #100	@ 0x64
 80075cc:	e3a07003 	mov	r7, #3
 80075d0:	33a07002 	movcc	r7, #2
 80075d4:	eaffffec 	b	0x800758c
 80075d8:	e5927004 	ldr	r7, [r2, #4]
 80075dc:	eaffffea 	b	0x800758c
 80075e0:	e1550006 	cmp	r5, r6
 80075e4:	e3a07005 	mov	r7, #5
 80075e8:	33a07004 	movcc	r7, #4
 80075ec:	eaffffe6 	b	0x800758c
 80075f0:	e15a0001 	cmp	sl, r1
 80075f4:	9a00000a 	bls	0x8007624
 80075f8:	e3500003 	cmp	r0, #3
 80075fc:	e04a1001 	sub	r1, sl, r1
 8007600:	e1a0800c 	mov	r8, ip
 8007604:	03a00001 	moveq	r0, #1
 8007608:	e3500000 	cmp	r0, #0
 800760c:	0a00000a 	beq	0x800763c
 8007610:	e3500001 	cmp	r0, #1
 8007614:	1a00000a 	bne	0x8007644
 8007618:	e3a0a000 	mov	sl, #0
 800761c:	e1a00001 	mov	r0, r1
 8007620:	ea00000a 	b	0x8007650
 8007624:	e594001c 	ldr	r0, [r4, #28]
 8007628:	e5941020 	ldr	r1, [r4, #32]
 800762c:	e28d2004 	add	r2, sp, #4
 8007630:	e1a0800c 	mov	r8, ip
 8007634:	eb000033 	bl	0x8007708
 8007638:	ea00002c 	b	0x80076f0
 800763c:	e1a0a001 	mov	sl, r1
 8007640:	ea000002 	b	0x8007650
 8007644:	e1a000a1 	lsr	r0, r1, #1
 8007648:	e2811001 	add	r1, r1, #1
 800764c:	e1a0a0a1 	lsr	sl, r1, #1
 8007650:	e594601c 	ldr	r6, [r4, #28]
 8007654:	e5947020 	ldr	r7, [r4, #32]
 8007658:	e2805001 	add	r5, r0, #1
 800765c:	e2555001 	subs	r5, r5, #1
 8007660:	0a000007 	beq	0x8007684
 8007664:	e5972010 	ldr	r2, [r7, #16]
 8007668:	e1a00006 	mov	r0, r6
 800766c:	e1a01009 	mov	r1, r9
 8007670:	e1a0e00f 	mov	lr, pc
 8007674:	e12fff12 	bx	r2
 8007678:	e3500000 	cmp	r0, #0
 800767c:	0afffff6 	beq	0x800765c
 8007680:	ea000005 	b	0x800769c
 8007684:	e28d2004 	add	r2, sp, #4
 8007688:	e1a00006 	mov	r0, r6
 800768c:	e1a01007 	mov	r1, r7
 8007690:	eb00001c 	bl	0x8007708
 8007694:	e3500000 	cmp	r0, #0
 8007698:	0a000003 	beq	0x80076ac
 800769c:	e3a00001 	mov	r0, #1
 80076a0:	e24bd01c 	sub	sp, fp, #28
 80076a4:	e8bd4ff0 	pop	{r4, r5, r6, r7, r8, r9, sl, fp, lr}
 80076a8:	e12fff1e 	bx	lr
 80076ac:	e3a05000 	mov	r5, #0
 80076b0:	e15a0005 	cmp	sl, r5
 80076b4:	0a000009 	beq	0x80076e0
 80076b8:	e5972010 	ldr	r2, [r7, #16]
 80076bc:	e1a00006 	mov	r0, r6
 80076c0:	e1a01009 	mov	r1, r9
 80076c4:	e1a0e00f 	mov	lr, pc
 80076c8:	e12fff12 	bx	r2
 80076cc:	e2855001 	add	r5, r5, #1
 80076d0:	e3500000 	cmp	r0, #0
 80076d4:	0afffff5 	beq	0x80076b0
 80076d8:	e2451001 	sub	r1, r5, #1
 80076dc:	ea000000 	b	0x80076e4
 80076e0:	e1a0100a 	mov	r1, sl
 80076e4:	e3a00000 	mov	r0, #0
 80076e8:	e151000a 	cmp	r1, sl
 80076ec:	33a00001 	movcc	r0, #1
 80076f0:	e59d1000 	ldr	r1, [sp]
 80076f4:	e5c48018 	strb	r8, [r4, #24]
 80076f8:	e5841010 	str	r1, [r4, #16]
 80076fc:	e24bd01c 	sub	sp, fp, #28
 8007700:	e8bd4ff0 	pop	{r4, r5, r6, r7, r8, r9, sl, fp, lr}
 8007704:	e12fff1e 	bx	lr
 8007708:	e92d4ff0 	push	{r4, r5, r6, r7, r8, r9, sl, fp, lr}
 800770c:	e28db01c 	add	fp, sp, #28
 8007710:	e24dd00c 	sub	sp, sp, #12
 8007714:	e1a06002 	mov	r6, r2
 8007718:	e5922004 	ldr	r2, [r2, #4]
 800771c:	e1a09001 	mov	r9, r1
 8007720:	e1a05000 	mov	r5, r0
 8007724:	e3520000 	cmp	r2, #0
 8007728:	0a000008 	beq	0x8007750
 800772c:	e599300c 	ldr	r3, [r9, #12]
 8007730:	e5961000 	ldr	r1, [r6]
 8007734:	e1a00005 	mov	r0, r5
 8007738:	e1a0e00f 	mov	lr, pc
 800773c:	e12fff13 	bx	r3
 8007740:	e1a01000 	mov	r1, r0
 8007744:	e3a00001 	mov	r0, #1
 8007748:	e3510000 	cmp	r1, #0
 800774c:	1a000091 	bne	0x8007998
 8007750:	e596000c 	ldr	r0, [r6, #12]
 8007754:	e3500000 	cmp	r0, #0
 8007758:	0a00008d 	beq	0x8007994
 800775c:	e5964008 	ldr	r4, [r6, #8]
 8007760:	e59f823c 	ldr	r8, [pc, #572]	@ 0x80079a4
 8007764:	e0800080 	add	r0, r0, r0, lsl #1
 8007768:	e28d6004 	add	r6, sp, #4
 800776c:	e084a100 	add	sl, r4, r0, lsl #2
 8007770:	ea000009 	b	0x800779c
 8007774:	e599300c 	ldr	r3, [r9, #12]
 8007778:	e1a00005 	mov	r0, r5
 800777c:	e1a01006 	mov	r1, r6
 8007780:	e1a0e00f 	mov	lr, pc
 8007784:	e12fff13 	bx	r3
 8007788:	e28d6004 	add	r6, sp, #4
 800778c:	e3500000 	cmp	r0, #0
 8007790:	1a00007b 	bne	0x8007984
 8007794:	e154000a 	cmp	r4, sl
 8007798:	0a00007d 	beq	0x8007994
 800779c:	e1a00004 	mov	r0, r4
 80077a0:	e0d410bc 	ldrh	r1, [r4], #12
 80077a4:	e3510000 	cmp	r1, #0
 80077a8:	0a00000e 	beq	0x80077e8
 80077ac:	e3510001 	cmp	r1, #1
 80077b0:	1a00001b 	bne	0x8007824
 80077b4:	e1d000b2 	ldrh	r0, [r0, #2]
 80077b8:	e3a01000 	mov	r1, #0
 80077bc:	e5cd1008 	strb	r1, [sp, #8]
 80077c0:	e58d1004 	str	r1, [sp, #4]
 80077c4:	e3500ffa 	cmp	r0, #1000	@ 0x3e8
 80077c8:	2a00001e 	bcs	0x8007848
 80077cc:	e3a02001 	mov	r2, #1
 80077d0:	e350000a 	cmp	r0, #10
 80077d4:	3a000020 	bcc	0x800785c
 80077d8:	e3500064 	cmp	r0, #100	@ 0x64
 80077dc:	e3a02003 	mov	r2, #3
 80077e0:	33a02002 	movcc	r2, #2
 80077e4:	ea00001c 	b	0x800785c
 80077e8:	e5907004 	ldr	r7, [r0, #4]
 80077ec:	e3570041 	cmp	r7, #65	@ 0x41
 80077f0:	3a000058 	bcc	0x8007958
 80077f4:	e599600c 	ldr	r6, [r9, #12]
 80077f8:	e1a00005 	mov	r0, r5
 80077fc:	e1a01008 	mov	r1, r8
 8007800:	e3a02040 	mov	r2, #64	@ 0x40
 8007804:	e1a0e00f 	mov	lr, pc
 8007808:	e12fff16 	bx	r6
 800780c:	e3500000 	cmp	r0, #0
 8007810:	1a00005b 	bne	0x8007984
 8007814:	e2477040 	sub	r7, r7, #64	@ 0x40
 8007818:	e3570040 	cmp	r7, #64	@ 0x40
 800781c:	8afffff5 	bhi	0x80077f8
 8007820:	ea00004f 	b	0x8007964
 8007824:	e9900006 	ldmib	r0, {r1, r2}
 8007828:	e599300c 	ldr	r3, [r9, #12]
 800782c:	e1a00005 	mov	r0, r5
 8007830:	e1a0e00f 	mov	lr, pc
 8007834:	e12fff13 	bx	r3
 8007838:	e28d6004 	add	r6, sp, #4
 800783c:	e3500000 	cmp	r0, #0
 8007840:	0affffd3 	beq	0x8007794
 8007844:	ea00004e 	b	0x8007984
 8007848:	e3a01e71 	mov	r1, #1808	@ 0x710
 800784c:	e3a02005 	mov	r2, #5
 8007850:	e3811a02 	orr	r1, r1, #8192	@ 0x2000
 8007854:	e1500001 	cmp	r0, r1
 8007858:	33a02004 	movcc	r2, #4
 800785c:	e3a010cd 	mov	r1, #205	@ 0xcd
 8007860:	e086c002 	add	ip, r6, r2
 8007864:	e3811b33 	orr	r1, r1, #52224	@ 0xcc00
 8007868:	e0030190 	mul	r3, r0, r1
 800786c:	e1a0100c 	mov	r1, ip
 8007870:	e1a039a3 	lsr	r3, r3, #19
 8007874:	e0837103 	add	r7, r3, r3, lsl #2
 8007878:	e0407087 	sub	r7, r0, r7, lsl #1
 800787c:	e3877030 	orr	r7, r7, #48	@ 0x30
 8007880:	e5617001 	strb	r7, [r1, #-1]!
 8007884:	e1560001 	cmp	r6, r1
 8007888:	0affffb9 	beq	0x8007774
 800788c:	e3a0709a 	mov	r7, #154	@ 0x9a
 8007890:	e3877c19 	orr	r7, r7, #6400	@ 0x1900
 8007894:	e0010793 	mul	r1, r3, r7
 8007898:	e1a01821 	lsr	r1, r1, #16
 800789c:	e0811101 	add	r1, r1, r1, lsl #2
 80078a0:	e0431081 	sub	r1, r3, r1, lsl #1
 80078a4:	e1a0300c 	mov	r3, ip
 80078a8:	e3811030 	orr	r1, r1, #48	@ 0x30
 80078ac:	e5631002 	strb	r1, [r3, #-2]!
 80078b0:	e1560003 	cmp	r6, r3
 80078b4:	0affffae 	beq	0x8007774
 80078b8:	e3a0707b 	mov	r7, #123	@ 0x7b
 80078bc:	e1a01120 	lsr	r1, r0, #2
 80078c0:	e3877b05 	orr	r7, r7, #5120	@ 0x1400
 80078c4:	e0030791 	mul	r3, r1, r7
 80078c8:	e3a0709a 	mov	r7, #154	@ 0x9a
 80078cc:	e1a018a3 	lsr	r1, r3, #17
 80078d0:	e3877c19 	orr	r7, r7, #6400	@ 0x1900
 80078d4:	e0030791 	mul	r3, r1, r7
 80078d8:	e1a03823 	lsr	r3, r3, #16
 80078dc:	e0833103 	add	r3, r3, r3, lsl #2
 80078e0:	e0411083 	sub	r1, r1, r3, lsl #1
 80078e4:	e1a0300c 	mov	r3, ip
 80078e8:	e3811030 	orr	r1, r1, #48	@ 0x30
 80078ec:	e5631003 	strb	r1, [r3, #-3]!
 80078f0:	e1560003 	cmp	r6, r3
 80078f4:	0affff9e 	beq	0x8007774
 80078f8:	e3a070c5 	mov	r7, #197	@ 0xc5
 80078fc:	e1a011a0 	lsr	r1, r0, #3
 8007900:	e3877a02 	orr	r7, r7, #8192	@ 0x2000
 8007904:	e0030791 	mul	r3, r1, r7
 8007908:	e3a0709a 	mov	r7, #154	@ 0x9a
 800790c:	e1a01a23 	lsr	r1, r3, #20
 8007910:	e3877c19 	orr	r7, r7, #6400	@ 0x1900
 8007914:	e0030791 	mul	r3, r1, r7
 8007918:	e1a03823 	lsr	r3, r3, #16
 800791c:	e0833103 	add	r3, r3, r3, lsl #2
 8007920:	e0411083 	sub	r1, r1, r3, lsl #1
 8007924:	e1a0300c 	mov	r3, ip
 8007928:	e3811030 	orr	r1, r1, #48	@ 0x30
 800792c:	e5631004 	strb	r1, [r3, #-4]!
 8007930:	e1560003 	cmp	r6, r3
 8007934:	0affff8e 	beq	0x8007774
 8007938:	e3a03047 	mov	r3, #71	@ 0x47
 800793c:	e1a00220 	lsr	r0, r0, #4
 8007940:	e3833c03 	orr	r3, r3, #768	@ 0x300
 8007944:	e0010390 	mul	r1, r0, r3
 8007948:	e3a00030 	mov	r0, #48	@ 0x30
 800794c:	e18009a1 	orr	r0, r0, r1, lsr #19
 8007950:	e54c0005 	strb	r0, [ip, #-5]
 8007954:	eaffff86 	b	0x8007774
 8007958:	e3570000 	cmp	r7, #0
 800795c:	0affff8c 	beq	0x8007794
 8007960:	e599600c 	ldr	r6, [r9, #12]
 8007964:	e1a00005 	mov	r0, r5
 8007968:	e1a01008 	mov	r1, r8
 800796c:	e1a02007 	mov	r2, r7
 8007970:	e1a0e00f 	mov	lr, pc
 8007974:	e12fff16 	bx	r6
 8007978:	e3500000 	cmp	r0, #0
 800797c:	e28d6004 	add	r6, sp, #4
 8007980:	0affff83 	beq	0x8007794
 8007984:	e3a00001 	mov	r0, #1
 8007988:	e24bd01c 	sub	sp, fp, #28
 800798c:	e8bd4ff0 	pop	{r4, r5, r6, r7, r8, r9, sl, fp, lr}
 8007990:	e12fff1e 	bx	lr
 8007994:	e3a00000 	mov	r0, #0
 8007998:	e24bd01c 	sub	sp, fp, #28
 800799c:	e8bd4ff0 	pop	{r4, r5, r6, r7, r8, r9, sl, fp, lr}
 80079a0:	e12fff1e 	bx	lr
 80079a4:	082fd9a3 	stmdaeq	pc!, {r0, r1, r5, r7, r8, fp, ip, lr, pc}	@ <UNPREDICTABLE>
 80079a8:	e92d4ff0 	push	{r4, r5, r6, r7, r8, r9, sl, fp, lr}
 80079ac:	e28db01c 	add	fp, sp, #28
 80079b0:	e24ddff1 	sub	sp, sp, #964	@ 0x3c4
 80079b4:	e24ddb01 	sub	sp, sp, #1024	@ 0x400
 80079b8:	e59f6fe0 	ldr	r6, [pc, #4064]	@ 0x80089a0
 80079bc:	e3e07001 	mvn	r7, #1
 80079c0:	e1a0c000 	mov	ip, r0
 80079c4:	e3a000ff 	mov	r0, #255	@ 0xff
 80079c8:	e0100ba1 	ands	r0, r0, r1, lsr #23
 80079cc:	e24774ff 	sub	r7, r7, #-16777216	@ 0xff000000
 80079d0:	e0015006 	and	r5, r1, r6
 80079d4:	e3c16102 	bic	r6, r1, #-2147483648	@ 0x80000000
 80079d8:	e3854502 	orr	r4, r5, #8388608	@ 0x800000
 80079dc:	00074081 	andeq	r4, r7, r1, lsl #1
 80079e0:	e3a075fe 	mov	r7, #1065353216	@ 0x3f800000
 80079e4:	e3877101 	orr	r7, r7, #1073741824	@ 0x40000000
 80079e8:	e1560007 	cmp	r6, r7
 80079ec:	1a000020 	bne	0x8007a74
 80079f0:	e3a00003 	mov	r0, #3
 80079f4:	e2400002 	sub	r0, r0, #2
 80079f8:	e3a0a000 	mov	sl, #0
 80079fc:	e3a04402 	mov	r4, #33554432	@ 0x2000000
 8007a00:	e3a0e002 	mov	lr, #2
 8007a04:	e3a09000 	mov	r9, #0
 8007a08:	e59f7fbc 	ldr	r7, [pc, #4028]	@ 0x80089cc
 8007a0c:	e1b06fa1 	lsrs	r6, r1, #31
 8007a10:	e59f5fb8 	ldr	r5, [pc, #4024]	@ 0x80089d0
 8007a14:	e3a01001 	mov	r1, #1
 8007a18:	11a05007 	movne	r5, r7
 8007a1c:	01a07001 	moveq	r7, r1
 8007a20:	e3520000 	cmp	r2, #0
 8007a24:	11a07005 	movne	r7, r5
 8007a28:	e3a05003 	mov	r5, #3
 8007a2c:	e3500003 	cmp	r0, #3
 8007a30:	21a00005 	movcs	r0, r5
 8007a34:	e3520000 	cmp	r2, #0
 8007a38:	13a06001 	movne	r6, #1
 8007a3c:	e3500001 	cmp	r0, #1
 8007a40:	0a00001c 	beq	0x8007ab8
 8007a44:	e3500002 	cmp	r0, #2
 8007a48:	1a00001d 	bne	0x8007ac4
 8007a4c:	e3a01002 	mov	r1, #2
 8007a50:	e3530000 	cmp	r3, #0
 8007a54:	e14b1cb4 	strh	r1, [fp, #-196]	@ 0xffffff3c
 8007a58:	0a00009b 	beq	0x8007ccc
 8007a5c:	e3a00000 	mov	r0, #0
 8007a60:	e50b30b4 	str	r3, [fp, #-180]	@ 0xffffff4c
 8007a64:	e50b10bc 	str	r1, [fp, #-188]	@ 0xffffff44
 8007a68:	e14b0bb8 	strh	r0, [fp, #-184]	@ 0xffffff48
 8007a6c:	e59f0fcc 	ldr	r0, [pc, #4044]	@ 0x8008a40
 8007a70:	ea000098 	b	0x8007cd8
 8007a74:	e0016007 	and	r6, r1, r7
 8007a78:	e1560007 	cmp	r6, r7
 8007a7c:	0a0000a4 	beq	0x8007d14
 8007a80:	e2047001 	and	r7, r4, #1
 8007a84:	e3560000 	cmp	r6, #0
 8007a88:	1a00008a 	bne	0x8007cb8
 8007a8c:	e3550000 	cmp	r5, #0
 8007a90:	0a0000b4 	beq	0x8007d68
 8007a94:	e2408096 	sub	r8, r0, #150	@ 0x96
 8007a98:	e2277001 	eor	r7, r7, #1
 8007a9c:	e3e00001 	mvn	r0, #1
 8007aa0:	e3a09000 	mov	r9, #0
 8007aa4:	e1970000 	orrs	r0, r7, r0
 8007aa8:	0a000099 	beq	0x8007d14
 8007aac:	e3a0a000 	mov	sl, #0
 8007ab0:	e3a0e001 	mov	lr, #1
 8007ab4:	eaffffd3 	b	0x8007a08
 8007ab8:	e59f0fe0 	ldr	r0, [pc, #4064]	@ 0x8008aa0
 8007abc:	e50b50bc 	str	r5, [fp, #-188]	@ 0xffffff44
 8007ac0:	ea000099 	b	0x8007d2c
 8007ac4:	e28d0044 	add	r0, sp, #68	@ 0x44
 8007ac8:	e58de054 	str	lr, [sp, #84]	@ 0x54
 8007acc:	e88010c0 	stm	r0, {r6, r7, ip}
 8007ad0:	e1a06808 	lsl	r6, r8, #16
 8007ad4:	e3a00005 	mov	r0, #5
 8007ad8:	e1b01846 	asrs	r1, r6, #16
 8007adc:	43e0000b 	mvnmi	r0, #11
 8007ae0:	e00e0190 	mul	lr, r0, r1
 8007ae4:	e1a0032e 	lsr	r0, lr, #6
 8007ae8:	e35000fa 	cmp	r0, #250	@ 0xfa
 8007aec:	8a000467 	bhi	0x8008c90
 8007af0:	e59f2ffc 	ldr	r2, [pc, #4092]	@ 0x8008af4
 8007af4:	e3530902 	cmp	r3, #32768	@ 0x8000
 8007af8:	32632000 	rsbcc	r2, r3, #0
 8007afc:	e1940009 	orrs	r0, r4, r9
 8007b00:	0a000466 	beq	0x8008ca0
 8007b04:	e2540801 	subs	r0, r4, #65536	@ 0x10000
 8007b08:	e58d1034 	str	r1, [sp, #52]	@ 0x34
 8007b0c:	e3a01020 	mov	r1, #32
 8007b10:	e58d6030 	str	r6, [sp, #48]	@ 0x30
 8007b14:	e58d4040 	str	r4, [sp, #64]	@ 0x40
 8007b18:	e1a0c003 	mov	ip, r3
 8007b1c:	e3a03000 	mov	r3, #0
 8007b20:	e58da038 	str	sl, [sp, #56]	@ 0x38
 8007b24:	e58d903c 	str	r9, [sp, #60]	@ 0x3c
 8007b28:	e58d8050 	str	r8, [sp, #80]	@ 0x50
 8007b2c:	e2d90000 	sbcs	r0, r9, #0
 8007b30:	e3a00000 	mov	r0, #0
 8007b34:	33a00001 	movcc	r0, #1
 8007b38:	e3500000 	cmp	r0, #0
 8007b3c:	13a01030 	movne	r1, #48	@ 0x30
 8007b40:	e2010010 	and	r0, r1, #16
 8007b44:	e3a01e3b 	mov	r1, #944	@ 0x3b0
 8007b48:	e1a06014 	lsl	r6, r4, r0
 8007b4c:	e3a00040 	mov	r0, #64	@ 0x40
 8007b50:	e3811a15 	orr	r1, r1, #86016	@ 0x15000
 8007b54:	13a00030 	movne	r0, #48	@ 0x30
 8007b58:	e3560401 	cmp	r6, #16777216	@ 0x1000000
 8007b5c:	e0800008 	add	r0, r0, r8
 8007b60:	31a06406 	lslcc	r6, r6, #8
 8007b64:	e2407060 	sub	r7, r0, #96	@ 0x60
 8007b68:	e3e0005f 	mvn	r0, #95	@ 0x5f
 8007b6c:	32477008 	subcc	r7, r7, #8
 8007b70:	e3560201 	cmp	r6, #268435456	@ 0x10000000
 8007b74:	31a06206 	lslcc	r6, r6, #4
 8007b78:	32477004 	subcc	r7, r7, #4
 8007b7c:	e3560101 	cmp	r6, #1073741824	@ 0x40000000
 8007b80:	31a06106 	lslcc	r6, r6, #2
 8007b84:	32477002 	subcc	r7, r7, #2
 8007b88:	e3760001 	cmn	r6, #1
 8007b8c:	c2477001 	subgt	r7, r7, #1
 8007b90:	e0400007 	sub	r0, r0, r7
 8007b94:	e1a00800 	lsl	r0, r0, #16
 8007b98:	e1a00840 	asr	r0, r0, #16
 8007b9c:	e0800100 	add	r0, r0, r0, lsl #2
 8007ba0:	e0810200 	add	r0, r1, r0, lsl #4
 8007ba4:	e59f1fe0 	ldr	r1, [pc, #4064]	@ 0x8008b8c
 8007ba8:	e0c45190 	smull	r5, r4, r0, r1
 8007bac:	e1a00544 	asr	r0, r4, #10
 8007bb0:	e0800fa4 	add	r0, r0, r4, lsr #31
 8007bb4:	e3500051 	cmp	r0, #81	@ 0x51
 8007bb8:	2a00045b 	bcs	0x8008d2c
 8007bbc:	e1a01802 	lsl	r1, r2, #16
 8007bc0:	e3760001 	cmn	r6, #1
 8007bc4:	e3a02000 	mov	r2, #0
 8007bc8:	e3a05efa 	mov	r5, #4000	@ 0xfa0
 8007bcc:	e58dc058 	str	ip, [sp, #88]	@ 0x58
 8007bd0:	e1a01841 	asr	r1, r1, #16
 8007bd4:	c3a02001 	movgt	r2, #1
 8007bd8:	e3855a0f 	orr	r5, r5, #61440	@ 0xf000
 8007bdc:	e58d1060 	str	r1, [sp, #96]	@ 0x60
 8007be0:	e3a01015 	mov	r1, #21
 8007be4:	e1a02216 	lsl	r2, r6, r2
 8007be8:	e081122e 	add	r1, r1, lr, lsr #4
 8007bec:	e58d107c 	str	r1, [sp, #124]	@ 0x7c
 8007bf0:	e59f1ff8 	ldr	r1, [pc, #4088]	@ 0x8008bf0
 8007bf4:	e7b10200 	ldr	r0, [r1, r0, lsl #4]!
 8007bf8:	e0846290 	umull	r6, r4, r0, r2
 8007bfc:	e5910004 	ldr	r0, [r1, #4]
 8007c00:	e0a34290 	umlal	r4, r3, r0, r2
 8007c04:	e2960102 	adds	r0, r6, #-2147483648	@ 0x80000000
 8007c08:	e2b42000 	adcs	r2, r4, #0
 8007c0c:	e2a30000 	adc	r0, r3, #0
 8007c10:	e1d130b8 	ldrh	r3, [r1, #8]
 8007c14:	e0873003 	add	r3, r7, r3
 8007c18:	e0453003 	sub	r3, r5, r3
 8007c1c:	e2838020 	add	r8, r3, #32
 8007c20:	e208603f 	and	r6, r8, #63	@ 0x3f
 8007c24:	e2665020 	rsb	r5, r6, #32
 8007c28:	e1a07632 	lsr	r7, r2, r6
 8007c2c:	e2563020 	subs	r3, r6, #32
 8007c30:	e58d6074 	str	r6, [sp, #116]	@ 0x74
 8007c34:	e1874510 	orr	r4, r7, r0, lsl r5
 8007c38:	e3a07001 	mov	r7, #1
 8007c3c:	e58d5070 	str	r5, [sp, #112]	@ 0x70
 8007c40:	e58d3078 	str	r3, [sp, #120]	@ 0x78
 8007c44:	e1a05537 	lsr	r5, r7, r5
 8007c48:	51a04330 	lsrpl	r4, r0, r3
 8007c4c:	e1a06617 	lsl	r6, r7, r6
 8007c50:	51a05317 	lslpl	r5, r7, r3
 8007c54:	e3530000 	cmp	r3, #0
 8007c58:	53a06000 	movpl	r6, #0
 8007c5c:	e2563001 	subs	r3, r6, #1
 8007c60:	e2c57000 	sbc	r7, r5, #0
 8007c64:	e0029003 	and	r9, r2, r3
 8007c68:	e58d306c 	str	r3, [sp, #108]	@ 0x6c
 8007c6c:	e000a007 	and	sl, r0, r7
 8007c70:	e58d7068 	str	r7, [sp, #104]	@ 0x68
 8007c74:	e199700a 	orrs	r7, r9, sl
 8007c78:	0a000019 	beq	0x8007ce4
 8007c7c:	e1d130ba 	ldrh	r3, [r1, #10]
 8007c80:	e3a07e71 	mov	r7, #1808	@ 0x710
 8007c84:	e58d6028 	str	r6, [sp, #40]	@ 0x28
 8007c88:	e58d502c 	str	r5, [sp, #44]	@ 0x2c
 8007c8c:	e3877a02 	orr	r7, r7, #8192	@ 0x2000
 8007c90:	e1540007 	cmp	r4, r7
 8007c94:	2a000029 	bcs	0x8007d40
 8007c98:	e3540064 	cmp	r4, #100	@ 0x64
 8007c9c:	2a000033 	bcs	0x8007d70
 8007ca0:	e3a06000 	mov	r6, #0
 8007ca4:	e3540009 	cmp	r4, #9
 8007ca8:	e3a07001 	mov	r7, #1
 8007cac:	83a06001 	movhi	r6, #1
 8007cb0:	83a0700a 	movhi	r7, #10
 8007cb4:	ea000042 	b	0x8007dc4
 8007cb8:	e3540502 	cmp	r4, #8388608	@ 0x800000
 8007cbc:	1a00000d 	bne	0x8007cf8
 8007cc0:	e2408098 	sub	r8, r0, #152	@ 0x98
 8007cc4:	e3a00001 	mov	r0, #1
 8007cc8:	eaffff49 	b	0x80079f4
 8007ccc:	e59f0ffc 	ldr	r0, [pc, #4092]	@ 0x8008cd0
 8007cd0:	e3a01001 	mov	r1, #1
 8007cd4:	e50b10bc 	str	r1, [fp, #-188]	@ 0xffffff44
 8007cd8:	e50b00c0 	str	r0, [fp, #-192]	@ 0xffffff40
 8007cdc:	e24b00c4 	sub	r0, fp, #196	@ 0xc4
 8007ce0:	ea0003dc 	b	0x8008c58
 8007ce4:	e59d1054 	ldr	r1, [sp, #84]	@ 0x54
 8007ce8:	e59d8050 	ldr	r8, [sp, #80]	@ 0x50
 8007cec:	e3a00000 	mov	r0, #0
 8007cf0:	e50b0360 	str	r0, [fp, #-864]	@ 0xfffffca0
 8007cf4:	ea0000f1 	b	0x80080c0
 8007cf8:	e1a04084 	lsl	r4, r4, #1
 8007cfc:	e2277001 	eor	r7, r7, #1
 8007d00:	e2408097 	sub	r8, r0, #151	@ 0x97
 8007d04:	e3e00001 	mvn	r0, #1
 8007d08:	e3a09000 	mov	r9, #0
 8007d0c:	e1970000 	orrs	r0, r7, r0
 8007d10:	1affff65 	bne	0x8007aac
 8007d14:	e3a00003 	mov	r0, #3
 8007d18:	e3a07001 	mov	r7, #1
 8007d1c:	e3a06000 	mov	r6, #0
 8007d20:	e3a01001 	mov	r1, #1
 8007d24:	e50b00bc 	str	r0, [fp, #-188]	@ 0xffffff44
 8007d28:	e59f0ff8 	ldr	r0, [pc, #4088]	@ 0x8008d28
 8007d2c:	e50b00c0 	str	r0, [fp, #-192]	@ 0xffffff40
 8007d30:	e3a00002 	mov	r0, #2
 8007d34:	e14b0cb4 	strh	r0, [fp, #-196]	@ 0xffffff3c
 8007d38:	e24b00c4 	sub	r0, fp, #196	@ 0xc4
 8007d3c:	ea0003c5 	b	0x8008c58
 8007d40:	e3a01d09 	mov	r1, #576	@ 0x240
 8007d44:	e381193d 	orr	r1, r1, #999424	@ 0xf4000
 8007d48:	e1540001 	cmp	r4, r1
 8007d4c:	2a00000d 	bcs	0x8007d88
 8007d50:	e3a01e6a 	mov	r1, #1696	@ 0x6a0
 8007d54:	e3a06005 	mov	r6, #5
 8007d58:	e3811906 	orr	r1, r1, #98304	@ 0x18000
 8007d5c:	e1540001 	cmp	r4, r1
 8007d60:	33a06004 	movcc	r6, #4
 8007d64:	ea000015 	b	0x8007dc0
 8007d68:	e3a00004 	mov	r0, #4
 8007d6c:	eaffff20 	b	0x80079f4
 8007d70:	e3a06003 	mov	r6, #3
 8007d74:	e3540ffa 	cmp	r4, #1000	@ 0x3e8
 8007d78:	e3a07ffa 	mov	r7, #1000	@ 0x3e8
 8007d7c:	33a06002 	movcc	r6, #2
 8007d80:	33a07064 	movcc	r7, #100	@ 0x64
 8007d84:	ea00000e 	b	0x8007dc4
 8007d88:	e59f7ff0 	ldr	r7, [pc, #4080]	@ 0x8008d80
 8007d8c:	e1540007 	cmp	r4, r7
 8007d90:	2a000006 	bcs	0x8007db0
 8007d94:	e59f5fec 	ldr	r5, [pc, #4076]	@ 0x8008d88
 8007d98:	e3a06007 	mov	r6, #7
 8007d9c:	e1540005 	cmp	r4, r5
 8007da0:	21a01005 	movcs	r1, r5
 8007da4:	33a06006 	movcc	r6, #6
 8007da8:	e1a07001 	mov	r7, r1
 8007dac:	ea000004 	b	0x8007dc4
 8007db0:	e59f1fcc 	ldr	r1, [pc, #4044]	@ 0x8008d84
 8007db4:	e3a06009 	mov	r6, #9
 8007db8:	e1540001 	cmp	r4, r1
 8007dbc:	33a06008 	movcc	r6, #8
 8007dc0:	21a07001 	movcs	r7, r1
 8007dc4:	e0461003 	sub	r1, r6, r3
 8007dc8:	e59d5060 	ldr	r5, [sp, #96]	@ 0x60
 8007dcc:	e2811001 	add	r1, r1, #1
 8007dd0:	e1a01801 	lsl	r1, r1, #16
 8007dd4:	e1a03841 	asr	r3, r1, #16
 8007dd8:	e1530005 	cmp	r3, r5
 8007ddc:	da000023 	ble	0x8007e70
 8007de0:	e1a0022e 	lsr	r0, lr, #4
 8007de4:	e59d207c 	ldr	r2, [sp, #124]	@ 0x7c
 8007de8:	e58d3024 	str	r3, [sp, #36]	@ 0x24
 8007dec:	e58d005c 	str	r0, [sp, #92]	@ 0x5c
 8007df0:	e3a000ff 	mov	r0, #255	@ 0xff
 8007df4:	e3800cff 	orr	r0, r0, #65280	@ 0xff00
 8007df8:	e0080000 	and	r0, r8, r0
 8007dfc:	e58d0020 	str	r0, [sp, #32]
 8007e00:	e0430005 	sub	r0, r3, r5
 8007e04:	e3a05000 	mov	r5, #0
 8007e08:	e1a01800 	lsl	r1, r0, #16
 8007e0c:	e1500002 	cmp	r0, r2
 8007e10:	31a02841 	asrcc	r2, r1, #16
 8007e14:	e2428001 	sub	r8, r2, #1
 8007e18:	e58d2064 	str	r2, [sp, #100]	@ 0x64
 8007e1c:	e1a00004 	mov	r0, r4
 8007e20:	e1a01007 	mov	r1, r7
 8007e24:	eb002494 	bl	0x801107c
 8007e28:	e2801030 	add	r1, r0, #48	@ 0x30
 8007e2c:	e28d2080 	add	r2, sp, #128	@ 0x80
 8007e30:	e1580005 	cmp	r8, r5
 8007e34:	e7c21005 	strb	r1, [r2, r5]
 8007e38:	e0010790 	mul	r1, r0, r7
 8007e3c:	e0444001 	sub	r4, r4, r1
 8007e40:	0a000032 	beq	0x8007f10
 8007e44:	e1560005 	cmp	r6, r5
 8007e48:	0a00004c 	beq	0x8007f80
 8007e4c:	e59f2f38 	ldr	r2, [pc, #3896]	@ 0x8008d8c
 8007e50:	e2855001 	add	r5, r5, #1
 8007e54:	e357000a 	cmp	r7, #10
 8007e58:	e0810297 	umull	r0, r1, r7, r2
 8007e5c:	e1a001a1 	lsr	r0, r1, #3
 8007e60:	e1a07000 	mov	r7, r0
 8007e64:	2affffec 	bcs	0x8007e1c
 8007e68:	e59f0f24 	ldr	r0, [pc, #3876]	@ 0x8008d94
 8007e6c:	eb000be5 	bl	0x800ae08
 8007e70:	e59d102c 	ldr	r1, [sp, #44]	@ 0x2c
 8007e74:	e88d0028 	stm	sp, {r3, r5}
 8007e78:	e59d3078 	ldr	r3, [sp, #120]	@ 0x78
 8007e7c:	e58d101c 	str	r1, [sp, #28]
 8007e80:	e59d1028 	ldr	r1, [sp, #40]	@ 0x28
 8007e84:	e3530000 	cmp	r3, #0
 8007e88:	e58d1018 	str	r1, [sp, #24]
 8007e8c:	e59d1074 	ldr	r1, [sp, #116]	@ 0x74
 8007e90:	e1a01117 	lsl	r1, r7, r1
 8007e94:	53a01000 	movpl	r1, #0
 8007e98:	e58d1010 	str	r1, [sp, #16]
 8007e9c:	e59d1070 	ldr	r1, [sp, #112]	@ 0x70
 8007ea0:	e1a01137 	lsr	r1, r7, r1
 8007ea4:	51a01317 	lslpl	r1, r7, r3
 8007ea8:	e59f3edc 	ldr	r3, [pc, #3804]	@ 0x8008d8c
 8007eac:	e58d1014 	str	r1, [sp, #20]
 8007eb0:	e1a010a2 	lsr	r1, r2, #1
 8007eb4:	e1811f80 	orr	r1, r1, r0, lsl #31
 8007eb8:	e09120a0 	adds	r2, r1, r0, lsr #1
 8007ebc:	e2a22000 	adc	r2, r2, #0
 8007ec0:	e0867392 	umull	r7, r6, r2, r3
 8007ec4:	e3c67003 	bic	r7, r6, #3
 8007ec8:	e0877126 	add	r7, r7, r6, lsr #2
 8007ecc:	e0422007 	sub	r2, r2, r7
 8007ed0:	e0511002 	subs	r1, r1, r2
 8007ed4:	e0872391 	umull	r2, r7, r1, r3
 8007ed8:	e58d2008 	str	r2, [sp, #8]
 8007edc:	e59f2eac 	ldr	r2, [pc, #3756]	@ 0x8008d90
 8007ee0:	e0267291 	mla	r6, r1, r2, r7
 8007ee4:	e3a01000 	mov	r1, #0
 8007ee8:	e59d207c 	ldr	r2, [sp, #124]	@ 0x7c
 8007eec:	e0e100a0 	rsc	r0, r1, r0, lsr #1
 8007ef0:	e0216390 	mla	r1, r0, r3, r6
 8007ef4:	e24b0e36 	sub	r0, fp, #864	@ 0x360
 8007ef8:	e3a03000 	mov	r3, #0
 8007efc:	e58d100c 	str	r1, [sp, #12]
 8007f00:	e28d1080 	add	r1, sp, #128	@ 0x80
 8007f04:	ebfff659 	bl	0x8005870
 8007f08:	e1a0a005 	mov	sl, r5
 8007f0c:	ea00005d 	b	0x8008088
 8007f10:	e59d6074 	ldr	r6, [sp, #116]	@ 0x74
 8007f14:	e59d3078 	ldr	r3, [sp, #120]	@ 0x78
 8007f18:	e59d2070 	ldr	r2, [sp, #112]	@ 0x70
 8007f1c:	e1a00617 	lsl	r0, r7, r6
 8007f20:	e3530000 	cmp	r3, #0
 8007f24:	e1a01237 	lsr	r1, r7, r2
 8007f28:	e1a02234 	lsr	r2, r4, r2
 8007f2c:	53a00000 	movpl	r0, #0
 8007f30:	51a01317 	lslpl	r1, r7, r3
 8007f34:	e3530000 	cmp	r3, #0
 8007f38:	e59d7024 	ldr	r7, [sp, #36]	@ 0x24
 8007f3c:	e58d0010 	str	r0, [sp, #16]
 8007f40:	e59d0028 	ldr	r0, [sp, #40]	@ 0x28
 8007f44:	51a02314 	lslpl	r2, r4, r3
 8007f48:	e1a03614 	lsl	r3, r4, r6
 8007f4c:	e58d1014 	str	r1, [sp, #20]
 8007f50:	53a03000 	movpl	r3, #0
 8007f54:	e0933009 	adds	r3, r3, r9
 8007f58:	e0a2200a 	adc	r2, r2, sl
 8007f5c:	e59da060 	ldr	sl, [sp, #96]	@ 0x60
 8007f60:	e58d7000 	str	r7, [sp]
 8007f64:	e58d3008 	str	r3, [sp, #8]
 8007f68:	e58d0018 	str	r0, [sp, #24]
 8007f6c:	e59d002c 	ldr	r0, [sp, #44]	@ 0x2c
 8007f70:	e58d200c 	str	r2, [sp, #12]
 8007f74:	e58da004 	str	sl, [sp, #4]
 8007f78:	e58d001c 	str	r0, [sp, #28]
 8007f7c:	ea00003c 	b	0x8008074
 8007f80:	e59d205c 	ldr	r2, [sp, #92]	@ 0x5c
 8007f84:	e3e01013 	mvn	r1, #19
 8007f88:	e2850001 	add	r0, r5, #1
 8007f8c:	e3a0e00a 	mov	lr, #10
 8007f90:	e0411002 	sub	r1, r1, r2
 8007f94:	e3a02001 	mov	r2, #1
 8007f98:	e58d105c 	str	r1, [sp, #92]	@ 0x5c
 8007f9c:	e59d1020 	ldr	r1, [sp, #32]
 8007fa0:	e2411001 	sub	r1, r1, #1
 8007fa4:	e201303f 	and	r3, r1, #63	@ 0x3f
 8007fa8:	e3a01000 	mov	r1, #0
 8007fac:	e2638020 	rsb	r8, r3, #32
 8007fb0:	e243c020 	sub	ip, r3, #32
 8007fb4:	e1a05332 	lsr	r5, r2, r3
 8007fb8:	e35c0000 	cmp	ip, #0
 8007fbc:	e1a07331 	lsr	r7, r1, r3
 8007fc0:	e1855811 	orr	r5, r5, r1, lsl r8
 8007fc4:	53a07000 	movpl	r7, #0
 8007fc8:	51a05c31 	lsrpl	r5, r1, ip
 8007fcc:	e1955007 	orrs	r5, r5, r7
 8007fd0:	1a000131 	bne	0x800849c
 8007fd4:	e59d405c 	ldr	r4, [sp, #92]	@ 0x5c
 8007fd8:	e0845000 	add	r5, r4, r0
 8007fdc:	e3550001 	cmp	r5, #1
 8007fe0:	0a00034d 	beq	0x8008d1c
 8007fe4:	e59d4074 	ldr	r4, [sp, #116]	@ 0x74
 8007fe8:	e0875e99 	umull	r5, r7, r9, lr
 8007fec:	e0811101 	add	r1, r1, r1, lsl #2
 8007ff0:	e1a06435 	lsr	r6, r5, r4
 8007ff4:	e08a410a 	add	r4, sl, sl, lsl #2
 8007ff8:	e0874084 	add	r4, r7, r4, lsl #1
 8007ffc:	e59d7070 	ldr	r7, [sp, #112]	@ 0x70
 8008000:	e1866714 	orr	r6, r6, r4, lsl r7
 8008004:	e59d7078 	ldr	r7, [sp, #120]	@ 0x78
 8008008:	e3570000 	cmp	r7, #0
 800800c:	51a06734 	lsrpl	r6, r4, r7
 8008010:	e28d7080 	add	r7, sp, #128	@ 0x80
 8008014:	e2866030 	add	r6, r6, #48	@ 0x30
 8008018:	e7c76000 	strb	r6, [r7, r0]
 800801c:	e59d606c 	ldr	r6, [sp, #108]	@ 0x6c
 8008020:	e2800001 	add	r0, r0, #1
 8008024:	e0059006 	and	r9, r5, r6
 8008028:	e0865e92 	umull	r5, r6, r2, lr
 800802c:	e59d2068 	ldr	r2, [sp, #104]	@ 0x68
 8008030:	e0861081 	add	r1, r6, r1, lsl #1
 8008034:	e004a002 	and	sl, r4, r2
 8008038:	e59d2064 	ldr	r2, [sp, #100]	@ 0x64
 800803c:	e1520000 	cmp	r2, r0
 8008040:	e1a02005 	mov	r2, r5
 8008044:	1affffda 	bne	0x8007fb4
 8008048:	e59d0024 	ldr	r0, [sp, #36]	@ 0x24
 800804c:	e58d5018 	str	r5, [sp, #24]
 8008050:	e58d101c 	str	r1, [sp, #28]
 8008054:	e58d0000 	str	r0, [sp]
 8008058:	e59d0060 	ldr	r0, [sp, #96]	@ 0x60
 800805c:	e98d0601 	stmib	sp, {r0, r9, sl}
 8008060:	e1a0a000 	mov	sl, r0
 8008064:	e59d0028 	ldr	r0, [sp, #40]	@ 0x28
 8008068:	e58d0010 	str	r0, [sp, #16]
 800806c:	e59d002c 	ldr	r0, [sp, #44]	@ 0x2c
 8008070:	e58d0014 	str	r0, [sp, #20]
 8008074:	e59d207c 	ldr	r2, [sp, #124]	@ 0x7c
 8008078:	e59d3064 	ldr	r3, [sp, #100]	@ 0x64
 800807c:	e24b0e36 	sub	r0, fp, #864	@ 0x360
 8008080:	e28d1080 	add	r1, sp, #128	@ 0x80
 8008084:	ebfff5f9 	bl	0x8005870
 8008088:	e51b6360 	ldr	r6, [fp, #-864]	@ 0xfffffca0
 800808c:	e59d8050 	ldr	r8, [sp, #80]	@ 0x50
 8008090:	e59d9058 	ldr	r9, [sp, #88]	@ 0x58
 8008094:	e59d1054 	ldr	r1, [sp, #84]	@ 0x54
 8008098:	e3560000 	cmp	r6, #0
 800809c:	0a000007 	beq	0x80080c0
 80080a0:	e24bec03 	sub	lr, fp, #768	@ 0x300
 80080a4:	e51b835c 	ldr	r8, [fp, #-860]	@ 0xfffffca4
 80080a8:	e15e45b8 	ldrh	r4, [lr, #-88]	@ 0xffffffa8
 80080ac:	e1a00804 	lsl	r0, r4, #16
 80080b0:	e1a00840 	asr	r0, r0, #16
 80080b4:	e150000a 	cmp	r0, sl
 80080b8:	ca000270 	bgt	0x8008a80
 80080bc:	ea0002d4 	b	0x8008c14
 80080c0:	e59d5040 	ldr	r5, [sp, #64]	@ 0x40
 80080c4:	e59d703c 	ldr	r7, [sp, #60]	@ 0x3c
 80080c8:	e3a00000 	mov	r0, #0
 80080cc:	e0951001 	adds	r1, r5, r1
 80080d0:	e59d1038 	ldr	r1, [sp, #56]	@ 0x38
 80080d4:	e0b71001 	adcs	r1, r7, r1
 80080d8:	e2a01000 	adc	r1, r0, #0
 80080dc:	e3510001 	cmp	r1, #1
 80080e0:	0a000314 	beq	0x8008d38
 80080e4:	e24b9fd5 	sub	r9, fp, #852	@ 0x354
 80080e8:	e50b0350 	str	r0, [fp, #-848]	@ 0xfffffcb0
 80080ec:	e3a04001 	mov	r4, #1
 80080f0:	e3a01098 	mov	r1, #152	@ 0x98
 80080f4:	e50b5354 	str	r5, [fp, #-852]	@ 0xfffffcac
 80080f8:	e2890008 	add	r0, r9, #8
 80080fc:	e50b42b4 	str	r4, [fp, #-692]	@ 0xfffffd4c
 8008100:	eb002690 	bl	0x8011b48
 8008104:	e24b0e2b 	sub	r0, fp, #688	@ 0x2b0
 8008108:	e3a0109c 	mov	r1, #156	@ 0x9c
 800810c:	e2800004 	add	r0, r0, #4
 8008110:	eb00268c 	bl	0x8011b48
 8008114:	e2550001 	subs	r0, r5, #1
 8008118:	e59f1c7c 	ldr	r1, [pc, #3196]	@ 0x8008d9c
 800811c:	e50b42b0 	str	r4, [fp, #-688]	@ 0xfffffd50
 8008120:	e50b4210 	str	r4, [fp, #-528]	@ 0xfffffdf0
 8008124:	e3a06020 	mov	r6, #32
 8008128:	e18000a0 	orr	r0, r0, r0, lsr #1
 800812c:	e2c74000 	sbc	r4, r7, #0
 8008130:	e1800120 	orr	r0, r0, r0, lsr #2
 8008134:	e1800220 	orr	r0, r0, r0, lsr #4
 8008138:	e1800420 	orr	r0, r0, r0, lsr #8
 800813c:	e1800820 	orr	r0, r0, r0, lsr #16
 8008140:	e1e00000 	mvn	r0, r0
 8008144:	e00110a0 	and	r1, r1, r0, lsr #1
 8008148:	e0400001 	sub	r0, r0, r1
 800814c:	e59f1c4c 	ldr	r1, [pc, #3148]	@ 0x8008da0
 8008150:	e0012120 	and	r2, r1, r0, lsr #2
 8008154:	e0000001 	and	r0, r0, r1
 8008158:	e59f1c44 	ldr	r1, [pc, #3140]	@ 0x8008da4
 800815c:	e0800002 	add	r0, r0, r2
 8008160:	e0800220 	add	r0, r0, r0, lsr #4
 8008164:	e0000001 	and	r0, r0, r1
 8008168:	e59f1c38 	ldr	r1, [pc, #3128]	@ 0x8008da8
 800816c:	e0050190 	mul	r5, r0, r1
 8008170:	e1a00004 	mov	r0, r4
 8008174:	eb0023be 	bl	0x8011074
 8008178:	e59d1030 	ldr	r1, [sp, #48]	@ 0x30
 800817c:	e3540000 	cmp	r4, #0
 8008180:	e59f2c28 	ldr	r2, [pc, #3112]	@ 0x8008db0
 8008184:	e3a04013 	mov	r4, #19
 8008188:	00860c25 	addeq	r0, r6, r5, lsr #24
 800818c:	e0600841 	rsb	r0, r0, r1, asr #16
 8008190:	e59f1c14 	ldr	r1, [pc, #3092]	@ 0x8008dac
 8008194:	e0e41290 	smlal	r1, r4, r0, r2
 8008198:	e1a00804 	lsl	r0, r4, #16
 800819c:	e1a00840 	asr	r0, r0, #16
 80081a0:	e58d0074 	str	r0, [sp, #116]	@ 0x74
 80081a4:	e59d0034 	ldr	r0, [sp, #52]	@ 0x34
 80081a8:	e3500000 	cmp	r0, #0
 80081ac:	4a00000c 	bmi	0x80081e4
 80081b0:	e3a000ff 	mov	r0, #255	@ 0xff
 80081b4:	e3800cff 	orr	r0, r0, #65280	@ 0xff00
 80081b8:	e0081000 	and	r1, r8, r0
 80081bc:	e24b0fd5 	sub	r0, fp, #852	@ 0x354
 80081c0:	ebfff674 	bl	0x8005b98
 80081c4:	e59d0074 	ldr	r0, [sp, #116]	@ 0x74
 80081c8:	e3700001 	cmn	r0, #1
 80081cc:	da00000c 	ble	0x8008204
 80081d0:	e3a000ff 	mov	r0, #255	@ 0xff
 80081d4:	e3800c7f 	orr	r0, r0, #32512	@ 0x7f00
 80081d8:	e0041000 	and	r1, r4, r0
 80081dc:	e24b0e2b 	sub	r0, fp, #688	@ 0x2b0
 80081e0:	ea00000c 	b	0x8008218
 80081e4:	e2680000 	rsb	r0, r8, #0
 80081e8:	e1a00800 	lsl	r0, r0, #16
 80081ec:	e1a01840 	asr	r1, r0, #16
 80081f0:	e24b0e2b 	sub	r0, fp, #688	@ 0x2b0
 80081f4:	ebfff667 	bl	0x8005b98
 80081f8:	e59d0074 	ldr	r0, [sp, #116]	@ 0x74
 80081fc:	e3700001 	cmn	r0, #1
 8008200:	cafffff2 	bgt	0x80081d0
 8008204:	e3a010ff 	mov	r1, #255	@ 0xff
 8008208:	e2600000 	rsb	r0, r0, #0
 800820c:	e3811cff 	orr	r1, r1, #65280	@ 0xff00
 8008210:	e0001001 	and	r1, r0, r1
 8008214:	e24b0fd5 	sub	r0, fp, #852	@ 0x354
 8008218:	eb000b7f 	bl	0x800b01c
 800821c:	e51b7210 	ldr	r7, [fp, #-528]	@ 0xfffffdf0
 8008220:	e2490004 	sub	r0, r9, #4
 8008224:	e24b40c4 	sub	r4, fp, #196	@ 0xc4
 8008228:	e24b1e2b 	sub	r1, fp, #688	@ 0x2b0
 800822c:	e3a020a0 	mov	r2, #160	@ 0xa0
 8008230:	e58d0070 	str	r0, [sp, #112]	@ 0x70
 8008234:	e1a00004 	mov	r0, r4
 8008238:	eb002648 	bl	0x8011b60
 800823c:	e59f5b40 	ldr	r5, [pc, #2880]	@ 0x8008d84
 8008240:	e59da07c 	ldr	sl, [sp, #124]	@ 0x7c
 8008244:	e50b7024 	str	r7, [fp, #-36]	@ 0xffffffdc
 8008248:	e2446004 	sub	r6, r4, #4
 800824c:	e58d7078 	str	r7, [sp, #120]	@ 0x78
 8008250:	e1a00007 	mov	r0, r7
 8008254:	e3500029 	cmp	r0, #41	@ 0x29
 8008258:	2a000013 	bcs	0x80082ac
 800825c:	e3500000 	cmp	r0, #0
 8008260:	0a00000b 	beq	0x8008294
 8008264:	e3a01000 	mov	r1, #0
 8008268:	e0418100 	sub	r8, r1, r0, lsl #2
 800826c:	e7167008 	ldr	r7, [r6, -r8]
 8008270:	e1a02005 	mov	r2, r5
 8008274:	e3a03000 	mov	r3, #0
 8008278:	e1a00007 	mov	r0, r7
 800827c:	eb002246 	bl	0x8010b9c
 8008280:	e0010590 	mul	r1, r0, r5
 8008284:	e7060008 	str	r0, [r6, -r8]
 8008288:	e2988004 	adds	r8, r8, #4
 800828c:	e0471001 	sub	r1, r7, r1
 8008290:	1afffff5 	bne	0x800826c
 8008294:	e24aa009 	sub	sl, sl, #9
 8008298:	e35a0009 	cmp	sl, #9
 800829c:	9a000005 	bls	0x80082b8
 80082a0:	e51b0024 	ldr	r0, [fp, #-36]	@ 0xffffffdc
 80082a4:	e3500029 	cmp	r0, #41	@ 0x29
 80082a8:	3affffeb 	bcc	0x800825c
 80082ac:	e59f2b04 	ldr	r2, [pc, #2820]	@ 0x8008db8
 80082b0:	e3a01028 	mov	r1, #40	@ 0x28
 80082b4:	ebfff5ff 	bl	0x8005ab8
 80082b8:	e59f0af4 	ldr	r0, [pc, #2804]	@ 0x8008db4
 80082bc:	e790010a 	ldr	r0, [r0, sl, lsl #2]
 80082c0:	e1b08080 	lsls	r8, r0, #1
 80082c4:	0a000279 	beq	0x8008cb0
 80082c8:	e51b0024 	ldr	r0, [fp, #-36]	@ 0xffffffdc
 80082cc:	e59da060 	ldr	sl, [sp, #96]	@ 0x60
 80082d0:	e59d5078 	ldr	r5, [sp, #120]	@ 0x78
 80082d4:	e3500029 	cmp	r0, #41	@ 0x29
 80082d8:	2afffff3 	bcs	0x80082ac
 80082dc:	e3a01000 	mov	r1, #0
 80082e0:	e3500000 	cmp	r0, #0
 80082e4:	0a00000c 	beq	0x800831c
 80082e8:	e0415100 	sub	r5, r1, r0, lsl #2
 80082ec:	e7167005 	ldr	r7, [r6, -r5]
 80082f0:	e1a02008 	mov	r2, r8
 80082f4:	e3a03000 	mov	r3, #0
 80082f8:	e1a00007 	mov	r0, r7
 80082fc:	eb002226 	bl	0x8010b9c
 8008300:	e0010890 	mul	r1, r0, r8
 8008304:	e7060005 	str	r0, [r6, -r5]
 8008308:	e2955004 	adds	r5, r5, #4
 800830c:	e0471001 	sub	r1, r7, r1
 8008310:	1afffff5 	bne	0x80082ec
 8008314:	e51b1024 	ldr	r1, [fp, #-36]	@ 0xffffffdc
 8008318:	e59d5078 	ldr	r5, [sp, #120]	@ 0x78
 800831c:	e51b02b4 	ldr	r0, [fp, #-692]	@ 0xfffffd4c
 8008320:	e1510000 	cmp	r1, r0
 8008324:	91a01000 	movls	r1, r0
 8008328:	e3510029 	cmp	r1, #41	@ 0x29
 800832c:	2a000253 	bcs	0x8008c80
 8008330:	e3510000 	cmp	r1, #0
 8008334:	0a000017 	beq	0x8008398
 8008338:	e3a02000 	mov	r2, #0
 800833c:	e1a03001 	mov	r3, r1
 8008340:	e3a07000 	mov	r7, #0
 8008344:	e4996004 	ldr	r6, [r9], #4
 8008348:	e5945000 	ldr	r5, [r4]
 800834c:	e2077001 	and	r7, r7, #1
 8008350:	e2577001 	subs	r7, r7, #1
 8008354:	e0b57006 	adcs	r7, r5, r6
 8008358:	e4847004 	str	r7, [r4], #4
 800835c:	e2a27000 	adc	r7, r2, #0
 8008360:	e2533001 	subs	r3, r3, #1
 8008364:	1afffff6 	bne	0x8008344
 8008368:	e59d9058 	ldr	r9, [sp, #88]	@ 0x58
 800836c:	e59d4074 	ldr	r4, [sp, #116]	@ 0x74
 8008370:	e3570000 	cmp	r7, #0
 8008374:	0a00000a 	beq	0x80083a4
 8008378:	e59d5078 	ldr	r5, [sp, #120]	@ 0x78
 800837c:	e3510028 	cmp	r1, #40	@ 0x28
 8008380:	0a000270 	beq	0x8008d48
 8008384:	e24b20c4 	sub	r2, fp, #196	@ 0xc4
 8008388:	e3a03001 	mov	r3, #1
 800838c:	e7823101 	str	r3, [r2, r1, lsl #2]
 8008390:	e2811001 	add	r1, r1, #1
 8008394:	ea000003 	b	0x80083a8
 8008398:	e59d9058 	ldr	r9, [sp, #88]	@ 0x58
 800839c:	e59d4074 	ldr	r4, [sp, #116]	@ 0x74
 80083a0:	ea000000 	b	0x80083a8
 80083a4:	e59d5078 	ldr	r5, [sp, #120]	@ 0x78
 80083a8:	e1510005 	cmp	r1, r5
 80083ac:	e50b1024 	str	r1, [fp, #-36]	@ 0xffffffdc
 80083b0:	91a01005 	movls	r1, r5
 80083b4:	e3510029 	cmp	r1, #41	@ 0x29
 80083b8:	2a000230 	bcs	0x8008c80
 80083bc:	e24b20c4 	sub	r2, fp, #196	@ 0xc4
 80083c0:	e1a01101 	lsl	r1, r1, #2
 80083c4:	e2422004 	sub	r2, r2, #4
 80083c8:	e24b3e2b 	sub	r3, fp, #688	@ 0x2b0
 80083cc:	e3510000 	cmp	r1, #0
 80083d0:	e0833001 	add	r3, r3, r1
 80083d4:	0a00000e 	beq	0x8008414
 80083d8:	e7927001 	ldr	r7, [r2, r1]
 80083dc:	e5136004 	ldr	r6, [r3, #-4]
 80083e0:	e2411004 	sub	r1, r1, #4
 80083e4:	e0563007 	subs	r3, r6, r7
 80083e8:	13a03001 	movne	r3, #1
 80083ec:	e1560007 	cmp	r6, r7
 80083f0:	83e03000 	mvnhi	r3, #0
 80083f4:	e3530000 	cmp	r3, #0
 80083f8:	0afffff2 	beq	0x80083c8
 80083fc:	e20310ff 	and	r1, r3, #255	@ 0xff
 8008400:	e3510002 	cmp	r1, #2
 8008404:	2a000008 	bcs	0x800842c
 8008408:	e59d7070 	ldr	r7, [sp, #112]	@ 0x70
 800840c:	e2844001 	add	r4, r4, #1
 8008410:	ea000026 	b	0x80084b0
 8008414:	e24b1e2b 	sub	r1, fp, #688	@ 0x2b0
 8008418:	e0533001 	subs	r3, r3, r1
 800841c:	13e03000 	mvnne	r3, #0
 8008420:	e20310ff 	and	r1, r3, #255	@ 0xff
 8008424:	e3510002 	cmp	r1, #2
 8008428:	3afffff6 	bcc	0x8008408
 800842c:	e59d7070 	ldr	r7, [sp, #112]	@ 0x70
 8008430:	e3500029 	cmp	r0, #41	@ 0x29
 8008434:	2affff9c 	bcs	0x80082ac
 8008438:	e3500000 	cmp	r0, #0
 800843c:	0a000014 	beq	0x8008494
 8008440:	e1a01100 	lsl	r1, r0, #2
 8008444:	e24b2fd5 	sub	r2, fp, #852	@ 0x354
 8008448:	e3a07000 	mov	r7, #0
 800844c:	e3a0300a 	mov	r3, #10
 8008450:	e5925000 	ldr	r5, [r2]
 8008454:	e3a06000 	mov	r6, #0
 8008458:	e2511004 	subs	r1, r1, #4
 800845c:	e0a67395 	umlal	r7, r6, r5, r3
 8008460:	e4827004 	str	r7, [r2], #4
 8008464:	e1a07006 	mov	r7, r6
 8008468:	1afffff8 	bne	0x8008450
 800846c:	e59d7070 	ldr	r7, [sp, #112]	@ 0x70
 8008470:	e3560000 	cmp	r6, #0
 8008474:	0a00000b 	beq	0x80084a8
 8008478:	e59d5078 	ldr	r5, [sp, #120]	@ 0x78
 800847c:	e3500028 	cmp	r0, #40	@ 0x28
 8008480:	0a000230 	beq	0x8008d48
 8008484:	e24b1fd5 	sub	r1, fp, #852	@ 0x354
 8008488:	e7816100 	str	r6, [r1, r0, lsl #2]
 800848c:	e2800001 	add	r0, r0, #1
 8008490:	ea000005 	b	0x80084ac
 8008494:	e3a00000 	mov	r0, #0
 8008498:	ea000003 	b	0x80084ac
 800849c:	e59d8050 	ldr	r8, [sp, #80]	@ 0x50
 80084a0:	e59d1054 	ldr	r1, [sp, #84]	@ 0x54
 80084a4:	eafffe10 	b	0x8007cec
 80084a8:	e59d5078 	ldr	r5, [sp, #120]	@ 0x78
 80084ac:	e50b02b4 	str	r0, [fp, #-692]	@ 0xfffffd4c
 80084b0:	e1a02804 	lsl	r2, r4, #16
 80084b4:	e3a0c000 	mov	ip, #0
 80084b8:	e1a03842 	asr	r3, r2, #16
 80084bc:	e153000a 	cmp	r3, sl
 80084c0:	ba000143 	blt	0x80089d4
 80084c4:	e59d807c 	ldr	r8, [sp, #124]	@ 0x7c
 80084c8:	e06a1842 	rsb	r1, sl, r2, asr #16
 80084cc:	e044200a 	sub	r2, r4, sl
 80084d0:	e1a02802 	lsl	r2, r2, #16
 80084d4:	e1510008 	cmp	r1, r8
 80084d8:	31a08842 	asrcc	r8, r2, #16
 80084dc:	e3580000 	cmp	r8, #0
 80084e0:	0a00013b 	beq	0x80089d4
 80084e4:	e58d4074 	str	r4, [sp, #116]	@ 0x74
 80084e8:	e24b4f83 	sub	r4, fp, #524	@ 0x20c
 80084ec:	e24b6e2b 	sub	r6, fp, #688	@ 0x2b0
 80084f0:	e3a020a0 	mov	r2, #160	@ 0xa0
 80084f4:	e1a00004 	mov	r0, r4
 80084f8:	e1a01006 	mov	r1, r6
 80084fc:	eb002597 	bl	0x8011b60
 8008500:	e1a00004 	mov	r0, r4
 8008504:	e3a01001 	mov	r1, #1
 8008508:	e50b516c 	str	r5, [fp, #-364]	@ 0xfffffe94
 800850c:	ebfff5a1 	bl	0x8005b98
 8008510:	e51b4210 	ldr	r4, [fp, #-528]	@ 0xfffffdf0
 8008514:	e24b5f5a 	sub	r5, fp, #360	@ 0x168
 8008518:	e1a01006 	mov	r1, r6
 800851c:	e3a020a0 	mov	r2, #160	@ 0xa0
 8008520:	e1a00005 	mov	r0, r5
 8008524:	eb00258d 	bl	0x8011b60
 8008528:	e1a00005 	mov	r0, r5
 800852c:	e3a01002 	mov	r1, #2
 8008530:	e50b40c8 	str	r4, [fp, #-200]	@ 0xffffff38
 8008534:	ebfff597 	bl	0x8005b98
 8008538:	e51b4210 	ldr	r4, [fp, #-528]	@ 0xfffffdf0
 800853c:	e24b50c4 	sub	r5, fp, #196	@ 0xc4
 8008540:	e1a01006 	mov	r1, r6
 8008544:	e3a020a0 	mov	r2, #160	@ 0xa0
 8008548:	e1a00005 	mov	r0, r5
 800854c:	eb002583 	bl	0x8011b60
 8008550:	e1a00005 	mov	r0, r5
 8008554:	e3a01003 	mov	r1, #3
 8008558:	e50b4024 	str	r4, [fp, #-36]	@ 0xffffffdc
 800855c:	ebfff58d 	bl	0x8005b98
 8008560:	e51b1210 	ldr	r1, [fp, #-528]	@ 0xfffffdf0
 8008564:	e51b02b4 	ldr	r0, [fp, #-692]	@ 0xfffffd4c
 8008568:	e24b9fd5 	sub	r9, fp, #852	@ 0x354
 800856c:	e3a0a000 	mov	sl, #0
 8008570:	e28d6080 	add	r6, sp, #128	@ 0x80
 8008574:	e3a0e00a 	mov	lr, #10
 8008578:	e3a0c000 	mov	ip, #0
 800857c:	e2495004 	sub	r5, r9, #4
 8008580:	e58d1078 	str	r1, [sp, #120]	@ 0x78
 8008584:	e51b116c 	ldr	r1, [fp, #-364]	@ 0xfffffe94
 8008588:	e58d1054 	str	r1, [sp, #84]	@ 0x54
 800858c:	e51b10c8 	ldr	r1, [fp, #-200]	@ 0xffffff38
 8008590:	e58d105c 	str	r1, [sp, #92]	@ 0x5c
 8008594:	e51b1024 	ldr	r1, [fp, #-36]	@ 0xffffffdc
 8008598:	e58d1064 	str	r1, [sp, #100]	@ 0x64
 800859c:	e3500029 	cmp	r0, #41	@ 0x29
 80085a0:	2affff41 	bcs	0x80082ac
 80085a4:	e59d4074 	ldr	r4, [sp, #116]	@ 0x74
 80085a8:	e28c1001 	add	r1, ip, #1
 80085ac:	e3a02000 	mov	r2, #0
 80085b0:	e58d1068 	str	r1, [sp, #104]	@ 0x68
 80085b4:	e1a01100 	lsl	r1, r0, #2
 80085b8:	e1510002 	cmp	r1, r2
 80085bc:	0a000120 	beq	0x8008a44
 80085c0:	e7993002 	ldr	r3, [r9, r2]
 80085c4:	e2822004 	add	r2, r2, #4
 80085c8:	e3530000 	cmp	r3, #0
 80085cc:	0afffff9 	beq	0x80085b8
 80085d0:	e59d1064 	ldr	r1, [sp, #100]	@ 0x64
 80085d4:	e1500001 	cmp	r0, r1
 80085d8:	81a01000 	movhi	r1, r0
 80085dc:	e3510029 	cmp	r1, #41	@ 0x29
 80085e0:	2a0001a6 	bcs	0x8008c80
 80085e4:	e1a03101 	lsl	r3, r1, #2
 80085e8:	e24b20c4 	sub	r2, fp, #196	@ 0xc4
 80085ec:	e3530000 	cmp	r3, #0
 80085f0:	e0822003 	add	r2, r2, r3
 80085f4:	0a000009 	beq	0x8008620
 80085f8:	e7956003 	ldr	r6, [r5, r3]
 80085fc:	e5122004 	ldr	r2, [r2, #-4]
 8008600:	e2433004 	sub	r3, r3, #4
 8008604:	e0524006 	subs	r4, r2, r6
 8008608:	13a04001 	movne	r4, #1
 800860c:	e1520006 	cmp	r2, r6
 8008610:	83e04000 	mvnhi	r4, #0
 8008614:	e3540000 	cmp	r4, #0
 8008618:	0afffff2 	beq	0x80085e8
 800861c:	ea000002 	b	0x800862c
 8008620:	e24b30c4 	sub	r3, fp, #196	@ 0xc4
 8008624:	e0524003 	subs	r4, r2, r3
 8008628:	13e04000 	mvnne	r4, #0
 800862c:	e20420ff 	and	r2, r4, #255	@ 0xff
 8008630:	e3a03000 	mov	r3, #0
 8008634:	e3520002 	cmp	r2, #2
 8008638:	e58d306c 	str	r3, [sp, #108]	@ 0x6c
 800863c:	2a000016 	bcs	0x800869c
 8008640:	e3510000 	cmp	r1, #0
 8008644:	0a000010 	beq	0x800868c
 8008648:	e3a04001 	mov	r4, #1
 800864c:	e1a00009 	mov	r0, r9
 8008650:	e24b30c4 	sub	r3, fp, #196	@ 0xc4
 8008654:	e1a06001 	mov	r6, r1
 8008658:	e4937004 	ldr	r7, [r3], #4
 800865c:	e5902000 	ldr	r2, [r0]
 8008660:	e2044001 	and	r4, r4, #1
 8008664:	e2544001 	subs	r4, r4, #1
 8008668:	e1e07007 	mvn	r7, r7
 800866c:	e0b22007 	adcs	r2, r2, r7
 8008670:	e2aa4000 	adc	r4, sl, #0
 8008674:	e4802004 	str	r2, [r0], #4
 8008678:	e2566001 	subs	r6, r6, #1
 800867c:	1afffff5 	bne	0x8008658
 8008680:	e59d7070 	ldr	r7, [sp, #112]	@ 0x70
 8008684:	e3540000 	cmp	r4, #0
 8008688:	0a000194 	beq	0x8008ce0
 800868c:	e3a00008 	mov	r0, #8
 8008690:	e50b12b4 	str	r1, [fp, #-692]	@ 0xfffffd4c
 8008694:	e58d006c 	str	r0, [sp, #108]	@ 0x6c
 8008698:	e1a00001 	mov	r0, r1
 800869c:	e59d105c 	ldr	r1, [sp, #92]	@ 0x5c
 80086a0:	e1500001 	cmp	r0, r1
 80086a4:	81a01000 	movhi	r1, r0
 80086a8:	e3510029 	cmp	r1, #41	@ 0x29
 80086ac:	2a000173 	bcs	0x8008c80
 80086b0:	e1a03101 	lsl	r3, r1, #2
 80086b4:	e24b2f5a 	sub	r2, fp, #360	@ 0x168
 80086b8:	e3530000 	cmp	r3, #0
 80086bc:	e0822003 	add	r2, r2, r3
 80086c0:	0a000023 	beq	0x8008754
 80086c4:	e7956003 	ldr	r6, [r5, r3]
 80086c8:	e5122004 	ldr	r2, [r2, #-4]
 80086cc:	e2433004 	sub	r3, r3, #4
 80086d0:	e0524006 	subs	r4, r2, r6
 80086d4:	13a04001 	movne	r4, #1
 80086d8:	e1520006 	cmp	r2, r6
 80086dc:	83e04000 	mvnhi	r4, #0
 80086e0:	e3540000 	cmp	r4, #0
 80086e4:	0afffff2 	beq	0x80086b4
 80086e8:	e20420ff 	and	r2, r4, #255	@ 0xff
 80086ec:	e3520001 	cmp	r2, #1
 80086f0:	8a00001d 	bhi	0x800876c
 80086f4:	e3510000 	cmp	r1, #0
 80086f8:	0a000010 	beq	0x8008740
 80086fc:	e3a04001 	mov	r4, #1
 8008700:	e1a00009 	mov	r0, r9
 8008704:	e24b3f5a 	sub	r3, fp, #360	@ 0x168
 8008708:	e1a06001 	mov	r6, r1
 800870c:	e4937004 	ldr	r7, [r3], #4
 8008710:	e5902000 	ldr	r2, [r0]
 8008714:	e2044001 	and	r4, r4, #1
 8008718:	e2544001 	subs	r4, r4, #1
 800871c:	e1e07007 	mvn	r7, r7
 8008720:	e0b22007 	adcs	r2, r2, r7
 8008724:	e2aa4000 	adc	r4, sl, #0
 8008728:	e4802004 	str	r2, [r0], #4
 800872c:	e2566001 	subs	r6, r6, #1
 8008730:	1afffff5 	bne	0x800870c
 8008734:	e59d7070 	ldr	r7, [sp, #112]	@ 0x70
 8008738:	e3540000 	cmp	r4, #0
 800873c:	0a000167 	beq	0x8008ce0
 8008740:	e59d006c 	ldr	r0, [sp, #108]	@ 0x6c
 8008744:	e50b12b4 	str	r1, [fp, #-692]	@ 0xfffffd4c
 8008748:	e3800004 	orr	r0, r0, #4
 800874c:	e58d006c 	str	r0, [sp, #108]	@ 0x6c
 8008750:	ea000006 	b	0x8008770
 8008754:	e24b3f5a 	sub	r3, fp, #360	@ 0x168
 8008758:	e0524003 	subs	r4, r2, r3
 800875c:	13e04000 	mvnne	r4, #0
 8008760:	e20420ff 	and	r2, r4, #255	@ 0xff
 8008764:	e3520001 	cmp	r2, #1
 8008768:	9affffe1 	bls	0x80086f4
 800876c:	e1a01000 	mov	r1, r0
 8008770:	e59d3054 	ldr	r3, [sp, #84]	@ 0x54
 8008774:	e1510003 	cmp	r1, r3
 8008778:	81a03001 	movhi	r3, r1
 800877c:	e3530029 	cmp	r3, #41	@ 0x29
 8008780:	2a00015d 	bcs	0x8008cfc
 8008784:	e1a00103 	lsl	r0, r3, #2
 8008788:	e24b2f83 	sub	r2, fp, #524	@ 0x20c
 800878c:	e3500000 	cmp	r0, #0
 8008790:	e0822000 	add	r2, r2, r0
 8008794:	0a000023 	beq	0x8008828
 8008798:	e7976000 	ldr	r6, [r7, r0]
 800879c:	e5122004 	ldr	r2, [r2, #-4]
 80087a0:	e2400004 	sub	r0, r0, #4
 80087a4:	e0524006 	subs	r4, r2, r6
 80087a8:	13a04001 	movne	r4, #1
 80087ac:	e1520006 	cmp	r2, r6
 80087b0:	83e04000 	mvnhi	r4, #0
 80087b4:	e3540000 	cmp	r4, #0
 80087b8:	0afffff2 	beq	0x8008788
 80087bc:	e20400ff 	and	r0, r4, #255	@ 0xff
 80087c0:	e3500001 	cmp	r0, #1
 80087c4:	8a00001d 	bhi	0x8008840
 80087c8:	e3530000 	cmp	r3, #0
 80087cc:	0a000010 	beq	0x8008814
 80087d0:	e3a04001 	mov	r4, #1
 80087d4:	e1a00009 	mov	r0, r9
 80087d8:	e24b1f83 	sub	r1, fp, #524	@ 0x20c
 80087dc:	e1a06003 	mov	r6, r3
 80087e0:	e4917004 	ldr	r7, [r1], #4
 80087e4:	e5902000 	ldr	r2, [r0]
 80087e8:	e2044001 	and	r4, r4, #1
 80087ec:	e2544001 	subs	r4, r4, #1
 80087f0:	e1e07007 	mvn	r7, r7
 80087f4:	e0b22007 	adcs	r2, r2, r7
 80087f8:	e2aa4000 	adc	r4, sl, #0
 80087fc:	e4802004 	str	r2, [r0], #4
 8008800:	e2566001 	subs	r6, r6, #1
 8008804:	1afffff5 	bne	0x80087e0
 8008808:	e59d7070 	ldr	r7, [sp, #112]	@ 0x70
 800880c:	e3540000 	cmp	r4, #0
 8008810:	0a000132 	beq	0x8008ce0
 8008814:	e59d006c 	ldr	r0, [sp, #108]	@ 0x6c
 8008818:	e50b32b4 	str	r3, [fp, #-692]	@ 0xfffffd4c
 800881c:	e2800002 	add	r0, r0, #2
 8008820:	e58d006c 	str	r0, [sp, #108]	@ 0x6c
 8008824:	ea000006 	b	0x8008844
 8008828:	e24b0f83 	sub	r0, fp, #524	@ 0x20c
 800882c:	e0524000 	subs	r4, r2, r0
 8008830:	13e04000 	mvnne	r4, #0
 8008834:	e20400ff 	and	r0, r4, #255	@ 0xff
 8008838:	e3500001 	cmp	r0, #1
 800883c:	9affffe1 	bls	0x80087c8
 8008840:	e1a03001 	mov	r3, r1
 8008844:	e59d0078 	ldr	r0, [sp, #120]	@ 0x78
 8008848:	e1530000 	cmp	r3, r0
 800884c:	81a00003 	movhi	r0, r3
 8008850:	e3500029 	cmp	r0, #41	@ 0x29
 8008854:	2afffe94 	bcs	0x80082ac
 8008858:	e1a01100 	lsl	r1, r0, #2
 800885c:	e24b2e2b 	sub	r2, fp, #688	@ 0x2b0
 8008860:	e3510000 	cmp	r1, #0
 8008864:	e0822001 	add	r2, r2, r1
 8008868:	0a000023 	beq	0x80088fc
 800886c:	e7976001 	ldr	r6, [r7, r1]
 8008870:	e5122004 	ldr	r2, [r2, #-4]
 8008874:	e2411004 	sub	r1, r1, #4
 8008878:	e0524006 	subs	r4, r2, r6
 800887c:	13a04001 	movne	r4, #1
 8008880:	e1520006 	cmp	r2, r6
 8008884:	83e04000 	mvnhi	r4, #0
 8008888:	e3540000 	cmp	r4, #0
 800888c:	0afffff2 	beq	0x800885c
 8008890:	e20410ff 	and	r1, r4, #255	@ 0xff
 8008894:	e3510001 	cmp	r1, #1
 8008898:	8a00001d 	bhi	0x8008914
 800889c:	e3500000 	cmp	r0, #0
 80088a0:	0a000010 	beq	0x80088e8
 80088a4:	e3a04001 	mov	r4, #1
 80088a8:	e1a01009 	mov	r1, r9
 80088ac:	e24b3e2b 	sub	r3, fp, #688	@ 0x2b0
 80088b0:	e1a06000 	mov	r6, r0
 80088b4:	e4937004 	ldr	r7, [r3], #4
 80088b8:	e5912000 	ldr	r2, [r1]
 80088bc:	e2044001 	and	r4, r4, #1
 80088c0:	e2544001 	subs	r4, r4, #1
 80088c4:	e1e07007 	mvn	r7, r7
 80088c8:	e0b22007 	adcs	r2, r2, r7
 80088cc:	e2aa4000 	adc	r4, sl, #0
 80088d0:	e4812004 	str	r2, [r1], #4
 80088d4:	e2566001 	subs	r6, r6, #1
 80088d8:	1afffff5 	bne	0x80088b4
 80088dc:	e59d7070 	ldr	r7, [sp, #112]	@ 0x70
 80088e0:	e3540000 	cmp	r4, #0
 80088e4:	0a0000fd 	beq	0x8008ce0
 80088e8:	e59d106c 	ldr	r1, [sp, #108]	@ 0x6c
 80088ec:	e50b02b4 	str	r0, [fp, #-692]	@ 0xfffffd4c
 80088f0:	e2811001 	add	r1, r1, #1
 80088f4:	e58d106c 	str	r1, [sp, #108]	@ 0x6c
 80088f8:	ea000006 	b	0x8008918
 80088fc:	e24b1e2b 	sub	r1, fp, #688	@ 0x2b0
 8008900:	e0524001 	subs	r4, r2, r1
 8008904:	13e04000 	mvnne	r4, #0
 8008908:	e20410ff 	and	r1, r4, #255	@ 0xff
 800890c:	e3510001 	cmp	r1, #1
 8008910:	9affffe1 	bls	0x800889c
 8008914:	e1a00003 	mov	r0, r3
 8008918:	e59d107c 	ldr	r1, [sp, #124]	@ 0x7c
 800891c:	e28d6080 	add	r6, sp, #128	@ 0x80
 8008920:	e15c0001 	cmp	ip, r1
 8008924:	0a00010b 	beq	0x8008d58
 8008928:	e59d106c 	ldr	r1, [sp, #108]	@ 0x6c
 800892c:	e3500029 	cmp	r0, #41	@ 0x29
 8008930:	e2811030 	add	r1, r1, #48	@ 0x30
 8008934:	e7c6100c 	strb	r1, [r6, ip]
 8008938:	2afffe5b 	bcs	0x80082ac
 800893c:	e59dc068 	ldr	ip, [sp, #104]	@ 0x68
 8008940:	e3500000 	cmp	r0, #0
 8008944:	0a000016 	beq	0x80089a4
 8008948:	e1a01100 	lsl	r1, r0, #2
 800894c:	e3a03000 	mov	r3, #0
 8008950:	e1a02009 	mov	r2, r9
 8008954:	e5927000 	ldr	r7, [r2]
 8008958:	e3a06000 	mov	r6, #0
 800895c:	e2511004 	subs	r1, r1, #4
 8008960:	e0a63e97 	umlal	r3, r6, r7, lr
 8008964:	e4823004 	str	r3, [r2], #4
 8008968:	e1a03006 	mov	r3, r6
 800896c:	1afffff8 	bne	0x8008954
 8008970:	e3560000 	cmp	r6, #0
 8008974:	0a000003 	beq	0x8008988
 8008978:	e3500028 	cmp	r0, #40	@ 0x28
 800897c:	0a0000f1 	beq	0x8008d48
 8008980:	e7896100 	str	r6, [r9, r0, lsl #2]
 8008984:	e2800001 	add	r0, r0, #1
 8008988:	e59d7070 	ldr	r7, [sp, #112]	@ 0x70
 800898c:	e28d6080 	add	r6, sp, #128	@ 0x80
 8008990:	e15c0008 	cmp	ip, r8
 8008994:	e50b02b4 	str	r0, [fp, #-692]	@ 0xfffffd4c
 8008998:	1afffeff 	bne	0x800859c
 800899c:	ea000004 	b	0x80089b4
 80089a0:	007fffff 	ldrshteq	pc, [pc], #-255	@ <UNPREDICTABLE>
 80089a4:	e3a00000 	mov	r0, #0
 80089a8:	e15c0008 	cmp	ip, r8
 80089ac:	e50b02b4 	str	r0, [fp, #-692]	@ 0xfffffd4c
 80089b0:	1afffef9 	bne	0x800859c
 80089b4:	e59d9058 	ldr	r9, [sp, #88]	@ 0x58
 80089b8:	e59da060 	ldr	sl, [sp, #96]	@ 0x60
 80089bc:	e59d4074 	ldr	r4, [sp, #116]	@ 0x74
 80089c0:	e59d5078 	ldr	r5, [sp, #120]	@ 0x78
 80089c4:	e3a0c001 	mov	ip, #1
 80089c8:	ea000002 	b	0x80089d8
 80089cc:	082fde9f 	stmdaeq	pc!, {r0, r1, r2, r3, r4, r7, r9, sl, fp, ip, lr, pc}	@ <UNPREDICTABLE>
 80089d0:	082fdea0 	stmdaeq	pc!, {r5, r7, r9, sl, fp, ip, lr, pc}	@ <UNPREDICTABLE>
 80089d4:	e3a08000 	mov	r8, #0
 80089d8:	e3550029 	cmp	r5, #41	@ 0x29
 80089dc:	2a0000b7 	bcs	0x8008cc0
 80089e0:	e3550000 	cmp	r5, #0
 80089e4:	0a00002e 	beq	0x8008aa4
 80089e8:	e1a0e004 	mov	lr, r4
 80089ec:	e1a01005 	mov	r1, r5
 80089f0:	e1a02105 	lsl	r2, r5, #2
 80089f4:	e24b3e2b 	sub	r3, fp, #688	@ 0x2b0
 80089f8:	e3a06000 	mov	r6, #0
 80089fc:	e3a07005 	mov	r7, #5
 8008a00:	e5934000 	ldr	r4, [r3]
 8008a04:	e3a05000 	mov	r5, #0
 8008a08:	e2522004 	subs	r2, r2, #4
 8008a0c:	e0a56794 	umlal	r6, r5, r4, r7
 8008a10:	e4836004 	str	r6, [r3], #4
 8008a14:	e1a06005 	mov	r6, r5
 8008a18:	1afffff8 	bne	0x8008a00
 8008a1c:	e3550000 	cmp	r5, #0
 8008a20:	0a000004 	beq	0x8008a38
 8008a24:	e3510028 	cmp	r1, #40	@ 0x28
 8008a28:	0a0000c6 	beq	0x8008d48
 8008a2c:	e24b2e2b 	sub	r2, fp, #688	@ 0x2b0
 8008a30:	e7825101 	str	r5, [r2, r1, lsl #2]
 8008a34:	e2811001 	add	r1, r1, #1
 8008a38:	e1a0400e 	mov	r4, lr
 8008a3c:	ea000019 	b	0x8008aa8
 8008a40:	082fde9d 	stmdaeq	pc!, {r0, r2, r3, r4, r7, r9, sl, fp, ip, lr, pc}	@ <UNPREDICTABLE>
 8008a44:	e59d107c 	ldr	r1, [sp, #124]	@ 0x7c
 8008a48:	e1580001 	cmp	r8, r1
 8008a4c:	8a0000a7 	bhi	0x8008cf0
 8008a50:	e59d9058 	ldr	r9, [sp, #88]	@ 0x58
 8008a54:	e59da060 	ldr	sl, [sp, #96]	@ 0x60
 8008a58:	e158000c 	cmp	r8, ip
 8008a5c:	0a000003 	beq	0x8008a70
 8008a60:	e086000c 	add	r0, r6, ip
 8008a64:	e048100c 	sub	r1, r8, ip
 8008a68:	e3a02030 	mov	r2, #48	@ 0x30
 8008a6c:	eb002439 	bl	0x8011b58
 8008a70:	e1a00804 	lsl	r0, r4, #16
 8008a74:	e1a00840 	asr	r0, r0, #16
 8008a78:	e150000a 	cmp	r0, sl
 8008a7c:	da000064 	ble	0x8008c14
 8008a80:	e24b00c4 	sub	r0, fp, #196	@ 0xc4
 8008a84:	e1a01008 	mov	r1, r8
 8008a88:	e1a02004 	mov	r2, r4
 8008a8c:	e1a03009 	mov	r3, r9
 8008a90:	e58d0000 	str	r0, [sp]
 8008a94:	e1a00006 	mov	r0, r6
 8008a98:	eb0009f8 	bl	0x800b280
 8008a9c:	ea00006b 	b	0x8008c50
 8008aa0:	082fdea4 	stmdaeq	pc!, {r2, r5, r7, r9, sl, fp, ip, lr, pc}	@ <UNPREDICTABLE>
 8008aa4:	e3a01000 	mov	r1, #0
 8008aa8:	e1500001 	cmp	r0, r1
 8008aac:	e50b1210 	str	r1, [fp, #-528]	@ 0xfffffdf0
 8008ab0:	81a01000 	movhi	r1, r0
 8008ab4:	e3510029 	cmp	r1, #41	@ 0x29
 8008ab8:	2a000070 	bcs	0x8008c80
 8008abc:	e24b0fd5 	sub	r0, fp, #852	@ 0x354
 8008ac0:	e1a03101 	lsl	r3, r1, #2
 8008ac4:	e24b2e2b 	sub	r2, fp, #688	@ 0x2b0
 8008ac8:	e2400004 	sub	r0, r0, #4
 8008acc:	e0827003 	add	r7, r2, r3
 8008ad0:	e3530000 	cmp	r3, #0
 8008ad4:	0a000007 	beq	0x8008af8
 8008ad8:	e7906003 	ldr	r6, [r0, r3]
 8008adc:	e5177004 	ldr	r7, [r7, #-4]
 8008ae0:	e2433004 	sub	r3, r3, #4
 8008ae4:	e1570006 	cmp	r7, r6
 8008ae8:	0afffff7 	beq	0x8008acc
 8008aec:	3a00000e 	bcc	0x8008b2c
 8008af0:	ea00003f 	b	0x8008bf4
 8008af4:	ffff8000 			@ <UNDEFINED> instruction: 0xffff8000
 8008af8:	e0470002 	sub	r0, r7, r2
 8008afc:	e2702000 	rsbs	r2, r0, #0
 8008b00:	e0a00002 	adc	r0, r0, r2
 8008b04:	e11c0000 	tst	ip, r0
 8008b08:	0a000039 	beq	0x8008bf4
 8008b0c:	e59d107c 	ldr	r1, [sp, #124]	@ 0x7c
 8008b10:	e2480001 	sub	r0, r8, #1
 8008b14:	e1500001 	cmp	r0, r1
 8008b18:	2a000092 	bcs	0x8008d68
 8008b1c:	e28d1080 	add	r1, sp, #128	@ 0x80
 8008b20:	e7d10000 	ldrb	r0, [r1, r0]
 8008b24:	e3100001 	tst	r0, #1
 8008b28:	0a000031 	beq	0x8008bf4
 8008b2c:	e59d007c 	ldr	r0, [sp, #124]	@ 0x7c
 8008b30:	e1580000 	cmp	r8, r0
 8008b34:	8a000074 	bhi	0x8008d0c
 8008b38:	e28d5080 	add	r5, sp, #128	@ 0x80
 8008b3c:	e3e01000 	mvn	r1, #0
 8008b40:	e1a03008 	mov	r3, r8
 8008b44:	e2452001 	sub	r2, r5, #1
 8008b48:	e3530000 	cmp	r3, #0
 8008b4c:	0a00000f 	beq	0x8008b90
 8008b50:	e7d27003 	ldrb	r7, [r2, r3]
 8008b54:	e1a00003 	mov	r0, r3
 8008b58:	e2811001 	add	r1, r1, #1
 8008b5c:	e2433001 	sub	r3, r3, #1
 8008b60:	e3570039 	cmp	r7, #57	@ 0x39
 8008b64:	0afffff7 	beq	0x8008b48
 8008b68:	e7d52003 	ldrb	r2, [r5, r3]
 8008b6c:	e1500008 	cmp	r0, r8
 8008b70:	e2822001 	add	r2, r2, #1
 8008b74:	e7c52003 	strb	r2, [r5, r3]
 8008b78:	2a00001d 	bcs	0x8008bf4
 8008b7c:	e0850000 	add	r0, r5, r0
 8008b80:	e3a02030 	mov	r2, #48	@ 0x30
 8008b84:	eb0023f3 	bl	0x8011b58
 8008b88:	ea000019 	b	0x8008bf4
 8008b8c:	7b4dc993 	blvc	0x937b1e0
 8008b90:	e3580000 	cmp	r8, #0
 8008b94:	0a000008 	beq	0x8008bbc
 8008b98:	e3a00031 	mov	r0, #49	@ 0x31
 8008b9c:	e2581001 	subs	r1, r8, #1
 8008ba0:	e5cd0080 	strb	r0, [sp, #128]	@ 0x80
 8008ba4:	0a000006 	beq	0x8008bc4
 8008ba8:	e2850001 	add	r0, r5, #1
 8008bac:	e3a02030 	mov	r2, #48	@ 0x30
 8008bb0:	e3a06030 	mov	r6, #48	@ 0x30
 8008bb4:	eb0023e7 	bl	0x8011b58
 8008bb8:	ea000002 	b	0x8008bc8
 8008bbc:	e3a06031 	mov	r6, #49	@ 0x31
 8008bc0:	ea000000 	b	0x8008bc8
 8008bc4:	e3a06030 	mov	r6, #48	@ 0x30
 8008bc8:	e2840001 	add	r0, r4, #1
 8008bcc:	e1a00800 	lsl	r0, r0, #16
 8008bd0:	e1a04840 	asr	r4, r0, #16
 8008bd4:	e154000a 	cmp	r4, sl
 8008bd8:	da000005 	ble	0x8008bf4
 8008bdc:	e59d107c 	ldr	r1, [sp, #124]	@ 0x7c
 8008be0:	e1580001 	cmp	r8, r1
 8008be4:	37c56008 	strbcc	r6, [r5, r8]
 8008be8:	32888001 	addcc	r8, r8, #1
 8008bec:	ea000001 	b	0x8008bf8
 8008bf0:	082fd0f0 	stmdaeq	pc!, {r4, r5, r6, r7, ip, lr, pc}	@ <UNPREDICTABLE>
 8008bf4:	e59d107c 	ldr	r1, [sp, #124]	@ 0x7c
 8008bf8:	e1580001 	cmp	r8, r1
 8008bfc:	8a000034 	bhi	0x8008cd4
 8008c00:	e28d6080 	add	r6, sp, #128	@ 0x80
 8008c04:	e1a00804 	lsl	r0, r4, #16
 8008c08:	e1a00840 	asr	r0, r0, #16
 8008c0c:	e150000a 	cmp	r0, sl
 8008c10:	caffff9a 	bgt	0x8008a80
 8008c14:	e3a01002 	mov	r1, #2
 8008c18:	e3590000 	cmp	r9, #0
 8008c1c:	e14b1cb4 	strh	r1, [fp, #-196]	@ 0xffffff3c
 8008c20:	0a000005 	beq	0x8008c3c
 8008c24:	e3a00000 	mov	r0, #0
 8008c28:	e50b90b4 	str	r9, [fp, #-180]	@ 0xffffff4c
 8008c2c:	e50b10bc 	str	r1, [fp, #-188]	@ 0xffffff44
 8008c30:	e14b0bb8 	strh	r0, [fp, #-184]	@ 0xffffff48
 8008c34:	e59f0138 	ldr	r0, [pc, #312]	@ 0x8008d74
 8008c38:	ea000002 	b	0x8008c48
 8008c3c:	e59f0134 	ldr	r0, [pc, #308]	@ 0x8008d78
 8008c40:	e3a01001 	mov	r1, #1
 8008c44:	e50b10bc 	str	r1, [fp, #-188]	@ 0xffffff44
 8008c48:	e50b00c0 	str	r0, [fp, #-192]	@ 0xffffff40
 8008c4c:	e24b00c4 	sub	r0, fp, #196	@ 0xc4
 8008c50:	e28dc044 	add	ip, sp, #68	@ 0x44
 8008c54:	e89c10c0 	ldm	ip, {r6, r7, ip}
 8008c58:	e50b115c 	str	r1, [fp, #-348]	@ 0xfffffea4
 8008c5c:	e50b0160 	str	r0, [fp, #-352]	@ 0xfffffea0
 8008c60:	e24b1f5a 	sub	r1, fp, #360	@ 0x168
 8008c64:	e1a0000c 	mov	r0, ip
 8008c68:	e50b6164 	str	r6, [fp, #-356]	@ 0xfffffe9c
 8008c6c:	e50b7168 	str	r7, [fp, #-360]	@ 0xfffffe98
 8008c70:	ebfffa0f 	bl	0x80074b4
 8008c74:	e24bd01c 	sub	sp, fp, #28
 8008c78:	e8bd4ff0 	pop	{r4, r5, r6, r7, r8, r9, sl, fp, lr}
 8008c7c:	e12fff1e 	bx	lr
 8008c80:	e59f2130 	ldr	r2, [pc, #304]	@ 0x8008db8
 8008c84:	e1a00001 	mov	r0, r1
 8008c88:	e3a01028 	mov	r1, #40	@ 0x28
 8008c8c:	ebfff389 	bl	0x8005ab8
 8008c90:	e59f0150 	ldr	r0, [pc, #336]	@ 0x8008de8
 8008c94:	e59f2150 	ldr	r2, [pc, #336]	@ 0x8008dec
 8008c98:	e3a01025 	mov	r1, #37	@ 0x25
 8008c9c:	ebfff755 	bl	0x80069f8
 8008ca0:	e59f0138 	ldr	r0, [pc, #312]	@ 0x8008de0
 8008ca4:	e59f2138 	ldr	r2, [pc, #312]	@ 0x8008de4
 8008ca8:	e3a0101c 	mov	r1, #28
 8008cac:	ebfff751 	bl	0x80069f8
 8008cb0:	e59f011c 	ldr	r0, [pc, #284]	@ 0x8008dd4
 8008cb4:	e59f20fc 	ldr	r2, [pc, #252]	@ 0x8008db8
 8008cb8:	e3a0101b 	mov	r1, #27
 8008cbc:	ebfff74d 	bl	0x80069f8
 8008cc0:	e59f20f0 	ldr	r2, [pc, #240]	@ 0x8008db8
 8008cc4:	e1a00005 	mov	r0, r5
 8008cc8:	e3a01028 	mov	r1, #40	@ 0x28
 8008ccc:	ebfff379 	bl	0x8005ab8
 8008cd0:	082fdea7 	stmdaeq	pc!, {r0, r1, r2, r5, r7, r9, sl, fp, ip, lr, pc}	@ <UNPREDICTABLE>
 8008cd4:	e59f20f4 	ldr	r2, [pc, #244]	@ 0x8008dd0
 8008cd8:	e1a00008 	mov	r0, r8
 8008cdc:	ebfff375 	bl	0x8005ab8
 8008ce0:	e59f00d4 	ldr	r0, [pc, #212]	@ 0x8008dbc
 8008ce4:	e59f20cc 	ldr	r2, [pc, #204]	@ 0x8008db8
 8008ce8:	e3a0101a 	mov	r1, #26
 8008cec:	ebfff741 	bl	0x80069f8
 8008cf0:	e59f20cc 	ldr	r2, [pc, #204]	@ 0x8008dc4
 8008cf4:	e1a00008 	mov	r0, r8
 8008cf8:	ebfff36e 	bl	0x8005ab8
 8008cfc:	e59f20b4 	ldr	r2, [pc, #180]	@ 0x8008db8
 8008d00:	e1a00003 	mov	r0, r3
 8008d04:	e3a01028 	mov	r1, #40	@ 0x28
 8008d08:	ebfff36a 	bl	0x8005ab8
 8008d0c:	e59f20b8 	ldr	r2, [pc, #184]	@ 0x8008dcc
 8008d10:	e59d107c 	ldr	r1, [sp, #124]	@ 0x7c
 8008d14:	e1a00008 	mov	r0, r8
 8008d18:	ebfff366 	bl	0x8005ab8
 8008d1c:	e59f2074 	ldr	r2, [pc, #116]	@ 0x8008d98
 8008d20:	e59d107c 	ldr	r1, [sp, #124]	@ 0x7c
 8008d24:	ebfff748 	bl	0x8006a4c
 8008d28:	082fdea1 	stmdaeq	pc!, {r0, r5, r7, r9, sl, fp, ip, lr, pc}	@ <UNPREDICTABLE>
 8008d2c:	e59f2048 	ldr	r2, [pc, #72]	@ 0x8008d7c
 8008d30:	e3a01051 	mov	r1, #81	@ 0x51
 8008d34:	ebfff744 	bl	0x8006a4c
 8008d38:	e59f0098 	ldr	r0, [pc, #152]	@ 0x8008dd8
 8008d3c:	e59f2098 	ldr	r2, [pc, #152]	@ 0x8008ddc
 8008d40:	e3a01036 	mov	r1, #54	@ 0x36
 8008d44:	ebfff72b 	bl	0x80069f8
 8008d48:	e59f2068 	ldr	r2, [pc, #104]	@ 0x8008db8
 8008d4c:	e3a00028 	mov	r0, #40	@ 0x28
 8008d50:	e3a01028 	mov	r1, #40	@ 0x28
 8008d54:	ebfff73c 	bl	0x8006a4c
 8008d58:	e59d007c 	ldr	r0, [sp, #124]	@ 0x7c
 8008d5c:	e59f205c 	ldr	r2, [pc, #92]	@ 0x8008dc0
 8008d60:	e1a01000 	mov	r1, r0
 8008d64:	ebfff738 	bl	0x8006a4c
 8008d68:	e59f2058 	ldr	r2, [pc, #88]	@ 0x8008dc8
 8008d6c:	e59d107c 	ldr	r1, [sp, #124]	@ 0x7c
 8008d70:	ebfff735 	bl	0x8006a4c
 8008d74:	082fde9d 	stmdaeq	pc!, {r0, r2, r3, r4, r7, r9, sl, fp, ip, lr, pc}	@ <UNPREDICTABLE>
 8008d78:	082fdea7 	stmdaeq	pc!, {r0, r1, r2, r5, r7, r9, sl, fp, ip, lr, pc}	@ <UNPREDICTABLE>
 8008d7c:	082fd688 	stmdaeq	pc!, {r3, r7, r9, sl, ip, lr, pc}	@ <UNPREDICTABLE>
 8008d80:	05f5e100 	ldrbeq	lr, [r5, #256]!	@ 0x100
 8008d84:	3b9aca00 	blcc	0x66bb58c
 8008d88:	00989680 	addseq	r9, r8, r0, lsl #13
 8008d8c:	cccccccd 	stclgt	12, cr12, [ip], {205}	@ 0xcd
 8008d90:	cccccccc 	stclgt	12, cr12, [ip], {204}	@ 0xcc
 8008d94:	082fd728 	stmdaeq	pc!, {r3, r5, r8, r9, sl, ip, lr, pc}	@ <UNPREDICTABLE>
 8008d98:	082fd738 	stmdaeq	pc!, {r3, r4, r5, r8, r9, sl, ip, lr, pc}	@ <UNPREDICTABLE>
 8008d9c:	55555555 	ldrbpl	r5, [r5, #-1365]	@ 0xfffffaab
 8008da0:	33333333 	teqcc	r3, #-872415232	@ 0xcc000000
 8008da4:	0f0f0f0f 	svceq	0x000f0f0f
 8008da8:	01010101 	tsteq	r1, r1, lsl #2
 8008dac:	44135080 	ldrmi	r5, [r3], #-128	@ 0xffffff80
 8008db0:	4d104d42 	ldcmi	13, cr4, [r0, #-264]	@ 0xfffffef8
 8008db4:	082fdb90 	stmdaeq	pc!, {r4, r7, r8, r9, fp, ip, lr, pc}	@ <UNPREDICTABLE>
 8008db8:	082fd7f0 	stmdaeq	pc!, {r4, r5, r6, r7, r8, r9, sl, ip, lr, pc}	@ <UNPREDICTABLE>
 8008dbc:	082fd800 	stmdaeq	pc!, {fp, ip, lr, pc}	@ <UNPREDICTABLE>
 8008dc0:	082fdd90 	stmdaeq	pc!, {r4, r7, r8, sl, fp, ip, lr, pc}	@ <UNPREDICTABLE>
 8008dc4:	082fdda0 	stmdaeq	pc!, {r5, r7, r8, sl, fp, ip, lr, pc}	@ <UNPREDICTABLE>
 8008dc8:	082fdd60 	stmdaeq	pc!, {r5, r6, r8, sl, fp, ip, lr, pc}	@ <UNPREDICTABLE>
 8008dcc:	082fdd70 	stmdaeq	pc!, {r4, r5, r6, r8, sl, fp, ip, lr, pc}	@ <UNPREDICTABLE>
 8008dd0:	082fdd80 	stmdaeq	pc!, {r7, r8, sl, fp, ip, lr, pc}	@ <UNPREDICTABLE>
 8008dd4:	082fd837 	stmdaeq	pc!, {r0, r1, r2, r4, r5, fp, ip, lr, pc}	@ <UNPREDICTABLE>
 8008dd8:	082fdd28 	stmdaeq	pc!, {r3, r5, r8, sl, fp, ip, lr, pc}	@ <UNPREDICTABLE>
 8008ddc:	082fddb0 	stmdaeq	pc!, {r4, r5, r7, r8, sl, fp, ip, lr, pc}	@ <UNPREDICTABLE>
 8008de0:	082fdcdb 	stmdaeq	pc!, {r0, r1, r3, r4, r6, r7, sl, fp, ip, lr, pc}	@ <UNPREDICTABLE>
 8008de4:	082fd718 	stmdaeq	pc!, {r3, r4, r8, r9, sl, ip, lr, pc}	@ <UNPREDICTABLE>
 8008de8:	082fdea8 	stmdaeq	pc!, {r3, r5, r7, r9, sl, fp, ip, lr, pc}	@ <UNPREDICTABLE>
 8008dec:	082fded0 	stmdaeq	pc!, {r4, r6, r7, r9, sl, fp, ip, lr, pc}	@ <UNPREDICTABLE>
 8008df0:	e92d4ff0 	push	{r4, r5, r6, r7, r8, r9, sl, fp, lr}
 8008df4:	e28db01c 	add	fp, sp, #28
 8008df8:	e24ddf6f 	sub	sp, sp, #444	@ 0x1bc
 8008dfc:	e24ddb01 	sub	sp, sp, #1024	@ 0x400
 8008e00:	e3a030ff 	mov	r3, #255	@ 0xff
 8008e04:	e3e07001 	mvn	r7, #1
 8008e08:	e3c16102 	bic	r6, r1, #-2147483648	@ 0x80000000
 8008e0c:	e3a0c002 	mov	ip, #2
 8008e10:	e0135ba1 	ands	r5, r3, r1, lsr #23
 8008e14:	e59f3fc8 	ldr	r3, [pc, #4040]	@ 0x8009de4
 8008e18:	e24774ff 	sub	r7, r7, #-16777216	@ 0xff000000
 8008e1c:	e0013003 	and	r3, r1, r3
 8008e20:	e3834502 	orr	r4, r3, #8388608	@ 0x800000
 8008e24:	00074081 	andeq	r4, r7, r1, lsl #1
 8008e28:	e3a075fe 	mov	r7, #1065353216	@ 0x3f800000
 8008e2c:	e3877101 	orr	r7, r7, #1073741824	@ 0x40000000
 8008e30:	e1560007 	cmp	r6, r7
 8008e34:	1a00001b 	bne	0x8008ea8
 8008e38:	e3a06003 	mov	r6, #3
 8008e3c:	e58d0054 	str	r0, [sp, #84]	@ 0x54
 8008e40:	e3a09002 	mov	r9, #2
 8008e44:	e3a00000 	mov	r0, #0
 8008e48:	e2463002 	sub	r3, r6, #2
 8008e4c:	e3a0a000 	mov	sl, #0
 8008e50:	e3a04402 	mov	r4, #33554432	@ 0x2000000
 8008e54:	e58d007c 	str	r0, [sp, #124]	@ 0x7c
 8008e58:	e59f5fec 	ldr	r5, [pc, #4076]	@ 0x8009e4c
 8008e5c:	e1b08fa1 	lsrs	r8, r1, #31
 8008e60:	e59f7fe8 	ldr	r7, [pc, #4072]	@ 0x8009e50
 8008e64:	e3a01001 	mov	r1, #1
 8008e68:	11a07005 	movne	r7, r5
 8008e6c:	01a05001 	moveq	r5, r1
 8008e70:	e3520000 	cmp	r2, #0
 8008e74:	11a05007 	movne	r5, r7
 8008e78:	e3a07003 	mov	r7, #3
 8008e7c:	e3530003 	cmp	r3, #3
 8008e80:	21a03007 	movcs	r3, r7
 8008e84:	e3520000 	cmp	r2, #0
 8008e88:	13a08001 	movne	r8, #1
 8008e8c:	e3530001 	cmp	r3, #1
 8008e90:	0a000018 	beq	0x8008ef8
 8008e94:	e3530002 	cmp	r3, #2
 8008e98:	1a00001e 	bne	0x8008f18
 8008e9c:	e59f0fb0 	ldr	r0, [pc, #4016]	@ 0x8009e54
 8008ea0:	e50b10bc 	str	r1, [fp, #-188]	@ 0xffffff44
 8008ea4:	ea000015 	b	0x8008f00
 8008ea8:	e0016007 	and	r6, r1, r7
 8008eac:	e1560007 	cmp	r6, r7
 8008eb0:	0a000131 	beq	0x800937c
 8008eb4:	e2047001 	and	r7, r4, #1
 8008eb8:	e3560000 	cmp	r6, #0
 8008ebc:	1a000112 	bne	0x800930c
 8008ec0:	e3530000 	cmp	r3, #0
 8008ec4:	0a0001e7 	beq	0x8009668
 8008ec8:	e245e096 	sub	lr, r5, #150	@ 0x96
 8008ecc:	e2276001 	eor	r6, r7, #1
 8008ed0:	e3e03001 	mvn	r3, #1
 8008ed4:	e3a07000 	mov	r7, #0
 8008ed8:	e1963003 	orrs	r3, r6, r3
 8008edc:	0a000126 	beq	0x800937c
 8008ee0:	e3a0a000 	mov	sl, #0
 8008ee4:	e3a0c001 	mov	ip, #1
 8008ee8:	e3a09001 	mov	r9, #1
 8008eec:	e58d707c 	str	r7, [sp, #124]	@ 0x7c
 8008ef0:	e58d0054 	str	r0, [sp, #84]	@ 0x54
 8008ef4:	eaffffd7 	b	0x8008e58
 8008ef8:	e59f0fbc 	ldr	r0, [pc, #4028]	@ 0x8009ebc
 8008efc:	e50b70bc 	str	r7, [fp, #-188]	@ 0xffffff44
 8008f00:	e50b00c0 	str	r0, [fp, #-192]	@ 0xffffff40
 8008f04:	e3a00002 	mov	r0, #2
 8008f08:	e24b20c4 	sub	r2, fp, #196	@ 0xc4
 8008f0c:	e14b0cb4 	strh	r0, [fp, #-196]	@ 0xffffff3c
 8008f10:	e59d0054 	ldr	r0, [sp, #84]	@ 0x54
 8008f14:	ea0005ec 	b	0x800a6cc
 8008f18:	e59d207c 	ldr	r2, [sp, #124]	@ 0x7c
 8008f1c:	e1940002 	orrs	r0, r4, r2
 8008f20:	0a0006c4 	beq	0x800aa38
 8008f24:	e094100c 	adds	r1, r4, ip
 8008f28:	e3a00000 	mov	r0, #0
 8008f2c:	e0b2100a 	adcs	r1, r2, sl
 8008f30:	e2a00000 	adc	r0, r0, #0
 8008f34:	e3500001 	cmp	r0, #1
 8008f38:	0a00075c 	beq	0x800acb0
 8008f3c:	e094300c 	adds	r3, r4, ip
 8008f40:	e0aa1002 	adc	r1, sl, r2
 8008f44:	e3510202 	cmp	r1, #536870912	@ 0x20000000
 8008f48:	2a0006be 	bcs	0x800aa48
 8008f4c:	e58dc020 	str	ip, [sp, #32]
 8008f50:	e254c001 	subs	ip, r4, #1
 8008f54:	e1a00001 	mov	r0, r1
 8008f58:	e1a07001 	mov	r7, r1
 8008f5c:	e58d4048 	str	r4, [sp, #72]	@ 0x48
 8008f60:	e58d3018 	str	r3, [sp, #24]
 8008f64:	e58d606c 	str	r6, [sp, #108]	@ 0x6c
 8008f68:	e24b6e16 	sub	r6, fp, #352	@ 0x160
 8008f6c:	e58de038 	str	lr, [sp, #56]	@ 0x38
 8008f70:	e58d901c 	str	r9, [sp, #28]
 8008f74:	e2c22000 	sbc	r2, r2, #0
 8008f78:	e3510000 	cmp	r1, #0
 8008f7c:	e1c6e0b0 	strh	lr, [r6]
 8008f80:	e50bc168 	str	ip, [fp, #-360]	@ 0xfffffe98
 8008f84:	01a00003 	moveq	r0, r3
 8008f88:	e58d2078 	str	r2, [sp, #120]	@ 0x78
 8008f8c:	e50b2164 	str	r2, [fp, #-356]	@ 0xfffffe9c
 8008f90:	e1a0200e 	mov	r2, lr
 8008f94:	e59de038 	ldr	lr, [sp, #56]	@ 0x38
 8008f98:	02422020 	subeq	r2, r2, #32
 8008f9c:	e3500801 	cmp	r0, #65536	@ 0x10000
 8008fa0:	e1a04000 	mov	r4, r0
 8008fa4:	32422010 	subcc	r2, r2, #16
 8008fa8:	e3510000 	cmp	r1, #0
 8008fac:	11a07003 	movne	r7, r3
 8008fb0:	e1a03800 	lsl	r3, r0, #16
 8008fb4:	e3500801 	cmp	r0, #65536	@ 0x10000
 8008fb8:	31834827 	orrcc	r4, r3, r7, lsr #16
 8008fbc:	e3540401 	cmp	r4, #16777216	@ 0x1000000
 8008fc0:	e1a03004 	mov	r3, r4
 8008fc4:	32422008 	subcc	r2, r2, #8
 8008fc8:	e3500801 	cmp	r0, #65536	@ 0x10000
 8008fcc:	e1a00404 	lsl	r0, r4, #8
 8008fd0:	31a07807 	lslcc	r7, r7, #16
 8008fd4:	e3540401 	cmp	r4, #16777216	@ 0x1000000
 8008fd8:	31803c27 	orrcc	r3, r0, r7, lsr #24
 8008fdc:	e3530201 	cmp	r3, #268435456	@ 0x10000000
 8008fe0:	e1a00203 	lsl	r0, r3, #4
 8008fe4:	e1a06003 	mov	r6, r3
 8008fe8:	32422004 	subcc	r2, r2, #4
 8008fec:	e3540401 	cmp	r4, #16777216	@ 0x1000000
 8008ff0:	31a07407 	lslcc	r7, r7, #8
 8008ff4:	e3530201 	cmp	r3, #268435456	@ 0x10000000
 8008ff8:	31806e27 	orrcc	r6, r0, r7, lsr #28
 8008ffc:	e3560101 	cmp	r6, #1073741824	@ 0x40000000
 8009000:	e1a00106 	lsl	r0, r6, #2
 8009004:	32422002 	subcc	r2, r2, #2
 8009008:	e3530201 	cmp	r3, #268435456	@ 0x10000000
 800900c:	e1a03006 	mov	r3, r6
 8009010:	31a07207 	lslcc	r7, r7, #4
 8009014:	e3560101 	cmp	r6, #1073741824	@ 0x40000000
 8009018:	31803f27 	orrcc	r3, r0, r7, lsr #30
 800901c:	e3730001 	cmn	r3, #1
 8009020:	c2422001 	subgt	r2, r2, #1
 8009024:	e3730001 	cmn	r3, #1
 8009028:	e04e0002 	sub	r0, lr, r2
 800902c:	c3a0a001 	movgt	sl, #1
 8009030:	e3560101 	cmp	r6, #1073741824	@ 0x40000000
 8009034:	e1a00800 	lsl	r0, r0, #16
 8009038:	31a07107 	lslcc	r7, r7, #2
 800903c:	e1a00840 	asr	r0, r0, #16
 8009040:	e3700001 	cmn	r0, #1
 8009044:	da000683 	ble	0x800aa58
 8009048:	e59d4078 	ldr	r4, [sp, #120]	@ 0x78
 800904c:	e58d1014 	str	r1, [sp, #20]
 8009050:	e58d8028 	str	r8, [sp, #40]	@ 0x28
 8009054:	e200803f 	and	r8, r0, #63	@ 0x3f
 8009058:	e3e01000 	mvn	r1, #0
 800905c:	e58d3074 	str	r3, [sp, #116]	@ 0x74
 8009060:	e1a00831 	lsr	r0, r1, r8
 8009064:	e2589020 	subs	r9, r8, #32
 8009068:	e2686020 	rsb	r6, r8, #32
 800906c:	53a00000 	movpl	r0, #0
 8009070:	e3590000 	cmp	r9, #0
 8009074:	e0003004 	and	r3, r0, r4
 8009078:	e50b320c 	str	r3, [fp, #-524]	@ 0xfffffdf4
 800907c:	e3e03027 	mvn	r3, #39	@ 0x27
 8009080:	e3833027 	orr	r3, r3, #39	@ 0x27
 8009084:	e1a03833 	lsr	r3, r3, r8
 8009088:	e1833611 	orr	r3, r3, r1, lsl r6
 800908c:	51a03931 	lsrpl	r3, r1, r9
 8009090:	e003100c 	and	r1, r3, ip
 8009094:	e50b1210 	str	r1, [fp, #-528]	@ 0xfffffdf0
 8009098:	e053100c 	subs	r1, r3, ip
 800909c:	e0d01004 	sbcs	r1, r0, r4
 80090a0:	3a000635 	bcc	0x800a97c
 80090a4:	e24b1e16 	sub	r1, fp, #352	@ 0x160
 80090a8:	e59d4048 	ldr	r4, [sp, #72]	@ 0x48
 80090ac:	e58d6060 	str	r6, [sp, #96]	@ 0x60
 80090b0:	e3590000 	cmp	r9, #0
 80090b4:	e1c1e0b0 	strh	lr, [r1]
 80090b8:	e59de07c 	ldr	lr, [sp, #124]	@ 0x7c
 80090bc:	e50b4168 	str	r4, [fp, #-360]	@ 0xfffffe98
 80090c0:	e000100e 	and	r1, r0, lr
 80090c4:	e50be164 	str	lr, [fp, #-356]	@ 0xfffffe9c
 80090c8:	e50b120c 	str	r1, [fp, #-524]	@ 0xfffffdf4
 80090cc:	e0031004 	and	r1, r3, r4
 80090d0:	e50b1210 	str	r1, [fp, #-528]	@ 0xfffffdf0
 80090d4:	e1a0163c 	lsr	r1, ip, r6
 80090d8:	e59d6078 	ldr	r6, [sp, #120]	@ 0x78
 80090dc:	e1811816 	orr	r1, r1, r6, lsl r8
 80090e0:	e1a0681c 	lsl	r6, ip, r8
 80090e4:	51a0191c 	lslpl	r1, ip, r9
 80090e8:	53a06000 	movpl	r6, #0
 80090ec:	e58d1078 	str	r1, [sp, #120]	@ 0x78
 80090f0:	e0531004 	subs	r1, r3, r4
 80090f4:	e0d0000e 	sbcs	r0, r0, lr
 80090f8:	3a00061f 	bcc	0x800a97c
 80090fc:	e3e0005f 	mvn	r0, #95	@ 0x5f
 8009100:	e3a01e3b 	mov	r1, #944	@ 0x3b0
 8009104:	e58d904c 	str	r9, [sp, #76]	@ 0x4c
 8009108:	e58d6058 	str	r6, [sp, #88]	@ 0x58
 800910c:	e58d5024 	str	r5, [sp, #36]	@ 0x24
 8009110:	e0400002 	sub	r0, r0, r2
 8009114:	e3811a15 	orr	r1, r1, #86016	@ 0x15000
 8009118:	e1a00800 	lsl	r0, r0, #16
 800911c:	e1a00840 	asr	r0, r0, #16
 8009120:	e0800100 	add	r0, r0, r0, lsl #2
 8009124:	e0810200 	add	r0, r1, r0, lsl #4
 8009128:	e59f1fdc 	ldr	r1, [pc, #4060]	@ 0x800a10c
 800912c:	e0c43190 	smull	r3, r4, r0, r1
 8009130:	e1a00544 	asr	r0, r4, #10
 8009134:	e0801fa4 	add	r1, r0, r4, lsr #31
 8009138:	e3510051 	cmp	r1, #81	@ 0x51
 800913c:	2a0006df 	bcs	0x800acc0
 8009140:	e59d0074 	ldr	r0, [sp, #116]	@ 0x74
 8009144:	e1a030a7 	lsr	r3, r7, #1
 8009148:	e22a401f 	eor	r4, sl, #31
 800914c:	e3a05000 	mov	r5, #0
 8009150:	e3a06000 	mov	r6, #0
 8009154:	e1a00a10 	lsl	r0, r0, sl
 8009158:	e1800433 	orr	r0, r0, r3, lsr r4
 800915c:	e1a03a17 	lsl	r3, r7, sl
 8009160:	e59fafa8 	ldr	sl, [pc, #4008]	@ 0x800a110
 8009164:	e7ba9201 	ldr	r9, [sl, r1, lsl #4]!
 8009168:	e59a1004 	ldr	r1, [sl, #4]
 800916c:	e084e099 	umull	lr, r4, r9, r0
 8009170:	e0a54091 	umlal	r4, r5, r1, r0
 8009174:	e08c0391 	umull	r0, ip, r1, r3
 8009178:	e094c00c 	adds	ip, r4, ip
 800917c:	e0847399 	umull	r7, r4, r9, r3
 8009180:	e2a55000 	adc	r5, r5, #0
 8009184:	e09e3004 	adds	r3, lr, r4
 8009188:	e59d407c 	ldr	r4, [sp, #124]	@ 0x7c
 800918c:	e2a67000 	adc	r7, r6, #0
 8009190:	e0930000 	adds	r0, r3, r0
 8009194:	e2a73000 	adc	r3, r7, #0
 8009198:	e2900102 	adds	r0, r0, #-2147483648	@ 0x80000000
 800919c:	e0bc0003 	adcs	r0, ip, r3
 80091a0:	e2a53000 	adc	r3, r5, #0
 80091a4:	e2907001 	adds	r7, r0, #1
 80091a8:	e1da00b8 	ldrh	r0, [sl, #8]
 80091ac:	e2a33000 	adc	r3, r3, #0
 80091b0:	e58d7044 	str	r7, [sp, #68]	@ 0x44
 80091b4:	e58d3040 	str	r3, [sp, #64]	@ 0x40
 80091b8:	e0820000 	add	r0, r2, r0
 80091bc:	e2600000 	rsb	r0, r0, #0
 80091c0:	e200203f 	and	r2, r0, #63	@ 0x3f
 80091c4:	e1a00237 	lsr	r0, r7, r2
 80091c8:	e2625020 	rsb	r5, r2, #32
 80091cc:	e2527020 	subs	r7, r2, #32
 80091d0:	e58d2070 	str	r2, [sp, #112]	@ 0x70
 80091d4:	e180c513 	orr	ip, r0, r3, lsl r5
 80091d8:	e3a00001 	mov	r0, #1
 80091dc:	e58d5064 	str	r5, [sp, #100]	@ 0x64
 80091e0:	e58d7068 	str	r7, [sp, #104]	@ 0x68
 80091e4:	e1a05530 	lsr	r5, r0, r5
 80091e8:	51a0c733 	lsrpl	ip, r3, r7
 80091ec:	51a05710 	lslpl	r5, r0, r7
 80091f0:	e3570000 	cmp	r7, #0
 80091f4:	e1a00210 	lsl	r0, r0, r2
 80091f8:	e59d7048 	ldr	r7, [sp, #72]	@ 0x48
 80091fc:	53a00000 	movpl	r0, #0
 8009200:	e58d5050 	str	r5, [sp, #80]	@ 0x50
 8009204:	e250e001 	subs	lr, r0, #1
 8009208:	e58d0008 	str	r0, [sp, #8]
 800920c:	e2c50000 	sbc	r0, r5, #0
 8009210:	e59d504c 	ldr	r5, [sp, #76]	@ 0x4c
 8009214:	e58d005c 	str	r0, [sp, #92]	@ 0x5c
 8009218:	e0030000 	and	r0, r3, r0
 800921c:	e58d003c 	str	r0, [sp, #60]	@ 0x3c
 8009220:	e1a00817 	lsl	r0, r7, r8
 8009224:	e3550000 	cmp	r5, #0
 8009228:	53a00000 	movpl	r0, #0
 800922c:	e0832099 	umull	r2, r3, r9, r0
 8009230:	e59d2060 	ldr	r2, [sp, #96]	@ 0x60
 8009234:	e58de060 	str	lr, [sp, #96]	@ 0x60
 8009238:	e1a02237 	lsr	r2, r7, r2
 800923c:	e1822814 	orr	r2, r2, r4, lsl r8
 8009240:	e3a08000 	mov	r8, #0
 8009244:	51a02517 	lslpl	r2, r7, r5
 8009248:	e0854091 	umull	r4, r5, r1, r0
 800924c:	e0867299 	umull	r7, r6, r9, r2
 8009250:	e0973003 	adds	r3, r7, r3
 8009254:	e2a87000 	adc	r7, r8, #0
 8009258:	e0930004 	adds	r0, r3, r4
 800925c:	e2a73000 	adc	r3, r7, #0
 8009260:	e3a07000 	mov	r7, #0
 8009264:	e0a76291 	umlal	r6, r7, r1, r2
 8009268:	e0962005 	adds	r2, r6, r5
 800926c:	e59d6058 	ldr	r6, [sp, #88]	@ 0x58
 8009270:	e59d5078 	ldr	r5, [sp, #120]	@ 0x78
 8009274:	e2a77000 	adc	r7, r7, #0
 8009278:	e2900102 	adds	r0, r0, #-2147483648	@ 0x80000000
 800927c:	e0b20003 	adcs	r0, r2, r3
 8009280:	e58d002c 	str	r0, [sp, #44]	@ 0x2c
 8009284:	e2a70000 	adc	r0, r7, #0
 8009288:	e1a0700c 	mov	r7, ip
 800928c:	e58d0030 	str	r0, [sp, #48]	@ 0x30
 8009290:	e0820699 	umull	r0, r2, r9, r6
 8009294:	e0843691 	umull	r3, r4, r1, r6
 8009298:	e08c0599 	umull	r0, ip, r9, r5
 800929c:	e0900002 	adds	r0, r0, r2
 80092a0:	e2a82000 	adc	r2, r8, #0
 80092a4:	e0900003 	adds	r0, r0, r3
 80092a8:	e0836591 	umull	r6, r3, r1, r5
 80092ac:	e2a22000 	adc	r2, r2, #0
 80092b0:	e2900102 	adds	r0, r0, #-2147483648	@ 0x80000000
 80092b4:	e58d304c 	str	r3, [sp, #76]	@ 0x4c
 80092b8:	e59d0044 	ldr	r0, [sp, #68]	@ 0x44
 80092bc:	e2a29000 	adc	r9, r2, #0
 80092c0:	e3a02e71 	mov	r2, #1808	@ 0x710
 80092c4:	e3822a02 	orr	r2, r2, #8192	@ 0x2000
 80092c8:	e58d9058 	str	r9, [sp, #88]	@ 0x58
 80092cc:	e1570002 	cmp	r7, r2
 80092d0:	e000000e 	and	r0, r0, lr
 80092d4:	e58d0074 	str	r0, [sp, #116]	@ 0x74
 80092d8:	e1da00ba 	ldrh	r0, [sl, #10]
 80092dc:	e58d007c 	str	r0, [sp, #124]	@ 0x7c
 80092e0:	2a000010 	bcs	0x8009328
 80092e4:	e1a0a006 	mov	sl, r6
 80092e8:	e1a09004 	mov	r9, r4
 80092ec:	e1a0600c 	mov	r6, ip
 80092f0:	e3570064 	cmp	r7, #100	@ 0x64
 80092f4:	2a00002b 	bcs	0x80093a8
 80092f8:	e3570009 	cmp	r7, #9
 80092fc:	e3a01001 	mov	r1, #1
 8009300:	83a08001 	movhi	r8, #1
 8009304:	83a0100a 	movhi	r1, #10
 8009308:	ea00002b 	b	0x80093bc
 800930c:	e3540502 	cmp	r4, #8388608	@ 0x800000
 8009310:	1a000012 	bne	0x8009360
 8009314:	e245e098 	sub	lr, r5, #152	@ 0x98
 8009318:	e3a09001 	mov	r9, #1
 800931c:	e3a06001 	mov	r6, #1
 8009320:	e58d0054 	str	r0, [sp, #84]	@ 0x54
 8009324:	eafffec6 	b	0x8008e44
 8009328:	e3a00d09 	mov	r0, #576	@ 0x240
 800932c:	e1a0a006 	mov	sl, r6
 8009330:	e1a09004 	mov	r9, r4
 8009334:	e1a0600c 	mov	r6, ip
 8009338:	e380093d 	orr	r0, r0, #999424	@ 0xf4000
 800933c:	e1570000 	cmp	r7, r0
 8009340:	2a0000bd 	bcs	0x800963c
 8009344:	e3a01e6a 	mov	r1, #1696	@ 0x6a0
 8009348:	e3a08005 	mov	r8, #5
 800934c:	e3811906 	orr	r1, r1, #98304	@ 0x18000
 8009350:	e1570001 	cmp	r7, r1
 8009354:	33a08004 	movcc	r8, #4
 8009358:	31a01002 	movcc	r1, r2
 800935c:	ea000016 	b	0x80093bc
 8009360:	e1a04084 	lsl	r4, r4, #1
 8009364:	e2276001 	eor	r6, r7, #1
 8009368:	e245e097 	sub	lr, r5, #151	@ 0x97
 800936c:	e3e03001 	mvn	r3, #1
 8009370:	e3a07000 	mov	r7, #0
 8009374:	e1963003 	orrs	r3, r6, r3
 8009378:	1afffed8 	bne	0x8008ee0
 800937c:	e3a01003 	mov	r1, #3
 8009380:	e3a05001 	mov	r5, #1
 8009384:	e24b20c4 	sub	r2, fp, #196	@ 0xc4
 8009388:	e3a08000 	mov	r8, #0
 800938c:	e50b10bc 	str	r1, [fp, #-188]	@ 0xffffff44
 8009390:	e59f1f90 	ldr	r1, [pc, #3984]	@ 0x800a328
 8009394:	e50b10c0 	str	r1, [fp, #-192]	@ 0xffffff40
 8009398:	e3a01002 	mov	r1, #2
 800939c:	e14b1cb4 	strh	r1, [fp, #-196]	@ 0xffffff3c
 80093a0:	e3a01001 	mov	r1, #1
 80093a4:	ea0004c8 	b	0x800a6cc
 80093a8:	e3a08003 	mov	r8, #3
 80093ac:	e3570ffa 	cmp	r7, #1000	@ 0x3e8
 80093b0:	e3a01ffa 	mov	r1, #1000	@ 0x3e8
 80093b4:	33a08002 	movcc	r8, #2
 80093b8:	33a01064 	movcc	r1, #100	@ 0x64
 80093bc:	e59d5040 	ldr	r5, [sp, #64]	@ 0x40
 80093c0:	e1a00007 	mov	r0, r7
 80093c4:	e58d1034 	str	r1, [sp, #52]	@ 0x34
 80093c8:	eb001f2b 	bl	0x801107c
 80093cc:	e59d204c 	ldr	r2, [sp, #76]	@ 0x4c
 80093d0:	e59d3058 	ldr	r3, [sp, #88]	@ 0x58
 80093d4:	e2801030 	add	r1, r0, #48	@ 0x30
 80093d8:	e59de044 	ldr	lr, [sp, #68]	@ 0x44
 80093dc:	e59d4034 	ldr	r4, [sp, #52]	@ 0x34
 80093e0:	e1a0c001 	mov	ip, r1
 80093e4:	e5cd1083 	strb	r1, [sp, #131]	@ 0x83
 80093e8:	e09a1006 	adds	r1, sl, r6
 80093ec:	e2a22000 	adc	r2, r2, #0
 80093f0:	e0911009 	adds	r1, r1, r9
 80093f4:	e2a22000 	adc	r2, r2, #0
 80093f8:	e0911003 	adds	r1, r1, r3
 80093fc:	e2a22000 	adc	r2, r2, #0
 8009400:	e05e1001 	subs	r1, lr, r1
 8009404:	e0c52002 	sbc	r2, r5, r2
 8009408:	e2916001 	adds	r6, r1, #1
 800940c:	e58d1010 	str	r1, [sp, #16]
 8009410:	e0010490 	mul	r1, r0, r4
 8009414:	e59d0064 	ldr	r0, [sp, #100]	@ 0x64
 8009418:	e0475001 	sub	r5, r7, r1
 800941c:	e59d1068 	ldr	r1, [sp, #104]	@ 0x68
 8009420:	e2a23000 	adc	r3, r2, #0
 8009424:	e58d200c 	str	r2, [sp, #12]
 8009428:	e59d2074 	ldr	r2, [sp, #116]	@ 0x74
 800942c:	e58d6058 	str	r6, [sp, #88]	@ 0x58
 8009430:	e58d3078 	str	r3, [sp, #120]	@ 0x78
 8009434:	e1a00035 	lsr	r0, r5, r0
 8009438:	e3510000 	cmp	r1, #0
 800943c:	51a00115 	lslpl	r0, r5, r1
 8009440:	e59d1070 	ldr	r1, [sp, #112]	@ 0x70
 8009444:	e1a01115 	lsl	r1, r5, r1
 8009448:	53a01000 	movpl	r1, #0
 800944c:	e091a002 	adds	sl, r1, r2
 8009450:	e59d103c 	ldr	r1, [sp, #60]	@ 0x3c
 8009454:	e0a07001 	adc	r7, r0, r1
 8009458:	e59d007c 	ldr	r0, [sp, #124]	@ 0x7c
 800945c:	e0480000 	sub	r0, r8, r0
 8009460:	e2802001 	add	r2, r0, #1
 8009464:	e05a0006 	subs	r0, sl, r6
 8009468:	e0d70003 	sbcs	r0, r7, r3
 800946c:	e58d204c 	str	r2, [sp, #76]	@ 0x4c
 8009470:	2a000007 	bcs	0x8009494
 8009474:	e3a00001 	mov	r0, #1
 8009478:	e59d102c 	ldr	r1, [sp, #44]	@ 0x2c
 800947c:	e1a0800c 	mov	r8, ip
 8009480:	e58d007c 	str	r0, [sp, #124]	@ 0x7c
 8009484:	e28d0083 	add	r0, sp, #131	@ 0x83
 8009488:	e58d0060 	str	r0, [sp, #96]	@ 0x60
 800948c:	e59d0030 	ldr	r0, [sp, #48]	@ 0x30
 8009490:	ea000028 	b	0x8009538
 8009494:	e3580000 	cmp	r8, #0
 8009498:	e3a01001 	mov	r1, #1
 800949c:	0a000079 	beq	0x8009688
 80094a0:	e354000a 	cmp	r4, #10
 80094a4:	e58d807c 	str	r8, [sp, #124]	@ 0x7c
 80094a8:	3a000608 	bcc	0x800acd0
 80094ac:	e59f0f74 	ldr	r0, [pc, #3956]	@ 0x800a428
 80094b0:	e0861094 	umull	r1, r6, r4, r0
 80094b4:	e1a00005 	mov	r0, r5
 80094b8:	e1a01006 	mov	r1, r6
 80094bc:	eb001eee 	bl	0x801107c
 80094c0:	e0010690 	mul	r1, r0, r6
 80094c4:	e2808030 	add	r8, r0, #48	@ 0x30
 80094c8:	e59d0064 	ldr	r0, [sp, #100]	@ 0x64
 80094cc:	e59d2074 	ldr	r2, [sp, #116]	@ 0x74
 80094d0:	e28d9083 	add	r9, sp, #131	@ 0x83
 80094d4:	e0455001 	sub	r5, r5, r1
 80094d8:	e59d1068 	ldr	r1, [sp, #104]	@ 0x68
 80094dc:	e5cd8084 	strb	r8, [sp, #132]	@ 0x84
 80094e0:	e1a00035 	lsr	r0, r5, r0
 80094e4:	e3510000 	cmp	r1, #0
 80094e8:	51a00115 	lslpl	r0, r5, r1
 80094ec:	e59d1070 	ldr	r1, [sp, #112]	@ 0x70
 80094f0:	e1a01115 	lsl	r1, r5, r1
 80094f4:	53a01000 	movpl	r1, #0
 80094f8:	e091a002 	adds	sl, r1, r2
 80094fc:	e59d103c 	ldr	r1, [sp, #60]	@ 0x3c
 8009500:	e0a07001 	adc	r7, r0, r1
 8009504:	e59d0058 	ldr	r0, [sp, #88]	@ 0x58
 8009508:	e05a0000 	subs	r0, sl, r0
 800950c:	e59d0078 	ldr	r0, [sp, #120]	@ 0x78
 8009510:	e0d70000 	sbcs	r0, r7, r0
 8009514:	2a000056 	bcs	0x8009674
 8009518:	e2890001 	add	r0, r9, #1
 800951c:	e1a04006 	mov	r4, r6
 8009520:	e58d0060 	str	r0, [sp, #96]	@ 0x60
 8009524:	e3a00002 	mov	r0, #2
 8009528:	e58d007c 	str	r0, [sp, #124]	@ 0x7c
 800952c:	e59d0030 	ldr	r0, [sp, #48]	@ 0x30
 8009530:	e59d102c 	ldr	r1, [sp, #44]	@ 0x2c
 8009534:	e59de044 	ldr	lr, [sp, #68]	@ 0x44
 8009538:	e59d2040 	ldr	r2, [sp, #64]	@ 0x40
 800953c:	e05e1001 	subs	r1, lr, r1
 8009540:	e59d3064 	ldr	r3, [sp, #100]	@ 0x64
 8009544:	e0c25000 	sbc	r5, r2, r0
 8009548:	e2910001 	adds	r0, r1, #1
 800954c:	e1a0e334 	lsr	lr, r4, r3
 8009550:	e59d2078 	ldr	r2, [sp, #120]	@ 0x78
 8009554:	e59d3068 	ldr	r3, [sp, #104]	@ 0x68
 8009558:	e58d0074 	str	r0, [sp, #116]	@ 0x74
 800955c:	e2a50000 	adc	r0, r5, #0
 8009560:	e58d005c 	str	r0, [sp, #92]	@ 0x5c
 8009564:	e59d0058 	ldr	r0, [sp, #88]	@ 0x58
 8009568:	e050000a 	subs	r0, r0, sl
 800956c:	e0c22007 	sbc	r2, r2, r7
 8009570:	e3530000 	cmp	r3, #0
 8009574:	51a0e314 	lslpl	lr, r4, r3
 8009578:	e59d3070 	ldr	r3, [sp, #112]	@ 0x70
 800957c:	e1a0c314 	lsl	ip, r4, r3
 8009580:	e3a03000 	mov	r3, #0
 8009584:	53a0c000 	movpl	ip, #0
 8009588:	e050600c 	subs	r6, r0, ip
 800958c:	e0d2600e 	sbcs	r6, r2, lr
 8009590:	33a03001 	movcc	r3, #1
 8009594:	e2511001 	subs	r1, r1, #1
 8009598:	e2c56000 	sbc	r6, r5, #0
 800959c:	e05a5001 	subs	r5, sl, r1
 80095a0:	e0d75006 	sbcs	r5, r7, r6
 80095a4:	2a0000ca 	bcs	0x80098d4
 80095a8:	e050000c 	subs	r0, r0, ip
 80095ac:	e0d2000e 	sbcs	r0, r2, lr
 80095b0:	3a0000c7 	bcc	0x80098d4
 80095b4:	e09a000c 	adds	r0, sl, ip
 80095b8:	e0a7200e 	adc	r2, r7, lr
 80095bc:	e0503001 	subs	r3, r0, r1
 80095c0:	e0d23006 	sbcs	r3, r2, r6
 80095c4:	3a000008 	bcc	0x80095ec
 80095c8:	e0503001 	subs	r3, r0, r1
 80095cc:	e1a04008 	mov	r4, r8
 80095d0:	e0c25006 	sbc	r5, r2, r6
 80095d4:	e051800a 	subs	r8, r1, sl
 80095d8:	e0c69007 	sbc	r9, r6, r7
 80095dc:	e0583003 	subs	r3, r8, r3
 80095e0:	e1a08004 	mov	r8, r4
 80095e4:	e0d93005 	sbcs	r3, r9, r5
 80095e8:	3a0000b8 	bcc	0x80098d0
 80095ec:	e59d3060 	ldr	r3, [sp, #96]	@ 0x60
 80095f0:	e2488001 	sub	r8, r8, #1
 80095f4:	e5c38000 	strb	r8, [r3]
 80095f8:	e59d3058 	ldr	r3, [sp, #88]	@ 0x58
 80095fc:	e0537000 	subs	r7, r3, r0
 8009600:	e59d3078 	ldr	r3, [sp, #120]	@ 0x78
 8009604:	e0c35002 	sbc	r5, r3, r2
 8009608:	e057300c 	subs	r3, r7, ip
 800960c:	e0d5300e 	sbcs	r3, r5, lr
 8009610:	e3a03000 	mov	r3, #0
 8009614:	33a03001 	movcc	r3, #1
 8009618:	e0504001 	subs	r4, r0, r1
 800961c:	e0d24006 	sbcs	r4, r2, r6
 8009620:	2a0000ad 	bcs	0x80098dc
 8009624:	e057400c 	subs	r4, r7, ip
 8009628:	e1a0a000 	mov	sl, r0
 800962c:	e1a07002 	mov	r7, r2
 8009630:	e0d5400e 	sbcs	r4, r5, lr
 8009634:	2affffde 	bcs	0x80095b4
 8009638:	ea0000a7 	b	0x80098dc
 800963c:	e59f1fdc 	ldr	r1, [pc, #4060]	@ 0x800a620
 8009640:	e59d5040 	ldr	r5, [sp, #64]	@ 0x40
 8009644:	e1570001 	cmp	r7, r1
 8009648:	2a00009a 	bcs	0x80098b8
 800964c:	e59f1fd0 	ldr	r1, [pc, #4048]	@ 0x800a624
 8009650:	e3a08007 	mov	r8, #7
 8009654:	e1570001 	cmp	r7, r1
 8009658:	21a00001 	movcs	r0, r1
 800965c:	33a08006 	movcc	r8, #6
 8009660:	e1a01000 	mov	r1, r0
 8009664:	eaffff55 	b	0x80093c0
 8009668:	e58d0054 	str	r0, [sp, #84]	@ 0x54
 800966c:	e3a06004 	mov	r6, #4
 8009670:	eafffdf2 	b	0x8008e40
 8009674:	e59d007c 	ldr	r0, [sp, #124]	@ 0x7c
 8009678:	e59d3034 	ldr	r3, [sp, #52]	@ 0x34
 800967c:	e3a01002 	mov	r1, #2
 8009680:	e3500001 	cmp	r0, #1
 8009684:	1a0000b2 	bne	0x8009954
 8009688:	e59d005c 	ldr	r0, [sp, #92]	@ 0x5c
 800968c:	e59d2078 	ldr	r2, [sp, #120]	@ 0x78
 8009690:	e59d603c 	ldr	r6, [sp, #60]	@ 0x3c
 8009694:	e1a04001 	mov	r4, r1
 8009698:	e3a08001 	mov	r8, #1
 800969c:	e0020000 	and	r0, r2, r0
 80096a0:	e59d2060 	ldr	r2, [sp, #96]	@ 0x60
 80096a4:	e58d0078 	str	r0, [sp, #120]	@ 0x78
 80096a8:	e59d0058 	ldr	r0, [sp, #88]	@ 0x58
 80096ac:	e0005002 	and	r5, r0, r2
 80096b0:	e3a02000 	mov	r2, #0
 80096b4:	e3540011 	cmp	r4, #17
 80096b8:	0a000576 	beq	0x800ac98
 80096bc:	e59d1074 	ldr	r1, [sp, #116]	@ 0x74
 80096c0:	e3a0300a 	mov	r3, #10
 80096c4:	e1a07002 	mov	r7, r2
 80096c8:	e0866106 	add	r6, r6, r6, lsl #2
 80096cc:	e1a0a008 	mov	sl, r8
 80096d0:	e3a0900a 	mov	r9, #10
 80096d4:	e3a0000a 	mov	r0, #10
 80096d8:	e08c2391 	umull	r2, ip, r1, r3
 80096dc:	e59d1070 	ldr	r1, [sp, #112]	@ 0x70
 80096e0:	e08c6086 	add	r6, ip, r6, lsl #1
 80096e4:	e58d207c 	str	r2, [sp, #124]	@ 0x7c
 80096e8:	e1a0c004 	mov	ip, r4
 80096ec:	e1a03132 	lsr	r3, r2, r1
 80096f0:	e59d1064 	ldr	r1, [sp, #100]	@ 0x64
 80096f4:	e1832116 	orr	r2, r3, r6, lsl r1
 80096f8:	e59d1068 	ldr	r1, [sp, #104]	@ 0x68
 80096fc:	e0873107 	add	r3, r7, r7, lsl #2
 8009700:	e3510000 	cmp	r1, #0
 8009704:	51a02136 	lsrpl	r2, r6, r1
 8009708:	e28d1083 	add	r1, sp, #131	@ 0x83
 800970c:	e282e030 	add	lr, r2, #48	@ 0x30
 8009710:	e082899a 	umull	r8, r2, sl, r9
 8009714:	e7c1e004 	strb	lr, [r1, r4]
 8009718:	e0819095 	umull	r9, r1, r5, r0
 800971c:	e59d0078 	ldr	r0, [sp, #120]	@ 0x78
 8009720:	e59d407c 	ldr	r4, [sp, #124]	@ 0x7c
 8009724:	e0822083 	add	r2, r2, r3, lsl #1
 8009728:	e1a05009 	mov	r5, r9
 800972c:	e0800100 	add	r0, r0, r0, lsl #2
 8009730:	e0810080 	add	r0, r1, r0, lsl #1
 8009734:	e59d105c 	ldr	r1, [sp, #92]	@ 0x5c
 8009738:	e58d0078 	str	r0, [sp, #120]	@ 0x78
 800973c:	e0066001 	and	r6, r6, r1
 8009740:	e59d1060 	ldr	r1, [sp, #96]	@ 0x60
 8009744:	e0041001 	and	r1, r4, r1
 8009748:	e28c4001 	add	r4, ip, #1
 800974c:	e58d1074 	str	r1, [sp, #116]	@ 0x74
 8009750:	e0511009 	subs	r1, r1, r9
 8009754:	e0d61000 	sbcs	r1, r6, r0
 8009758:	2affffd5 	bcs	0x80096b4
 800975c:	e58d407c 	str	r4, [sp, #124]	@ 0x7c
 8009760:	e59d1044 	ldr	r1, [sp, #68]	@ 0x44
 8009764:	e59d402c 	ldr	r4, [sp, #44]	@ 0x2c
 8009768:	e59d5030 	ldr	r5, [sp, #48]	@ 0x30
 800976c:	e58de034 	str	lr, [sp, #52]	@ 0x34
 8009770:	e1a0e003 	mov	lr, r3
 8009774:	e58da058 	str	sl, [sp, #88]	@ 0x58
 8009778:	e1a03006 	mov	r3, r6
 800977c:	e58d705c 	str	r7, [sp, #92]	@ 0x5c
 8009780:	e58dc068 	str	ip, [sp, #104]	@ 0x68
 8009784:	e58d9070 	str	r9, [sp, #112]	@ 0x70
 8009788:	e58de03c 	str	lr, [sp, #60]	@ 0x3c
 800978c:	e0511004 	subs	r1, r1, r4
 8009790:	e59d4040 	ldr	r4, [sp, #64]	@ 0x40
 8009794:	e0c4a005 	sbc	sl, r4, r5
 8009798:	e0865198 	umull	r5, r6, r8, r1
 800979c:	e0246a98 	mla	r4, r8, sl, r6
 80097a0:	e0557008 	subs	r7, r5, r8
 80097a4:	e3a0a000 	mov	sl, #0
 80097a8:	e0264192 	mla	r6, r2, r1, r4
 80097ac:	e59d4074 	ldr	r4, [sp, #116]	@ 0x74
 80097b0:	e0c60002 	sbc	r0, r6, r2
 80097b4:	e095c008 	adds	ip, r5, r8
 80097b8:	e59d5050 	ldr	r5, [sp, #80]	@ 0x50
 80097bc:	e0a61002 	adc	r1, r6, r2
 80097c0:	e59d2078 	ldr	r2, [sp, #120]	@ 0x78
 80097c4:	e59d6008 	ldr	r6, [sp, #8]
 80097c8:	e58dc064 	str	ip, [sp, #100]	@ 0x64
 80097cc:	e58d1060 	str	r1, [sp, #96]	@ 0x60
 80097d0:	e0591004 	subs	r1, r9, r4
 80097d4:	e0c22003 	sbc	r2, r2, r3
 80097d8:	e0511006 	subs	r1, r1, r6
 80097dc:	e0d21005 	sbcs	r1, r2, r5
 80097e0:	33a0a001 	movcc	sl, #1
 80097e4:	e35a0000 	cmp	sl, #0
 80097e8:	1a00007c 	bne	0x80099e0
 80097ec:	e0541007 	subs	r1, r4, r7
 80097f0:	e1a02003 	mov	r2, r3
 80097f4:	e0d31000 	sbcs	r1, r3, r0
 80097f8:	2a000075 	bcs	0x80099d4
 80097fc:	e59d1074 	ldr	r1, [sp, #116]	@ 0x74
 8009800:	e59d3034 	ldr	r3, [sp, #52]	@ 0x34
 8009804:	e1a09000 	mov	r9, r0
 8009808:	e1a08007 	mov	r8, r7
 800980c:	e1a00007 	mov	r0, r7
 8009810:	e091c006 	adds	ip, r1, r6
 8009814:	e1a04001 	mov	r4, r1
 8009818:	e1a0e009 	mov	lr, r9
 800981c:	e0a27005 	adc	r7, r2, r5
 8009820:	e05c1000 	subs	r1, ip, r0
 8009824:	e0d71009 	sbcs	r1, r7, r9
 8009828:	3a000008 	bcc	0x8009850
 800982c:	e05ca000 	subs	sl, ip, r0
 8009830:	e0c7100e 	sbc	r1, r7, lr
 8009834:	e0505004 	subs	r5, r0, r4
 8009838:	e58d1074 	str	r1, [sp, #116]	@ 0x74
 800983c:	e0ce1002 	sbc	r1, lr, r2
 8009840:	e055500a 	subs	r5, r5, sl
 8009844:	e59d0074 	ldr	r0, [sp, #116]	@ 0x74
 8009848:	e0d11000 	sbcs	r1, r1, r0
 800984c:	3a000066 	bcc	0x80099ec
 8009850:	e59d1068 	ldr	r1, [sp, #104]	@ 0x68
 8009854:	e2433001 	sub	r3, r3, #1
 8009858:	e28d0083 	add	r0, sp, #131	@ 0x83
 800985c:	e1a04006 	mov	r4, r6
 8009860:	e3a0a000 	mov	sl, #0
 8009864:	e7c03001 	strb	r3, [r0, r1]
 8009868:	e59d1070 	ldr	r1, [sp, #112]	@ 0x70
 800986c:	e051200c 	subs	r2, r1, ip
 8009870:	e59d1078 	ldr	r1, [sp, #120]	@ 0x78
 8009874:	e0c15007 	sbc	r5, r1, r7
 8009878:	e0521006 	subs	r1, r2, r6
 800987c:	e59d6050 	ldr	r6, [sp, #80]	@ 0x50
 8009880:	e0d51006 	sbcs	r1, r5, r6
 8009884:	33a0a001 	movcc	sl, #1
 8009888:	e05c1008 	subs	r1, ip, r8
 800988c:	e0d7100e 	sbcs	r1, r7, lr
 8009890:	2a00005a 	bcs	0x8009a00
 8009894:	e0521004 	subs	r1, r2, r4
 8009898:	e1a00008 	mov	r0, r8
 800989c:	e1a02007 	mov	r2, r7
 80098a0:	e0d51006 	sbcs	r1, r5, r6
 80098a4:	e1a05006 	mov	r5, r6
 80098a8:	e1a06004 	mov	r6, r4
 80098ac:	e1a0100c 	mov	r1, ip
 80098b0:	2affffd6 	bcs	0x8009810
 80098b4:	ea000053 	b	0x8009a08
 80098b8:	e59f0ff4 	ldr	r0, [pc, #4084]	@ 0x800a8b4
 80098bc:	e3a08009 	mov	r8, #9
 80098c0:	e1570000 	cmp	r7, r0
 80098c4:	33a08008 	movcc	r8, #8
 80098c8:	21a01000 	movcs	r1, r0
 80098cc:	eafffebb 	b	0x80093c0
 80098d0:	e3a03000 	mov	r3, #0
 80098d4:	e1a0000a 	mov	r0, sl
 80098d8:	e1a02007 	mov	r2, r7
 80098dc:	e59d4074 	ldr	r4, [sp, #116]	@ 0x74
 80098e0:	e59d505c 	ldr	r5, [sp, #92]	@ 0x5c
 80098e4:	e0501004 	subs	r1, r0, r4
 80098e8:	e0d21005 	sbcs	r1, r2, r5
 80098ec:	2a00000d 	bcs	0x8009928
 80098f0:	e3530000 	cmp	r3, #0
 80098f4:	1a00000b 	bne	0x8009928
 80098f8:	e090100c 	adds	r1, r0, ip
 80098fc:	e0a2300e 	adc	r3, r2, lr
 8009900:	e0517004 	subs	r7, r1, r4
 8009904:	e0d37005 	sbcs	r7, r3, r5
 8009908:	3a000067 	bcc	0x8009aac
 800990c:	e0511004 	subs	r1, r1, r4
 8009910:	e0c33005 	sbc	r3, r3, r5
 8009914:	e0547000 	subs	r7, r4, r0
 8009918:	e0c56002 	sbc	r6, r5, r2
 800991c:	e0571001 	subs	r1, r7, r1
 8009920:	e0d61003 	sbcs	r1, r6, r3
 8009924:	2a000060 	bcs	0x8009aac
 8009928:	e59d1010 	ldr	r1, [sp, #16]
 800992c:	e59d300c 	ldr	r3, [sp, #12]
 8009930:	e2511003 	subs	r1, r1, #3
 8009934:	e2c33000 	sbc	r3, r3, #0
 8009938:	e2507002 	subs	r7, r0, #2
 800993c:	e2d27000 	sbcs	r7, r2, #0
 8009940:	3a000059 	bcc	0x8009aac
 8009944:	e0510000 	subs	r0, r1, r0
 8009948:	e0d30002 	sbcs	r0, r3, r2
 800994c:	2a000353 	bcs	0x800a6a0
 8009950:	ea000055 	b	0x8009aac
 8009954:	e3530064 	cmp	r3, #100	@ 0x64
 8009958:	3a0004dc 	bcc	0x800acd0
 800995c:	e59f0f74 	ldr	r0, [pc, #3956]	@ 0x800a8d8
 8009960:	e0841093 	umull	r1, r4, r3, r0
 8009964:	e1a00005 	mov	r0, r5
 8009968:	e1a01004 	mov	r1, r4
 800996c:	eb001dc2 	bl	0x801107c
 8009970:	e0010490 	mul	r1, r0, r4
 8009974:	e2808030 	add	r8, r0, #48	@ 0x30
 8009978:	e59d0064 	ldr	r0, [sp, #100]	@ 0x64
 800997c:	e59d2074 	ldr	r2, [sp, #116]	@ 0x74
 8009980:	e0455001 	sub	r5, r5, r1
 8009984:	e59d1068 	ldr	r1, [sp, #104]	@ 0x68
 8009988:	e5cd8085 	strb	r8, [sp, #133]	@ 0x85
 800998c:	e1a00035 	lsr	r0, r5, r0
 8009990:	e3510000 	cmp	r1, #0
 8009994:	51a00115 	lslpl	r0, r5, r1
 8009998:	e59d1070 	ldr	r1, [sp, #112]	@ 0x70
 800999c:	e1a01115 	lsl	r1, r5, r1
 80099a0:	53a01000 	movpl	r1, #0
 80099a4:	e091a002 	adds	sl, r1, r2
 80099a8:	e59d103c 	ldr	r1, [sp, #60]	@ 0x3c
 80099ac:	e0a07001 	adc	r7, r0, r1
 80099b0:	e59d0058 	ldr	r0, [sp, #88]	@ 0x58
 80099b4:	e05a0000 	subs	r0, sl, r0
 80099b8:	e59d0078 	ldr	r0, [sp, #120]	@ 0x78
 80099bc:	e0d70000 	sbcs	r0, r7, r0
 80099c0:	2a00035e 	bcs	0x800a740
 80099c4:	e2890002 	add	r0, r9, #2
 80099c8:	e58d0060 	str	r0, [sp, #96]	@ 0x60
 80099cc:	e3a00003 	mov	r0, #3
 80099d0:	eafffed4 	b	0x8009528
 80099d4:	e59dc074 	ldr	ip, [sp, #116]	@ 0x74
 80099d8:	e1a07002 	mov	r7, r2
 80099dc:	ea000009 	b	0x8009a08
 80099e0:	e1a0c004 	mov	ip, r4
 80099e4:	e1a07003 	mov	r7, r3
 80099e8:	ea000006 	b	0x8009a08
 80099ec:	e59d5050 	ldr	r5, [sp, #80]	@ 0x50
 80099f0:	e3a0a000 	mov	sl, #0
 80099f4:	e1a0c004 	mov	ip, r4
 80099f8:	e1a07002 	mov	r7, r2
 80099fc:	ea000001 	b	0x8009a08
 8009a00:	e1a05006 	mov	r5, r6
 8009a04:	e1a06004 	mov	r6, r4
 8009a08:	e59d0064 	ldr	r0, [sp, #100]	@ 0x64
 8009a0c:	e59d3060 	ldr	r3, [sp, #96]	@ 0x60
 8009a10:	e1a08007 	mov	r8, r7
 8009a14:	e05c1000 	subs	r1, ip, r0
 8009a18:	e0d71003 	sbcs	r1, r7, r3
 8009a1c:	2a00000d 	bcs	0x8009a58
 8009a20:	e35a0000 	cmp	sl, #0
 8009a24:	1a00000b 	bne	0x8009a58
 8009a28:	e09c2006 	adds	r2, ip, r6
 8009a2c:	e0a87005 	adc	r7, r8, r5
 8009a30:	e0521000 	subs	r1, r2, r0
 8009a34:	e0d71003 	sbcs	r1, r7, r3
 8009a38:	3a00001b 	bcc	0x8009aac
 8009a3c:	e0521000 	subs	r1, r2, r0
 8009a40:	e0c72003 	sbc	r2, r7, r3
 8009a44:	e050700c 	subs	r7, r0, ip
 8009a48:	e0c35008 	sbc	r5, r3, r8
 8009a4c:	e0571001 	subs	r1, r7, r1
 8009a50:	e0d51002 	sbcs	r1, r5, r2
 8009a54:	2a000014 	bcs	0x8009aac
 8009a58:	e59d4058 	ldr	r4, [sp, #88]	@ 0x58
 8009a5c:	e59d005c 	ldr	r0, [sp, #92]	@ 0x5c
 8009a60:	e3e03027 	mvn	r3, #39	@ 0x27
 8009a64:	e3e05000 	mvn	r5, #0
 8009a68:	e0821394 	umull	r1, r2, r4, r3
 8009a6c:	e0272594 	mla	r7, r4, r5, r2
 8009a70:	e0257390 	mla	r5, r0, r3, r7
 8009a74:	e59d0070 	ldr	r0, [sp, #112]	@ 0x70
 8009a78:	e0912000 	adds	r2, r1, r0
 8009a7c:	e59d0078 	ldr	r0, [sp, #120]	@ 0x78
 8009a80:	e3a01014 	mov	r1, #20
 8009a84:	e0a50000 	adc	r0, r5, r0
 8009a88:	e0857194 	umull	r7, r5, r4, r1
 8009a8c:	e59d103c 	ldr	r1, [sp, #60]	@ 0x3c
 8009a90:	e05c3007 	subs	r3, ip, r7
 8009a94:	e0851101 	add	r1, r5, r1, lsl #2
 8009a98:	e0d81001 	sbcs	r1, r8, r1
 8009a9c:	3a000002 	bcc	0x8009aac
 8009aa0:	e052100c 	subs	r1, r2, ip
 8009aa4:	e0d00008 	sbcs	r0, r0, r8
 8009aa8:	2a0002fc 	bcs	0x800a6a0
 8009aac:	e3a00000 	mov	r0, #0
 8009ab0:	e28d1094 	add	r1, sp, #148	@ 0x94
 8009ab4:	e3a06001 	mov	r6, #1
 8009ab8:	e28d4d0a 	add	r4, sp, #640	@ 0x280
 8009abc:	e58d0098 	str	r0, [sp, #152]	@ 0x98
 8009ac0:	e59d0048 	ldr	r0, [sp, #72]	@ 0x48
 8009ac4:	e58d6134 	str	r6, [sp, #308]	@ 0x134
 8009ac8:	e58d0094 	str	r0, [sp, #148]	@ 0x94
 8009acc:	e2810008 	add	r0, r1, #8
 8009ad0:	e3a01098 	mov	r1, #152	@ 0x98
 8009ad4:	eb00201b 	bl	0x8011b48
 8009ad8:	e28daf4e 	add	sl, sp, #312	@ 0x138
 8009adc:	e3a0109c 	mov	r1, #156	@ 0x9c
 8009ae0:	e58d6138 	str	r6, [sp, #312]	@ 0x138
 8009ae4:	e58d61d8 	str	r6, [sp, #472]	@ 0x1d8
 8009ae8:	e28a0004 	add	r0, sl, #4
 8009aec:	eb002015 	bl	0x8011b48
 8009af0:	e59d0020 	ldr	r0, [sp, #32]
 8009af4:	e28d5f77 	add	r5, sp, #476	@ 0x1dc
 8009af8:	e3a0109c 	mov	r1, #156	@ 0x9c
 8009afc:	e58d01dc 	str	r0, [sp, #476]	@ 0x1dc
 8009b00:	e59d001c 	ldr	r0, [sp, #28]
 8009b04:	e58d027c 	str	r0, [sp, #636]	@ 0x27c
 8009b08:	e2850004 	add	r0, r5, #4
 8009b0c:	eb00200d 	bl	0x8011b48
 8009b10:	e2840004 	add	r0, r4, #4
 8009b14:	e3a0109c 	mov	r1, #156	@ 0x9c
 8009b18:	eb00200a 	bl	0x8011b48
 8009b1c:	e59d0018 	ldr	r0, [sp, #24]
 8009b20:	e59f1f70 	ldr	r1, [pc, #3952]	@ 0x800aa98
 8009b24:	e58d6280 	str	r6, [sp, #640]	@ 0x280
 8009b28:	e58d6320 	str	r6, [sp, #800]	@ 0x320
 8009b2c:	e3a08020 	mov	r8, #32
 8009b30:	e2500001 	subs	r0, r0, #1
 8009b34:	e18000a0 	orr	r0, r0, r0, lsr #1
 8009b38:	e1800120 	orr	r0, r0, r0, lsr #2
 8009b3c:	e1800220 	orr	r0, r0, r0, lsr #4
 8009b40:	e1800420 	orr	r0, r0, r0, lsr #8
 8009b44:	e1800820 	orr	r0, r0, r0, lsr #16
 8009b48:	e1e00000 	mvn	r0, r0
 8009b4c:	e00110a0 	and	r1, r1, r0, lsr #1
 8009b50:	e0400001 	sub	r0, r0, r1
 8009b54:	e59f1ff4 	ldr	r1, [pc, #4084]	@ 0x800ab50
 8009b58:	e0012120 	and	r2, r1, r0, lsr #2
 8009b5c:	e0000001 	and	r0, r0, r1
 8009b60:	e59f1fec 	ldr	r1, [pc, #4076]	@ 0x800ab54
 8009b64:	e0800002 	add	r0, r0, r2
 8009b68:	e0800220 	add	r0, r0, r0, lsr #4
 8009b6c:	e0000001 	and	r0, r0, r1
 8009b70:	e59f1fe0 	ldr	r1, [pc, #4064]	@ 0x800ab58
 8009b74:	e0070190 	mul	r7, r0, r1
 8009b78:	e59d0014 	ldr	r0, [sp, #20]
 8009b7c:	e2c06000 	sbc	r6, r0, #0
 8009b80:	e1a00006 	mov	r0, r6
 8009b84:	eb001d3a 	bl	0x8011074
 8009b88:	e3560000 	cmp	r6, #0
 8009b8c:	e59d6038 	ldr	r6, [sp, #56]	@ 0x38
 8009b90:	e59f2fc4 	ldr	r2, [pc, #4036]	@ 0x800ab5c
 8009b94:	e59f3fc4 	ldr	r3, [pc, #4036]	@ 0x800ab60
 8009b98:	00880c27 	addeq	r0, r8, r7, lsr #24
 8009b9c:	e3a07013 	mov	r7, #19
 8009ba0:	e3a080ff 	mov	r8, #255	@ 0xff
 8009ba4:	e3888cff 	orr	r8, r8, #65280	@ 0xff00
 8009ba8:	e1a01806 	lsl	r1, r6, #16
 8009bac:	e0600841 	rsb	r0, r0, r1, asr #16
 8009bb0:	e0e72390 	smlal	r2, r7, r0, r3
 8009bb4:	e1a00807 	lsl	r0, r7, #16
 8009bb8:	e1a09840 	asr	r9, r0, #16
 8009bbc:	e1b00841 	asrs	r0, r1, #16
 8009bc0:	4a000010 	bmi	0x8009c08
 8009bc4:	e0066008 	and	r6, r6, r8
 8009bc8:	e28d0094 	add	r0, sp, #148	@ 0x94
 8009bcc:	e1a01006 	mov	r1, r6
 8009bd0:	ebffeff0 	bl	0x8005b98
 8009bd4:	e28d0f4e 	add	r0, sp, #312	@ 0x138
 8009bd8:	e1a01006 	mov	r1, r6
 8009bdc:	ebffefed 	bl	0x8005b98
 8009be0:	e28d0f77 	add	r0, sp, #476	@ 0x1dc
 8009be4:	e1a01006 	mov	r1, r6
 8009be8:	ebffefea 	bl	0x8005b98
 8009bec:	e3790001 	cmn	r9, #1
 8009bf0:	da00000b 	ble	0x8009c24
 8009bf4:	e3a000ff 	mov	r0, #255	@ 0xff
 8009bf8:	e3800c7f 	orr	r0, r0, #32512	@ 0x7f00
 8009bfc:	e0071000 	and	r1, r7, r0
 8009c00:	e28d0d0a 	add	r0, sp, #640	@ 0x280
 8009c04:	ea000010 	b	0x8009c4c
 8009c08:	e2660000 	rsb	r0, r6, #0
 8009c0c:	e1a00800 	lsl	r0, r0, #16
 8009c10:	e1a01840 	asr	r1, r0, #16
 8009c14:	e28d0d0a 	add	r0, sp, #640	@ 0x280
 8009c18:	ebffefde 	bl	0x8005b98
 8009c1c:	e3790001 	cmn	r9, #1
 8009c20:	cafffff3 	bgt	0x8009bf4
 8009c24:	e2690000 	rsb	r0, r9, #0
 8009c28:	e0006008 	and	r6, r0, r8
 8009c2c:	e28d0094 	add	r0, sp, #148	@ 0x94
 8009c30:	e1a01006 	mov	r1, r6
 8009c34:	eb0004f8 	bl	0x800b01c
 8009c38:	e28d0f4e 	add	r0, sp, #312	@ 0x138
 8009c3c:	e1a01006 	mov	r1, r6
 8009c40:	eb0004f5 	bl	0x800b01c
 8009c44:	e28d0f77 	add	r0, sp, #476	@ 0x1dc
 8009c48:	e1a01006 	mov	r1, r6
 8009c4c:	eb0004f2 	bl	0x800b01c
 8009c50:	e59d8134 	ldr	r8, [sp, #308]	@ 0x134
 8009c54:	e24b70c4 	sub	r7, fp, #196	@ 0xc4
 8009c58:	e28d6094 	add	r6, sp, #148	@ 0x94
 8009c5c:	e3a020a0 	mov	r2, #160	@ 0xa0
 8009c60:	e1a00007 	mov	r0, r7
 8009c64:	e1a01006 	mov	r1, r6
 8009c68:	eb001fbc 	bl	0x8011b60
 8009c6c:	e59d027c 	ldr	r0, [sp, #636]	@ 0x27c
 8009c70:	e50b8024 	str	r8, [fp, #-36]	@ 0xffffffdc
 8009c74:	e1580000 	cmp	r8, r0
 8009c78:	e1a0c000 	mov	ip, r0
 8009c7c:	81a0c008 	movhi	ip, r8
 8009c80:	e35c0029 	cmp	ip, #41	@ 0x29
 8009c84:	2a0002d6 	bcs	0x800a7e4
 8009c88:	e35c0000 	cmp	ip, #0
 8009c8c:	e58d904c 	str	r9, [sp, #76]	@ 0x4c
 8009c90:	0a000016 	beq	0x8009cf0
 8009c94:	e3a0e000 	mov	lr, #0
 8009c98:	e1a0300c 	mov	r3, ip
 8009c9c:	e3a01000 	mov	r1, #0
 8009ca0:	e4954004 	ldr	r4, [r5], #4
 8009ca4:	e5972000 	ldr	r2, [r7]
 8009ca8:	e2011001 	and	r1, r1, #1
 8009cac:	e2511001 	subs	r1, r1, #1
 8009cb0:	e0b21004 	adcs	r1, r2, r4
 8009cb4:	e4871004 	str	r1, [r7], #4
 8009cb8:	e2ae1000 	adc	r1, lr, #0
 8009cbc:	e2533001 	subs	r3, r3, #1
 8009cc0:	1afffff6 	bne	0x8009ca0
 8009cc4:	e59d506c 	ldr	r5, [sp, #108]	@ 0x6c
 8009cc8:	e3510000 	cmp	r1, #0
 8009ccc:	e28ded0a 	add	lr, sp, #640	@ 0x280
 8009cd0:	0a000008 	beq	0x8009cf8
 8009cd4:	e35c0028 	cmp	ip, #40	@ 0x28
 8009cd8:	0a0003c9 	beq	0x800ac04
 8009cdc:	e24b10c4 	sub	r1, fp, #196	@ 0xc4
 8009ce0:	e3a02001 	mov	r2, #1
 8009ce4:	e781210c 	str	r2, [r1, ip, lsl #2]
 8009ce8:	e28cc001 	add	ip, ip, #1
 8009cec:	ea000001 	b	0x8009cf8
 8009cf0:	e59d506c 	ldr	r5, [sp, #108]	@ 0x6c
 8009cf4:	e28ded0a 	add	lr, sp, #640	@ 0x280
 8009cf8:	e59d9320 	ldr	r9, [sp, #800]	@ 0x320
 8009cfc:	e50bc024 	str	ip, [fp, #-36]	@ 0xffffffdc
 8009d00:	e159000c 	cmp	r9, ip
 8009d04:	81a0c009 	movhi	ip, r9
 8009d08:	e35c0029 	cmp	ip, #41	@ 0x29
 8009d0c:	2a0002b4 	bcs	0x800a7e4
 8009d10:	e28d1094 	add	r1, sp, #148	@ 0x94
 8009d14:	e24e4004 	sub	r4, lr, #4
 8009d18:	e2411004 	sub	r1, r1, #4
 8009d1c:	e58d105c 	str	r1, [sp, #92]	@ 0x5c
 8009d20:	e1a0110c 	lsl	r1, ip, #2
 8009d24:	e24b20c4 	sub	r2, fp, #196	@ 0xc4
 8009d28:	e3510000 	cmp	r1, #0
 8009d2c:	e0822001 	add	r2, r2, r1
 8009d30:	0a000009 	beq	0x8009d5c
 8009d34:	e7943001 	ldr	r3, [r4, r1]
 8009d38:	e5127004 	ldr	r7, [r2, #-4]
 8009d3c:	e2411004 	sub	r1, r1, #4
 8009d40:	e0572003 	subs	r2, r7, r3
 8009d44:	13a02001 	movne	r2, #1
 8009d48:	e1570003 	cmp	r7, r3
 8009d4c:	83e02000 	mvnhi	r2, #0
 8009d50:	e3520000 	cmp	r2, #0
 8009d54:	0afffff2 	beq	0x8009d24
 8009d58:	ea000002 	b	0x8009d68
 8009d5c:	e24b10c4 	sub	r1, fp, #196	@ 0xc4
 8009d60:	e0522001 	subs	r2, r2, r1
 8009d64:	13e02000 	mvnne	r2, #0
 8009d68:	e1a01c02 	lsl	r1, r2, #24
 8009d6c:	e58d4058 	str	r4, [sp, #88]	@ 0x58
 8009d70:	e1a01c41 	asr	r1, r1, #24
 8009d74:	e1510005 	cmp	r1, r5
 8009d78:	aa000003 	bge	0x8009d8c
 8009d7c:	e59d004c 	ldr	r0, [sp, #76]	@ 0x4c
 8009d80:	e2800001 	add	r0, r0, #1
 8009d84:	e58d004c 	str	r0, [sp, #76]	@ 0x4c
 8009d88:	ea00004e 	b	0x8009ec8
 8009d8c:	e3580029 	cmp	r8, #41	@ 0x29
 8009d90:	2a00033c 	bcs	0x800aa88
 8009d94:	e3580000 	cmp	r8, #0
 8009d98:	0a000012 	beq	0x8009de8
 8009d9c:	e1a01108 	lsl	r1, r8, #2
 8009da0:	e3a03000 	mov	r3, #0
 8009da4:	e3a0200a 	mov	r2, #10
 8009da8:	e5965000 	ldr	r5, [r6]
 8009dac:	e3a07000 	mov	r7, #0
 8009db0:	e2511004 	subs	r1, r1, #4
 8009db4:	e0a73295 	umlal	r3, r7, r5, r2
 8009db8:	e4863004 	str	r3, [r6], #4
 8009dbc:	e1a03007 	mov	r3, r7
 8009dc0:	1afffff8 	bne	0x8009da8
 8009dc4:	e3570000 	cmp	r7, #0
 8009dc8:	0a000007 	beq	0x8009dec
 8009dcc:	e3580028 	cmp	r8, #40	@ 0x28
 8009dd0:	0a00038b 	beq	0x800ac04
 8009dd4:	e28d1094 	add	r1, sp, #148	@ 0x94
 8009dd8:	e7817108 	str	r7, [r1, r8, lsl #2]
 8009ddc:	e2888001 	add	r8, r8, #1
 8009de0:	ea000001 	b	0x8009dec
 8009de4:	007fffff 	ldrshteq	pc, [pc], #-255	@ <UNPREDICTABLE>
 8009de8:	e3a08000 	mov	r8, #0
 8009dec:	e59d11d8 	ldr	r1, [sp, #472]	@ 0x1d8
 8009df0:	e58d8134 	str	r8, [sp, #308]	@ 0x134
 8009df4:	e3510029 	cmp	r1, #41	@ 0x29
 8009df8:	2a00031e 	bcs	0x800aa78
 8009dfc:	e3510000 	cmp	r1, #0
 8009e00:	0a000014 	beq	0x8009e58
 8009e04:	e1a02101 	lsl	r2, r1, #2
 8009e08:	e3a07000 	mov	r7, #0
 8009e0c:	e3a0300a 	mov	r3, #10
 8009e10:	e59a5000 	ldr	r5, [sl]
 8009e14:	e3a06000 	mov	r6, #0
 8009e18:	e2522004 	subs	r2, r2, #4
 8009e1c:	e0a67395 	umlal	r7, r6, r5, r3
 8009e20:	e48a7004 	str	r7, [sl], #4
 8009e24:	e1a07006 	mov	r7, r6
 8009e28:	1afffff8 	bne	0x8009e10
 8009e2c:	e3560000 	cmp	r6, #0
 8009e30:	0a000009 	beq	0x8009e5c
 8009e34:	e3510028 	cmp	r1, #40	@ 0x28
 8009e38:	0a000371 	beq	0x800ac04
 8009e3c:	e28d2f4e 	add	r2, sp, #312	@ 0x138
 8009e40:	e7826101 	str	r6, [r2, r1, lsl #2]
 8009e44:	e2811001 	add	r1, r1, #1
 8009e48:	ea000003 	b	0x8009e5c
 8009e4c:	082fde9f 	stmdaeq	pc!, {r0, r1, r2, r3, r4, r7, r9, sl, fp, ip, lr, pc}	@ <UNPREDICTABLE>
 8009e50:	082fdea0 	stmdaeq	pc!, {r5, r7, r9, sl, fp, ip, lr, pc}	@ <UNPREDICTABLE>
 8009e54:	082fdea7 	stmdaeq	pc!, {r0, r1, r2, r5, r7, r9, sl, fp, ip, lr, pc}	@ <UNPREDICTABLE>
 8009e58:	e3a01000 	mov	r1, #0
 8009e5c:	e3500029 	cmp	r0, #41	@ 0x29
 8009e60:	e58d11d8 	str	r1, [sp, #472]	@ 0x1d8
 8009e64:	2a00025b 	bcs	0x800a7d8
 8009e68:	e3500000 	cmp	r0, #0
 8009e6c:	0a000013 	beq	0x8009ec0
 8009e70:	e1a01100 	lsl	r1, r0, #2
 8009e74:	e28d2f77 	add	r2, sp, #476	@ 0x1dc
 8009e78:	e3a07000 	mov	r7, #0
 8009e7c:	e3a0300a 	mov	r3, #10
 8009e80:	e5925000 	ldr	r5, [r2]
 8009e84:	e3a06000 	mov	r6, #0
 8009e88:	e2511004 	subs	r1, r1, #4
 8009e8c:	e0a67395 	umlal	r7, r6, r5, r3
 8009e90:	e4827004 	str	r7, [r2], #4
 8009e94:	e1a07006 	mov	r7, r6
 8009e98:	1afffff8 	bne	0x8009e80
 8009e9c:	e3560000 	cmp	r6, #0
 8009ea0:	0a000007 	beq	0x8009ec4
 8009ea4:	e3500028 	cmp	r0, #40	@ 0x28
 8009ea8:	0a000355 	beq	0x800ac04
 8009eac:	e28d1f77 	add	r1, sp, #476	@ 0x1dc
 8009eb0:	e7816100 	str	r6, [r1, r0, lsl #2]
 8009eb4:	e2800001 	add	r0, r0, #1
 8009eb8:	ea000001 	b	0x8009ec4
 8009ebc:	082fdea4 	stmdaeq	pc!, {r2, r5, r7, r9, sl, fp, ip, lr, pc}	@ <UNPREDICTABLE>
 8009ec0:	e3a00000 	mov	r0, #0
 8009ec4:	e58d027c 	str	r0, [sp, #636]	@ 0x27c
 8009ec8:	e24b4fad 	sub	r4, fp, #692	@ 0x2b4
 8009ecc:	e1a0100e 	mov	r1, lr
 8009ed0:	e3a020a0 	mov	r2, #160	@ 0xa0
 8009ed4:	e1a0500e 	mov	r5, lr
 8009ed8:	e1a00004 	mov	r0, r4
 8009edc:	eb001f1f 	bl	0x8011b60
 8009ee0:	e1a00004 	mov	r0, r4
 8009ee4:	e3a01001 	mov	r1, #1
 8009ee8:	e50b9214 	str	r9, [fp, #-532]	@ 0xfffffdec
 8009eec:	ebffef29 	bl	0x8005b98
 8009ef0:	e59d4320 	ldr	r4, [sp, #800]	@ 0x320
 8009ef4:	e24b6e21 	sub	r6, fp, #528	@ 0x210
 8009ef8:	e1a01005 	mov	r1, r5
 8009efc:	e3a020a0 	mov	r2, #160	@ 0xa0
 8009f00:	e1a00006 	mov	r0, r6
 8009f04:	eb001f15 	bl	0x8011b60
 8009f08:	e1a00006 	mov	r0, r6
 8009f0c:	e3a01002 	mov	r1, #2
 8009f10:	e50b4170 	str	r4, [fp, #-368]	@ 0xfffffe90
 8009f14:	ebffef1f 	bl	0x8005b98
 8009f18:	e59d4320 	ldr	r4, [sp, #800]	@ 0x320
 8009f1c:	e24b6f5a 	sub	r6, fp, #360	@ 0x168
 8009f20:	e1a01005 	mov	r1, r5
 8009f24:	e3a020a0 	mov	r2, #160	@ 0xa0
 8009f28:	e1a00006 	mov	r0, r6
 8009f2c:	eb001f0b 	bl	0x8011b60
 8009f30:	e1a00006 	mov	r0, r6
 8009f34:	e3a01003 	mov	r1, #3
 8009f38:	e50b40c8 	str	r4, [fp, #-200]	@ 0xffffff38
 8009f3c:	ebffef15 	bl	0x8005b98
 8009f40:	e28d0094 	add	r0, sp, #148	@ 0x94
 8009f44:	e59d9134 	ldr	r9, [sp, #308]	@ 0x134
 8009f48:	e3a0a000 	mov	sl, #0
 8009f4c:	e3a01000 	mov	r1, #0
 8009f50:	e24b40c4 	sub	r4, fp, #196	@ 0xc4
 8009f54:	e2408004 	sub	r8, r0, #4
 8009f58:	e59d0320 	ldr	r0, [sp, #800]	@ 0x320
 8009f5c:	e58d0074 	str	r0, [sp, #116]	@ 0x74
 8009f60:	e51b0214 	ldr	r0, [fp, #-532]	@ 0xfffffdec
 8009f64:	e58d0060 	str	r0, [sp, #96]	@ 0x60
 8009f68:	e51b0170 	ldr	r0, [fp, #-368]	@ 0xfffffe90
 8009f6c:	e58d0064 	str	r0, [sp, #100]	@ 0x64
 8009f70:	e51b00c8 	ldr	r0, [fp, #-200]	@ 0xffffff38
 8009f74:	e58d0068 	str	r0, [sp, #104]	@ 0x68
 8009f78:	ea000003 	b	0x8009f8c
 8009f7c:	e3a00000 	mov	r0, #0
 8009f80:	e1a0400c 	mov	r4, ip
 8009f84:	e59d107c 	ldr	r1, [sp, #124]	@ 0x7c
 8009f88:	e58d027c 	str	r0, [sp, #636]	@ 0x27c
 8009f8c:	e59d0068 	ldr	r0, [sp, #104]	@ 0x68
 8009f90:	e1590000 	cmp	r9, r0
 8009f94:	81a00009 	movhi	r0, r9
 8009f98:	e3500029 	cmp	r0, #41	@ 0x29
 8009f9c:	2a00020d 	bcs	0x800a7d8
 8009fa0:	e58d1078 	str	r1, [sp, #120]	@ 0x78
 8009fa4:	e1a01100 	lsl	r1, r0, #2
 8009fa8:	e28ded0a 	add	lr, sp, #640	@ 0x280
 8009fac:	e24b6f5a 	sub	r6, fp, #360	@ 0x168
 8009fb0:	e0862001 	add	r2, r6, r1
 8009fb4:	e3510000 	cmp	r1, #0
 8009fb8:	0a000009 	beq	0x8009fe4
 8009fbc:	e7983001 	ldr	r3, [r8, r1]
 8009fc0:	e5127004 	ldr	r7, [r2, #-4]
 8009fc4:	e2411004 	sub	r1, r1, #4
 8009fc8:	e0572003 	subs	r2, r7, r3
 8009fcc:	13a02001 	movne	r2, #1
 8009fd0:	e1570003 	cmp	r7, r3
 8009fd4:	83e02000 	mvnhi	r2, #0
 8009fd8:	e3520000 	cmp	r2, #0
 8009fdc:	0afffff3 	beq	0x8009fb0
 8009fe0:	ea000001 	b	0x8009fec
 8009fe4:	e0522006 	subs	r2, r2, r6
 8009fe8:	13e02000 	mvnne	r2, #0
 8009fec:	e20210ff 	and	r1, r2, #255	@ 0xff
 8009ff0:	e3a0c000 	mov	ip, #0
 8009ff4:	e24b2e21 	sub	r2, fp, #528	@ 0x210
 8009ff8:	e3510001 	cmp	r1, #1
 8009ffc:	8a000016 	bhi	0x800a05c
 800a000:	e3500000 	cmp	r0, #0
 800a004:	0a000011 	beq	0x800a050
 800a008:	e3a05001 	mov	r5, #1
 800a00c:	e28d1094 	add	r1, sp, #148	@ 0x94
 800a010:	e24b2f5a 	sub	r2, fp, #360	@ 0x168
 800a014:	e1a03000 	mov	r3, r0
 800a018:	e4924004 	ldr	r4, [r2], #4
 800a01c:	e5917000 	ldr	r7, [r1]
 800a020:	e2055001 	and	r5, r5, #1
 800a024:	e2555001 	subs	r5, r5, #1
 800a028:	e1e04004 	mvn	r4, r4
 800a02c:	e0b77004 	adcs	r7, r7, r4
 800a030:	e2aa5000 	adc	r5, sl, #0
 800a034:	e4817004 	str	r7, [r1], #4
 800a038:	e2533001 	subs	r3, r3, #1
 800a03c:	1afffff5 	bne	0x800a018
 800a040:	e3550000 	cmp	r5, #0
 800a044:	e24b40c4 	sub	r4, fp, #196	@ 0xc4
 800a048:	e24b2e21 	sub	r2, fp, #528	@ 0x210
 800a04c:	0a0001ec 	beq	0x800a804
 800a050:	e3a0c008 	mov	ip, #8
 800a054:	e1a09000 	mov	r9, r0
 800a058:	e58d0134 	str	r0, [sp, #308]	@ 0x134
 800a05c:	e59d0064 	ldr	r0, [sp, #100]	@ 0x64
 800a060:	e1590000 	cmp	r9, r0
 800a064:	81a00009 	movhi	r0, r9
 800a068:	e3500029 	cmp	r0, #41	@ 0x29
 800a06c:	2a0001d9 	bcs	0x800a7d8
 800a070:	e1a01100 	lsl	r1, r0, #2
 800a074:	e0823001 	add	r3, r2, r1
 800a078:	e3510000 	cmp	r1, #0
 800a07c:	0a000024 	beq	0x800a114
 800a080:	e7987001 	ldr	r7, [r8, r1]
 800a084:	e5135004 	ldr	r5, [r3, #-4]
 800a088:	e2411004 	sub	r1, r1, #4
 800a08c:	e0553007 	subs	r3, r5, r7
 800a090:	13a03001 	movne	r3, #1
 800a094:	e1550007 	cmp	r5, r7
 800a098:	83e03000 	mvnhi	r3, #0
 800a09c:	e3530000 	cmp	r3, #0
 800a0a0:	0afffff3 	beq	0x800a074
 800a0a4:	e20310ff 	and	r1, r3, #255	@ 0xff
 800a0a8:	e3510001 	cmp	r1, #1
 800a0ac:	8a00001d 	bhi	0x800a128
 800a0b0:	e3500000 	cmp	r0, #0
 800a0b4:	e24b6fad 	sub	r6, fp, #692	@ 0x2b4
 800a0b8:	0a000010 	beq	0x800a100
 800a0bc:	e3a07001 	mov	r7, #1
 800a0c0:	e28d1094 	add	r1, sp, #148	@ 0x94
 800a0c4:	e1a03002 	mov	r3, r2
 800a0c8:	e1a05000 	mov	r5, r0
 800a0cc:	e4932004 	ldr	r2, [r3], #4
 800a0d0:	e5914000 	ldr	r4, [r1]
 800a0d4:	e2077001 	and	r7, r7, #1
 800a0d8:	e2577001 	subs	r7, r7, #1
 800a0dc:	e1e02002 	mvn	r2, r2
 800a0e0:	e0b42002 	adcs	r2, r4, r2
 800a0e4:	e2aa7000 	adc	r7, sl, #0
 800a0e8:	e4812004 	str	r2, [r1], #4
 800a0ec:	e2555001 	subs	r5, r5, #1
 800a0f0:	1afffff5 	bne	0x800a0cc
 800a0f4:	e3570000 	cmp	r7, #0
 800a0f8:	e24b40c4 	sub	r4, fp, #196	@ 0xc4
 800a0fc:	0a0001c0 	beq	0x800a804
 800a100:	e38cc004 	orr	ip, ip, #4
 800a104:	e58d0134 	str	r0, [sp, #308]	@ 0x134
 800a108:	ea000008 	b	0x800a130
 800a10c:	7b4dc993 	blvc	0x937c760
 800a110:	082fd0f0 	stmdaeq	pc!, {r4, r5, r6, r7, ip, lr, pc}	@ <UNPREDICTABLE>
 800a114:	e0533002 	subs	r3, r3, r2
 800a118:	13e03000 	mvnne	r3, #0
 800a11c:	e20310ff 	and	r1, r3, #255	@ 0xff
 800a120:	e3510001 	cmp	r1, #1
 800a124:	9affffe1 	bls	0x800a0b0
 800a128:	e1a00009 	mov	r0, r9
 800a12c:	e24b6fad 	sub	r6, fp, #692	@ 0x2b4
 800a130:	e59d5060 	ldr	r5, [sp, #96]	@ 0x60
 800a134:	e1500005 	cmp	r0, r5
 800a138:	81a05000 	movhi	r5, r0
 800a13c:	e3550029 	cmp	r5, #41	@ 0x29
 800a140:	2a0001dc 	bcs	0x800a8b8
 800a144:	e1a01105 	lsl	r1, r5, #2
 800a148:	e0863001 	add	r3, r6, r1
 800a14c:	e3510000 	cmp	r1, #0
 800a150:	0a000021 	beq	0x800a1dc
 800a154:	e7982001 	ldr	r2, [r8, r1]
 800a158:	e5137004 	ldr	r7, [r3, #-4]
 800a15c:	e2411004 	sub	r1, r1, #4
 800a160:	e0573002 	subs	r3, r7, r2
 800a164:	13a03001 	movne	r3, #1
 800a168:	e1570002 	cmp	r7, r2
 800a16c:	83e03000 	mvnhi	r3, #0
 800a170:	e3530000 	cmp	r3, #0
 800a174:	0afffff3 	beq	0x800a148
 800a178:	e20310ff 	and	r1, r3, #255	@ 0xff
 800a17c:	e3510001 	cmp	r1, #1
 800a180:	8a00001a 	bhi	0x800a1f0
 800a184:	e3550000 	cmp	r5, #0
 800a188:	0a000010 	beq	0x800a1d0
 800a18c:	e3a07001 	mov	r7, #1
 800a190:	e28d0094 	add	r0, sp, #148	@ 0x94
 800a194:	e1a03006 	mov	r3, r6
 800a198:	e1a01005 	mov	r1, r5
 800a19c:	e4934004 	ldr	r4, [r3], #4
 800a1a0:	e5902000 	ldr	r2, [r0]
 800a1a4:	e2077001 	and	r7, r7, #1
 800a1a8:	e2577001 	subs	r7, r7, #1
 800a1ac:	e1e04004 	mvn	r4, r4
 800a1b0:	e0b22004 	adcs	r2, r2, r4
 800a1b4:	e2aa7000 	adc	r7, sl, #0
 800a1b8:	e4802004 	str	r2, [r0], #4
 800a1bc:	e2511001 	subs	r1, r1, #1
 800a1c0:	1afffff5 	bne	0x800a19c
 800a1c4:	e3570000 	cmp	r7, #0
 800a1c8:	e24b40c4 	sub	r4, fp, #196	@ 0xc4
 800a1cc:	0a00018c 	beq	0x800a804
 800a1d0:	e28cc002 	add	ip, ip, #2
 800a1d4:	e58d5134 	str	r5, [sp, #308]	@ 0x134
 800a1d8:	ea000005 	b	0x800a1f4
 800a1dc:	e0533006 	subs	r3, r3, r6
 800a1e0:	13e03000 	mvnne	r3, #0
 800a1e4:	e20310ff 	and	r1, r3, #255	@ 0xff
 800a1e8:	e3510001 	cmp	r1, #1
 800a1ec:	9affffe4 	bls	0x800a184
 800a1f0:	e1a05000 	mov	r5, r0
 800a1f4:	e59d9074 	ldr	r9, [sp, #116]	@ 0x74
 800a1f8:	e1550009 	cmp	r5, r9
 800a1fc:	81a09005 	movhi	r9, r5
 800a200:	e3590029 	cmp	r9, #41	@ 0x29
 800a204:	2a00017a 	bcs	0x800a7f4
 800a208:	e1a00109 	lsl	r0, r9, #2
 800a20c:	e08e1000 	add	r1, lr, r0
 800a210:	e3500000 	cmp	r0, #0
 800a214:	0a00001f 	beq	0x800a298
 800a218:	e7982000 	ldr	r2, [r8, r0]
 800a21c:	e5113004 	ldr	r3, [r1, #-4]
 800a220:	e2400004 	sub	r0, r0, #4
 800a224:	e0531002 	subs	r1, r3, r2
 800a228:	13a01001 	movne	r1, #1
 800a22c:	e1530002 	cmp	r3, r2
 800a230:	83e01000 	mvnhi	r1, #0
 800a234:	e3510000 	cmp	r1, #0
 800a238:	0afffff3 	beq	0x800a20c
 800a23c:	e20100ff 	and	r0, r1, #255	@ 0xff
 800a240:	e3500001 	cmp	r0, #1
 800a244:	8a000018 	bhi	0x800a2ac
 800a248:	e3590000 	cmp	r9, #0
 800a24c:	0a00000e 	beq	0x800a28c
 800a250:	e3a07001 	mov	r7, #1
 800a254:	e28d0094 	add	r0, sp, #148	@ 0x94
 800a258:	e1a03009 	mov	r3, r9
 800a25c:	e49e5004 	ldr	r5, [lr], #4
 800a260:	e5902000 	ldr	r2, [r0]
 800a264:	e2077001 	and	r7, r7, #1
 800a268:	e2577001 	subs	r7, r7, #1
 800a26c:	e1e05005 	mvn	r5, r5
 800a270:	e0b22005 	adcs	r2, r2, r5
 800a274:	e2aa7000 	adc	r7, sl, #0
 800a278:	e4802004 	str	r2, [r0], #4
 800a27c:	e2533001 	subs	r3, r3, #1
 800a280:	1afffff5 	bne	0x800a25c
 800a284:	e3570000 	cmp	r7, #0
 800a288:	0a00015d 	beq	0x800a804
 800a28c:	e28cc001 	add	ip, ip, #1
 800a290:	e58d9134 	str	r9, [sp, #308]	@ 0x134
 800a294:	ea000005 	b	0x800a2b0
 800a298:	e051100e 	subs	r1, r1, lr
 800a29c:	13e01000 	mvnne	r1, #0
 800a2a0:	e20100ff 	and	r0, r1, #255	@ 0xff
 800a2a4:	e3500001 	cmp	r0, #1
 800a2a8:	9affffe6 	bls	0x800a248
 800a2ac:	e1a09005 	mov	r9, r5
 800a2b0:	e59d1078 	ldr	r1, [sp, #120]	@ 0x78
 800a2b4:	e28d7f4e 	add	r7, sp, #312	@ 0x138
 800a2b8:	e28d2083 	add	r2, sp, #131	@ 0x83
 800a2bc:	e3510011 	cmp	r1, #17
 800a2c0:	0a000253 	beq	0x800ac14
 800a2c4:	e59d61d8 	ldr	r6, [sp, #472]	@ 0x1d8
 800a2c8:	e28c0030 	add	r0, ip, #48	@ 0x30
 800a2cc:	e7c20001 	strb	r0, [r2, r1]
 800a2d0:	e1590006 	cmp	r9, r6
 800a2d4:	e1a00006 	mov	r0, r6
 800a2d8:	81a00009 	movhi	r0, r9
 800a2dc:	e3500029 	cmp	r0, #41	@ 0x29
 800a2e0:	2a00013c 	bcs	0x800a7d8
 800a2e4:	e59d305c 	ldr	r3, [sp, #92]	@ 0x5c
 800a2e8:	e2811001 	add	r1, r1, #1
 800a2ec:	e1a00100 	lsl	r0, r0, #2
 800a2f0:	e58d107c 	str	r1, [sp, #124]	@ 0x7c
 800a2f4:	e0871000 	add	r1, r7, r0
 800a2f8:	e3500000 	cmp	r0, #0
 800a2fc:	0a00000a 	beq	0x800a32c
 800a300:	e7932000 	ldr	r2, [r3, r0]
 800a304:	e5111004 	ldr	r1, [r1, #-4]
 800a308:	e2400004 	sub	r0, r0, #4
 800a30c:	e0515002 	subs	r5, r1, r2
 800a310:	13a05001 	movne	r5, #1
 800a314:	e1510002 	cmp	r1, r2
 800a318:	83e05000 	mvnhi	r5, #0
 800a31c:	e3550000 	cmp	r5, #0
 800a320:	0afffff3 	beq	0x800a2f4
 800a324:	ea000002 	b	0x800a334
 800a328:	082fdea1 	stmdaeq	pc!, {r0, r5, r7, r9, sl, fp, ip, lr, pc}	@ <UNPREDICTABLE>
 800a32c:	e0515007 	subs	r5, r1, r7
 800a330:	13e05000 	mvnne	r5, #0
 800a334:	e1a00004 	mov	r0, r4
 800a338:	e28d1094 	add	r1, sp, #148	@ 0x94
 800a33c:	e3a020a0 	mov	r2, #160	@ 0xa0
 800a340:	e58d6070 	str	r6, [sp, #112]	@ 0x70
 800a344:	eb001e05 	bl	0x8011b60
 800a348:	e59d027c 	ldr	r0, [sp, #636]	@ 0x27c
 800a34c:	e50b9024 	str	r9, [fp, #-36]	@ 0xffffffdc
 800a350:	e1590000 	cmp	r9, r0
 800a354:	e1a0c000 	mov	ip, r0
 800a358:	81a0c009 	movhi	ip, r9
 800a35c:	e35c0029 	cmp	ip, #41	@ 0x29
 800a360:	2a00011f 	bcs	0x800a7e4
 800a364:	e35c0000 	cmp	ip, #0
 800a368:	0a000016 	beq	0x800a3c8
 800a36c:	e59de06c 	ldr	lr, [sp, #108]	@ 0x6c
 800a370:	e1a02004 	mov	r2, r4
 800a374:	e3a04000 	mov	r4, #0
 800a378:	e28d3f77 	add	r3, sp, #476	@ 0x1dc
 800a37c:	e1a0100c 	mov	r1, ip
 800a380:	e4936004 	ldr	r6, [r3], #4
 800a384:	e5927000 	ldr	r7, [r2]
 800a388:	e2044001 	and	r4, r4, #1
 800a38c:	e2544001 	subs	r4, r4, #1
 800a390:	e0b77006 	adcs	r7, r7, r6
 800a394:	e2aa4000 	adc	r4, sl, #0
 800a398:	e4827004 	str	r7, [r2], #4
 800a39c:	e2511001 	subs	r1, r1, #1
 800a3a0:	1afffff6 	bne	0x800a380
 800a3a4:	e3540000 	cmp	r4, #0
 800a3a8:	0a000008 	beq	0x800a3d0
 800a3ac:	e35c0028 	cmp	ip, #40	@ 0x28
 800a3b0:	e24b40c4 	sub	r4, fp, #196	@ 0xc4
 800a3b4:	0a000212 	beq	0x800ac04
 800a3b8:	e3a01001 	mov	r1, #1
 800a3bc:	e784110c 	str	r1, [r4, ip, lsl #2]
 800a3c0:	e28cc001 	add	ip, ip, #1
 800a3c4:	ea000002 	b	0x800a3d4
 800a3c8:	e59de06c 	ldr	lr, [sp, #108]	@ 0x6c
 800a3cc:	ea000000 	b	0x800a3d4
 800a3d0:	e24b40c4 	sub	r4, fp, #196	@ 0xc4
 800a3d4:	e59d1074 	ldr	r1, [sp, #116]	@ 0x74
 800a3d8:	e50bc024 	str	ip, [fp, #-36]	@ 0xffffffdc
 800a3dc:	e151000c 	cmp	r1, ip
 800a3e0:	81a0c001 	movhi	ip, r1
 800a3e4:	e35c0029 	cmp	ip, #41	@ 0x29
 800a3e8:	2a0000fd 	bcs	0x800a7e4
 800a3ec:	e59d6058 	ldr	r6, [sp, #88]	@ 0x58
 800a3f0:	e1a0210c 	lsl	r2, ip, #2
 800a3f4:	e0841002 	add	r1, r4, r2
 800a3f8:	e3520000 	cmp	r2, #0
 800a3fc:	0a00000a 	beq	0x800a42c
 800a400:	e7963002 	ldr	r3, [r6, r2]
 800a404:	e5117004 	ldr	r7, [r1, #-4]
 800a408:	e2422004 	sub	r2, r2, #4
 800a40c:	e0571003 	subs	r1, r7, r3
 800a410:	13a01001 	movne	r1, #1
 800a414:	e1570003 	cmp	r7, r3
 800a418:	83e01000 	mvnhi	r1, #0
 800a41c:	e3510000 	cmp	r1, #0
 800a420:	0afffff3 	beq	0x800a3f4
 800a424:	ea000002 	b	0x800a434
 800a428:	1999999a 	ldmibne	r9, {r1, r3, r4, r7, r8, fp, ip, pc}
 800a42c:	e0511004 	subs	r1, r1, r4
 800a430:	13e01000 	mvnne	r1, #0
 800a434:	e1a02c05 	lsl	r2, r5, #24
 800a438:	e1a02c42 	asr	r2, r2, #24
 800a43c:	e152000e 	cmp	r2, lr
 800a440:	a1a03c01 	lslge	r3, r1, #24
 800a444:	a1a03c43 	asrge	r3, r3, #24
 800a448:	a153000e 	cmpge	r3, lr
 800a44c:	ba000052 	blt	0x800a59c
 800a450:	e3590029 	cmp	r9, #41	@ 0x29
 800a454:	2a0000e6 	bcs	0x800a7f4
 800a458:	e1a0c004 	mov	ip, r4
 800a45c:	e3590000 	cmp	r9, #0
 800a460:	0a000017 	beq	0x800a4c4
 800a464:	e59de070 	ldr	lr, [sp, #112]	@ 0x70
 800a468:	e1a01109 	lsl	r1, r9, #2
 800a46c:	e3a03000 	mov	r3, #0
 800a470:	e28d7094 	add	r7, sp, #148	@ 0x94
 800a474:	e3a0400a 	mov	r4, #10
 800a478:	e5976000 	ldr	r6, [r7]
 800a47c:	e3a02000 	mov	r2, #0
 800a480:	e2511004 	subs	r1, r1, #4
 800a484:	e0a23496 	umlal	r3, r2, r6, r4
 800a488:	e4873004 	str	r3, [r7], #4
 800a48c:	e1a03002 	mov	r3, r2
 800a490:	1afffff8 	bne	0x800a478
 800a494:	e3520000 	cmp	r2, #0
 800a498:	e28d5f4e 	add	r5, sp, #312	@ 0x138
 800a49c:	0a000004 	beq	0x800a4b4
 800a4a0:	e3590028 	cmp	r9, #40	@ 0x28
 800a4a4:	0a0001d6 	beq	0x800ac04
 800a4a8:	e28d1094 	add	r1, sp, #148	@ 0x94
 800a4ac:	e7812109 	str	r2, [r1, r9, lsl #2]
 800a4b0:	e2899001 	add	r9, r9, #1
 800a4b4:	e35e0029 	cmp	lr, #41	@ 0x29
 800a4b8:	e58d9134 	str	r9, [sp, #308]	@ 0x134
 800a4bc:	3a000007 	bcc	0x800a4e0
 800a4c0:	ea000100 	b	0x800a8c8
 800a4c4:	e59de070 	ldr	lr, [sp, #112]	@ 0x70
 800a4c8:	e3a09000 	mov	r9, #0
 800a4cc:	e28d5f4e 	add	r5, sp, #312	@ 0x138
 800a4d0:	e3a0400a 	mov	r4, #10
 800a4d4:	e35e0029 	cmp	lr, #41	@ 0x29
 800a4d8:	e58d9134 	str	r9, [sp, #308]	@ 0x134
 800a4dc:	2a0000f9 	bcs	0x800a8c8
 800a4e0:	e35e0000 	cmp	lr, #0
 800a4e4:	0a000013 	beq	0x800a538
 800a4e8:	e1a0110e 	lsl	r1, lr, #2
 800a4ec:	e3a03000 	mov	r3, #0
 800a4f0:	e1a07005 	mov	r7, r5
 800a4f4:	e5976000 	ldr	r6, [r7]
 800a4f8:	e3a02000 	mov	r2, #0
 800a4fc:	e2511004 	subs	r1, r1, #4
 800a500:	e0a23496 	umlal	r3, r2, r6, r4
 800a504:	e4873004 	str	r3, [r7], #4
 800a508:	e1a03002 	mov	r3, r2
 800a50c:	1afffff8 	bne	0x800a4f4
 800a510:	e3520000 	cmp	r2, #0
 800a514:	0a000003 	beq	0x800a528
 800a518:	e35e0028 	cmp	lr, #40	@ 0x28
 800a51c:	0a0001b8 	beq	0x800ac04
 800a520:	e785210e 	str	r2, [r5, lr, lsl #2]
 800a524:	e28ee001 	add	lr, lr, #1
 800a528:	e3500029 	cmp	r0, #41	@ 0x29
 800a52c:	e58de1d8 	str	lr, [sp, #472]	@ 0x1d8
 800a530:	3a000004 	bcc	0x800a548
 800a534:	ea0000a7 	b	0x800a7d8
 800a538:	e3a0e000 	mov	lr, #0
 800a53c:	e3500029 	cmp	r0, #41	@ 0x29
 800a540:	e58de1d8 	str	lr, [sp, #472]	@ 0x1d8
 800a544:	2a0000a3 	bcs	0x800a7d8
 800a548:	e3500000 	cmp	r0, #0
 800a54c:	0afffe8a 	beq	0x8009f7c
 800a550:	e1a01100 	lsl	r1, r0, #2
 800a554:	e3a03000 	mov	r3, #0
 800a558:	e28d7f77 	add	r7, sp, #476	@ 0x1dc
 800a55c:	e5976000 	ldr	r6, [r7]
 800a560:	e3a02000 	mov	r2, #0
 800a564:	e2511004 	subs	r1, r1, #4
 800a568:	e0a23496 	umlal	r3, r2, r6, r4
 800a56c:	e4873004 	str	r3, [r7], #4
 800a570:	e1a03002 	mov	r3, r2
 800a574:	1afffff8 	bne	0x800a55c
 800a578:	e3520000 	cmp	r2, #0
 800a57c:	e1a0400c 	mov	r4, ip
 800a580:	0afffe7f 	beq	0x8009f84
 800a584:	e3500028 	cmp	r0, #40	@ 0x28
 800a588:	0a00019d 	beq	0x800ac04
 800a58c:	e28d1f77 	add	r1, sp, #476	@ 0x1dc
 800a590:	e7812100 	str	r2, [r1, r0, lsl #2]
 800a594:	e2800001 	add	r0, r0, #1
 800a598:	eafffe79 	b	0x8009f84
 800a59c:	e59d404c 	ldr	r4, [sp, #76]	@ 0x4c
 800a5a0:	e1a00c01 	lsl	r0, r1, #24
 800a5a4:	e1a00c40 	asr	r0, r0, #24
 800a5a8:	e150000e 	cmp	r0, lr
 800a5ac:	aa000038 	bge	0x800a694
 800a5b0:	e152000e 	cmp	r2, lr
 800a5b4:	aa000020 	bge	0x800a63c
 800a5b8:	e28d0094 	add	r0, sp, #148	@ 0x94
 800a5bc:	e3a01001 	mov	r1, #1
 800a5c0:	ebffed74 	bl	0x8005b98
 800a5c4:	e59d2134 	ldr	r2, [sp, #308]	@ 0x134
 800a5c8:	e59d1320 	ldr	r1, [sp, #800]	@ 0x320
 800a5cc:	e1520001 	cmp	r2, r1
 800a5d0:	81a01002 	movhi	r1, r2
 800a5d4:	e3510029 	cmp	r1, #41	@ 0x29
 800a5d8:	2a000126 	bcs	0x800aa78
 800a5dc:	e2400004 	sub	r0, r0, #4
 800a5e0:	e1a01101 	lsl	r1, r1, #2
 800a5e4:	e28d2d0a 	add	r2, sp, #640	@ 0x280
 800a5e8:	e28d5d0a 	add	r5, sp, #640	@ 0x280
 800a5ec:	e0823001 	add	r3, r2, r1
 800a5f0:	e3510000 	cmp	r1, #0
 800a5f4:	0a00000b 	beq	0x800a628
 800a5f8:	e7907001 	ldr	r7, [r0, r1]
 800a5fc:	e5136004 	ldr	r6, [r3, #-4]
 800a600:	e2411004 	sub	r1, r1, #4
 800a604:	e0563007 	subs	r3, r6, r7
 800a608:	13a03001 	movne	r3, #1
 800a60c:	e1560007 	cmp	r6, r7
 800a610:	83e03000 	mvnhi	r3, #0
 800a614:	e3530000 	cmp	r3, #0
 800a618:	0afffff3 	beq	0x800a5ec
 800a61c:	ea000003 	b	0x800a630
 800a620:	05f5e100 	ldrbeq	lr, [r5, #256]!	@ 0x100
 800a624:	00989680 	addseq	r9, r8, r0, lsl #13
 800a628:	e0533005 	subs	r3, r3, r5
 800a62c:	13e03000 	mvnne	r3, #0
 800a630:	e20300ff 	and	r0, r3, #255	@ 0xff
 800a634:	e3500002 	cmp	r0, #2
 800a638:	2a000015 	bcs	0x800a694
 800a63c:	e59d6078 	ldr	r6, [sp, #120]	@ 0x78
 800a640:	e3e01000 	mvn	r1, #0
 800a644:	e28d7083 	add	r7, sp, #131	@ 0x83
 800a648:	e1a02006 	mov	r2, r6
 800a64c:	e3720001 	cmn	r2, #1
 800a650:	0a000026 	beq	0x800a6f0
 800a654:	e7d73002 	ldrb	r3, [r7, r2]
 800a658:	e1a00002 	mov	r0, r2
 800a65c:	e2422001 	sub	r2, r2, #1
 800a660:	e2811001 	add	r1, r1, #1
 800a664:	e3530039 	cmp	r3, #57	@ 0x39
 800a668:	0afffff7 	beq	0x800a64c
 800a66c:	e7d73000 	ldrb	r3, [r7, r0]
 800a670:	e2802001 	add	r2, r0, #1
 800a674:	e1520006 	cmp	r2, r6
 800a678:	e2833001 	add	r3, r3, #1
 800a67c:	e7c73000 	strb	r3, [r7, r0]
 800a680:	8a000003 	bhi	0x800a694
 800a684:	e28d0083 	add	r0, sp, #131	@ 0x83
 800a688:	e0800002 	add	r0, r0, r2
 800a68c:	e3a02030 	mov	r2, #48	@ 0x30
 800a690:	eb001d30 	bl	0x8011b58
 800a694:	e59d0078 	ldr	r0, [sp, #120]	@ 0x78
 800a698:	e3500011 	cmp	r0, #17
 800a69c:	2a0000f1 	bcs	0x800aa68
 800a6a0:	e59d107c 	ldr	r1, [sp, #124]	@ 0x7c
 800a6a4:	e59d204c 	ldr	r2, [sp, #76]	@ 0x4c
 800a6a8:	e24b00c4 	sub	r0, fp, #196	@ 0xc4
 800a6ac:	e3a03000 	mov	r3, #0
 800a6b0:	e58d0000 	str	r0, [sp]
 800a6b4:	e28d0083 	add	r0, sp, #131	@ 0x83
 800a6b8:	eb0002f0 	bl	0x800b280
 800a6bc:	e1a02000 	mov	r2, r0
 800a6c0:	e59d0054 	ldr	r0, [sp, #84]	@ 0x54
 800a6c4:	e59d5024 	ldr	r5, [sp, #36]	@ 0x24
 800a6c8:	e59d8028 	ldr	r8, [sp, #40]	@ 0x28
 800a6cc:	e50b115c 	str	r1, [fp, #-348]	@ 0xfffffea4
 800a6d0:	e24b1f5a 	sub	r1, fp, #360	@ 0x168
 800a6d4:	e50b2160 	str	r2, [fp, #-352]	@ 0xfffffea0
 800a6d8:	e50b8164 	str	r8, [fp, #-356]	@ 0xfffffe9c
 800a6dc:	e50b5168 	str	r5, [fp, #-360]	@ 0xfffffe98
 800a6e0:	ebfff373 	bl	0x80074b4
 800a6e4:	e24bd01c 	sub	sp, fp, #28
 800a6e8:	e8bd4ff0 	pop	{r4, r5, r6, r7, r8, r9, sl, fp, lr}
 800a6ec:	e12fff1e 	bx	lr
 800a6f0:	e3a00031 	mov	r0, #49	@ 0x31
 800a6f4:	e3560000 	cmp	r6, #0
 800a6f8:	e5cd0083 	strb	r0, [sp, #131]	@ 0x83
 800a6fc:	0a000007 	beq	0x800a720
 800a700:	e2870001 	add	r0, r7, #1
 800a704:	e1a01006 	mov	r1, r6
 800a708:	e3a02030 	mov	r2, #48	@ 0x30
 800a70c:	eb001d11 	bl	0x8011b58
 800a710:	e59d6078 	ldr	r6, [sp, #120]	@ 0x78
 800a714:	e28d7083 	add	r7, sp, #131	@ 0x83
 800a718:	e356000f 	cmp	r6, #15
 800a71c:	8a00016d 	bhi	0x800acd8
 800a720:	e59d107c 	ldr	r1, [sp, #124]	@ 0x7c
 800a724:	e3a00030 	mov	r0, #48	@ 0x30
 800a728:	e2844001 	add	r4, r4, #1
 800a72c:	e58d404c 	str	r4, [sp, #76]	@ 0x4c
 800a730:	e7c70001 	strb	r0, [r7, r1]
 800a734:	e2860002 	add	r0, r6, #2
 800a738:	e58d007c 	str	r0, [sp, #124]	@ 0x7c
 800a73c:	eaffffd7 	b	0x800a6a0
 800a740:	e59d007c 	ldr	r0, [sp, #124]	@ 0x7c
 800a744:	e59d3034 	ldr	r3, [sp, #52]	@ 0x34
 800a748:	e3a01003 	mov	r1, #3
 800a74c:	e3500002 	cmp	r0, #2
 800a750:	0afffbcc 	beq	0x8009688
 800a754:	e3530ffa 	cmp	r3, #1000	@ 0x3e8
 800a758:	3a00015c 	bcc	0x800acd0
 800a75c:	e59f05a4 	ldr	r0, [pc, #1444]	@ 0x800ad08
 800a760:	e0821093 	umull	r1, r2, r3, r0
 800a764:	e1a00005 	mov	r0, r5
 800a768:	e1a04322 	lsr	r4, r2, #6
 800a76c:	e1a01004 	mov	r1, r4
 800a770:	eb001a41 	bl	0x801107c
 800a774:	e0010490 	mul	r1, r0, r4
 800a778:	e2808030 	add	r8, r0, #48	@ 0x30
 800a77c:	e59d0064 	ldr	r0, [sp, #100]	@ 0x64
 800a780:	e59d2074 	ldr	r2, [sp, #116]	@ 0x74
 800a784:	e0455001 	sub	r5, r5, r1
 800a788:	e59d1068 	ldr	r1, [sp, #104]	@ 0x68
 800a78c:	e5cd8086 	strb	r8, [sp, #134]	@ 0x86
 800a790:	e1a00035 	lsr	r0, r5, r0
 800a794:	e3510000 	cmp	r1, #0
 800a798:	51a00115 	lslpl	r0, r5, r1
 800a79c:	e59d1070 	ldr	r1, [sp, #112]	@ 0x70
 800a7a0:	e1a01115 	lsl	r1, r5, r1
 800a7a4:	53a01000 	movpl	r1, #0
 800a7a8:	e091a002 	adds	sl, r1, r2
 800a7ac:	e59d103c 	ldr	r1, [sp, #60]	@ 0x3c
 800a7b0:	e0a07001 	adc	r7, r0, r1
 800a7b4:	e59d0058 	ldr	r0, [sp, #88]	@ 0x58
 800a7b8:	e05a0000 	subs	r0, sl, r0
 800a7bc:	e59d0078 	ldr	r0, [sp, #120]	@ 0x78
 800a7c0:	e0d70000 	sbcs	r0, r7, r0
 800a7c4:	2a000012 	bcs	0x800a814
 800a7c8:	e2890003 	add	r0, r9, #3
 800a7cc:	e58d0060 	str	r0, [sp, #96]	@ 0x60
 800a7d0:	e3a00004 	mov	r0, #4
 800a7d4:	eafffb53 	b	0x8009528
 800a7d8:	e59f254c 	ldr	r2, [pc, #1356]	@ 0x800ad2c
 800a7dc:	e3a01028 	mov	r1, #40	@ 0x28
 800a7e0:	ebffecb4 	bl	0x8005ab8
 800a7e4:	e59f2540 	ldr	r2, [pc, #1344]	@ 0x800ad2c
 800a7e8:	e1a0000c 	mov	r0, ip
 800a7ec:	e3a01028 	mov	r1, #40	@ 0x28
 800a7f0:	ebffecb0 	bl	0x8005ab8
 800a7f4:	e59f2530 	ldr	r2, [pc, #1328]	@ 0x800ad2c
 800a7f8:	e1a00009 	mov	r0, r9
 800a7fc:	e3a01028 	mov	r1, #40	@ 0x28
 800a800:	ebffecac 	bl	0x8005ab8
 800a804:	e59f0524 	ldr	r0, [pc, #1316]	@ 0x800ad30
 800a808:	e59f251c 	ldr	r2, [pc, #1308]	@ 0x800ad2c
 800a80c:	e3a0101a 	mov	r1, #26
 800a810:	ebfff078 	bl	0x80069f8
 800a814:	e59d007c 	ldr	r0, [sp, #124]	@ 0x7c
 800a818:	e59d3034 	ldr	r3, [sp, #52]	@ 0x34
 800a81c:	e3a01004 	mov	r1, #4
 800a820:	e3500003 	cmp	r0, #3
 800a824:	0afffb97 	beq	0x8009688
 800a828:	e3a00e71 	mov	r0, #1808	@ 0x710
 800a82c:	e3800a02 	orr	r0, r0, #8192	@ 0x2000
 800a830:	e1530000 	cmp	r3, r0
 800a834:	3a000125 	bcc	0x800acd0
 800a838:	e59f04cc 	ldr	r0, [pc, #1228]	@ 0x800ad0c
 800a83c:	e0821093 	umull	r1, r2, r3, r0
 800a840:	e1a00005 	mov	r0, r5
 800a844:	e1a045a2 	lsr	r4, r2, #11
 800a848:	e1a01004 	mov	r1, r4
 800a84c:	eb001a0a 	bl	0x801107c
 800a850:	e0010490 	mul	r1, r0, r4
 800a854:	e2808030 	add	r8, r0, #48	@ 0x30
 800a858:	e59d0064 	ldr	r0, [sp, #100]	@ 0x64
 800a85c:	e59d2074 	ldr	r2, [sp, #116]	@ 0x74
 800a860:	e0455001 	sub	r5, r5, r1
 800a864:	e59d1068 	ldr	r1, [sp, #104]	@ 0x68
 800a868:	e5cd8087 	strb	r8, [sp, #135]	@ 0x87
 800a86c:	e1a00035 	lsr	r0, r5, r0
 800a870:	e3510000 	cmp	r1, #0
 800a874:	51a00115 	lslpl	r0, r5, r1
 800a878:	e59d1070 	ldr	r1, [sp, #112]	@ 0x70
 800a87c:	e1a01115 	lsl	r1, r5, r1
 800a880:	53a01000 	movpl	r1, #0
 800a884:	e091a002 	adds	sl, r1, r2
 800a888:	e59d103c 	ldr	r1, [sp, #60]	@ 0x3c
 800a88c:	e0a07001 	adc	r7, r0, r1
 800a890:	e59d0058 	ldr	r0, [sp, #88]	@ 0x58
 800a894:	e05a0000 	subs	r0, sl, r0
 800a898:	e59d0078 	ldr	r0, [sp, #120]	@ 0x78
 800a89c:	e0d70000 	sbcs	r0, r7, r0
 800a8a0:	2a00000d 	bcs	0x800a8dc
 800a8a4:	e2890004 	add	r0, r9, #4
 800a8a8:	e58d0060 	str	r0, [sp, #96]	@ 0x60
 800a8ac:	e3a00005 	mov	r0, #5
 800a8b0:	eafffb1c 	b	0x8009528
 800a8b4:	3b9aca00 	blcc	0x66bd0bc
 800a8b8:	e59f246c 	ldr	r2, [pc, #1132]	@ 0x800ad2c
 800a8bc:	e1a00005 	mov	r0, r5
 800a8c0:	e3a01028 	mov	r1, #40	@ 0x28
 800a8c4:	ebffec7b 	bl	0x8005ab8
 800a8c8:	e59f245c 	ldr	r2, [pc, #1116]	@ 0x800ad2c
 800a8cc:	e1a0000e 	mov	r0, lr
 800a8d0:	e3a01028 	mov	r1, #40	@ 0x28
 800a8d4:	ebffec77 	bl	0x8005ab8
 800a8d8:	028f5c29 	addeq	r5, pc, #10496	@ 0x2900
 800a8dc:	e59d007c 	ldr	r0, [sp, #124]	@ 0x7c
 800a8e0:	e59d3034 	ldr	r3, [sp, #52]	@ 0x34
 800a8e4:	e3a01005 	mov	r1, #5
 800a8e8:	e3500004 	cmp	r0, #4
 800a8ec:	0afffb65 	beq	0x8009688
 800a8f0:	e3a00e6a 	mov	r0, #1696	@ 0x6a0
 800a8f4:	e3800906 	orr	r0, r0, #98304	@ 0x18000
 800a8f8:	e1530000 	cmp	r3, r0
 800a8fc:	3a0000f3 	bcc	0x800acd0
 800a900:	e59f0408 	ldr	r0, [pc, #1032]	@ 0x800ad10
 800a904:	e0821093 	umull	r1, r2, r3, r0
 800a908:	e1a00005 	mov	r0, r5
 800a90c:	e1a046a2 	lsr	r4, r2, #13
 800a910:	e1a01004 	mov	r1, r4
 800a914:	eb0019d8 	bl	0x801107c
 800a918:	e0010490 	mul	r1, r0, r4
 800a91c:	e2808030 	add	r8, r0, #48	@ 0x30
 800a920:	e59d0064 	ldr	r0, [sp, #100]	@ 0x64
 800a924:	e59d2074 	ldr	r2, [sp, #116]	@ 0x74
 800a928:	e0455001 	sub	r5, r5, r1
 800a92c:	e59d1068 	ldr	r1, [sp, #104]	@ 0x68
 800a930:	e5cd8088 	strb	r8, [sp, #136]	@ 0x88
 800a934:	e1a00035 	lsr	r0, r5, r0
 800a938:	e3510000 	cmp	r1, #0
 800a93c:	51a00115 	lslpl	r0, r5, r1
 800a940:	e59d1070 	ldr	r1, [sp, #112]	@ 0x70
 800a944:	e1a01115 	lsl	r1, r5, r1
 800a948:	53a01000 	movpl	r1, #0
 800a94c:	e091a002 	adds	sl, r1, r2
 800a950:	e59d103c 	ldr	r1, [sp, #60]	@ 0x3c
 800a954:	e0a07001 	adc	r7, r0, r1
 800a958:	e59d0058 	ldr	r0, [sp, #88]	@ 0x58
 800a95c:	e05a0000 	subs	r0, sl, r0
 800a960:	e59d0078 	ldr	r0, [sp, #120]	@ 0x78
 800a964:	e0d70000 	sbcs	r0, r7, r0
 800a968:	2a000009 	bcs	0x800a994
 800a96c:	e2890005 	add	r0, r9, #5
 800a970:	e58d0060 	str	r0, [sp, #96]	@ 0x60
 800a974:	e3a00006 	mov	r0, #6
 800a978:	eafffaea 	b	0x8009528
 800a97c:	e3a00000 	mov	r0, #0
 800a980:	e24b1f5a 	sub	r1, fp, #360	@ 0x168
 800a984:	e24b20c4 	sub	r2, fp, #196	@ 0xc4
 800a988:	e50b00c4 	str	r0, [fp, #-196]	@ 0xffffff3c
 800a98c:	e24b0e21 	sub	r0, fp, #528	@ 0x210
 800a990:	ebfff12e 	bl	0x8006e50
 800a994:	e59d007c 	ldr	r0, [sp, #124]	@ 0x7c
 800a998:	e59d3034 	ldr	r3, [sp, #52]	@ 0x34
 800a99c:	e3a01006 	mov	r1, #6
 800a9a0:	e3500005 	cmp	r0, #5
 800a9a4:	0afffb37 	beq	0x8009688
 800a9a8:	e3a00d09 	mov	r0, #576	@ 0x240
 800a9ac:	e380093d 	orr	r0, r0, #999424	@ 0xf4000
 800a9b0:	e1530000 	cmp	r3, r0
 800a9b4:	3a0000c5 	bcc	0x800acd0
 800a9b8:	e59f0354 	ldr	r0, [pc, #852]	@ 0x800ad14
 800a9bc:	e0821093 	umull	r1, r2, r3, r0
 800a9c0:	e1a00005 	mov	r0, r5
 800a9c4:	e1a04922 	lsr	r4, r2, #18
 800a9c8:	e1a01004 	mov	r1, r4
 800a9cc:	eb0019aa 	bl	0x801107c
 800a9d0:	e2801030 	add	r1, r0, #48	@ 0x30
 800a9d4:	e59d2074 	ldr	r2, [sp, #116]	@ 0x74
 800a9d8:	e1a08001 	mov	r8, r1
 800a9dc:	e5cd1089 	strb	r1, [sp, #137]	@ 0x89
 800a9e0:	e0010490 	mul	r1, r0, r4
 800a9e4:	e59d0064 	ldr	r0, [sp, #100]	@ 0x64
 800a9e8:	e0455001 	sub	r5, r5, r1
 800a9ec:	e59d1068 	ldr	r1, [sp, #104]	@ 0x68
 800a9f0:	e1a00035 	lsr	r0, r5, r0
 800a9f4:	e3510000 	cmp	r1, #0
 800a9f8:	51a00115 	lslpl	r0, r5, r1
 800a9fc:	e59d1070 	ldr	r1, [sp, #112]	@ 0x70
 800aa00:	e1a01115 	lsl	r1, r5, r1
 800aa04:	53a01000 	movpl	r1, #0
 800aa08:	e091a002 	adds	sl, r1, r2
 800aa0c:	e59d103c 	ldr	r1, [sp, #60]	@ 0x3c
 800aa10:	e0a07001 	adc	r7, r0, r1
 800aa14:	e59d0058 	ldr	r0, [sp, #88]	@ 0x58
 800aa18:	e05a0000 	subs	r0, sl, r0
 800aa1c:	e59d0078 	ldr	r0, [sp, #120]	@ 0x78
 800aa20:	e0d70000 	sbcs	r0, r7, r0
 800aa24:	2a00001c 	bcs	0x800aa9c
 800aa28:	e2890006 	add	r0, r9, #6
 800aa2c:	e58d0060 	str	r0, [sp, #96]	@ 0x60
 800aa30:	e3a00007 	mov	r0, #7
 800aa34:	eafffabb 	b	0x8009528
 800aa38:	e59f0308 	ldr	r0, [pc, #776]	@ 0x800ad48
 800aa3c:	e59f2308 	ldr	r2, [pc, #776]	@ 0x800ad4c
 800aa40:	e3a0101c 	mov	r1, #28
 800aa44:	ebffefeb 	bl	0x80069f8
 800aa48:	e59f0298 	ldr	r0, [pc, #664]	@ 0x800ace8
 800aa4c:	e59f2298 	ldr	r2, [pc, #664]	@ 0x800acec
 800aa50:	e3a0102d 	mov	r1, #45	@ 0x2d
 800aa54:	ebffefe7 	bl	0x80069f8
 800aa58:	e59f0290 	ldr	r0, [pc, #656]	@ 0x800acf0
 800aa5c:	e59f2290 	ldr	r2, [pc, #656]	@ 0x800acf4
 800aa60:	e3a0101d 	mov	r1, #29
 800aa64:	ebffefe3 	bl	0x80069f8
 800aa68:	e59f22c4 	ldr	r2, [pc, #708]	@ 0x800ad34
 800aa6c:	e59d007c 	ldr	r0, [sp, #124]	@ 0x7c
 800aa70:	e3a01011 	mov	r1, #17
 800aa74:	ebffec0f 	bl	0x8005ab8
 800aa78:	e59f22ac 	ldr	r2, [pc, #684]	@ 0x800ad2c
 800aa7c:	e1a00001 	mov	r0, r1
 800aa80:	e3a01028 	mov	r1, #40	@ 0x28
 800aa84:	ebffec0b 	bl	0x8005ab8
 800aa88:	e59f229c 	ldr	r2, [pc, #668]	@ 0x800ad2c
 800aa8c:	e1a00008 	mov	r0, r8
 800aa90:	e3a01028 	mov	r1, #40	@ 0x28
 800aa94:	ebffec07 	bl	0x8005ab8
 800aa98:	55555555 	ldrbpl	r5, [r5, #-1365]	@ 0xfffffaab
 800aa9c:	e59d007c 	ldr	r0, [sp, #124]	@ 0x7c
 800aaa0:	e59d3034 	ldr	r3, [sp, #52]	@ 0x34
 800aaa4:	e3a01007 	mov	r1, #7
 800aaa8:	e3500006 	cmp	r0, #6
 800aaac:	0afffaf5 	beq	0x8009688
 800aab0:	e59f024c 	ldr	r0, [pc, #588]	@ 0x800ad04
 800aab4:	e1530000 	cmp	r3, r0
 800aab8:	3a000084 	bcc	0x800acd0
 800aabc:	e59f0254 	ldr	r0, [pc, #596]	@ 0x800ad18
 800aac0:	e0821093 	umull	r1, r2, r3, r0
 800aac4:	e1a00005 	mov	r0, r5
 800aac8:	e1a06a22 	lsr	r6, r2, #20
 800aacc:	e1a01006 	mov	r1, r6
 800aad0:	eb001969 	bl	0x801107c
 800aad4:	e2801030 	add	r1, r0, #48	@ 0x30
 800aad8:	e59d2074 	ldr	r2, [sp, #116]	@ 0x74
 800aadc:	e1a08001 	mov	r8, r1
 800aae0:	e5cd108a 	strb	r1, [sp, #138]	@ 0x8a
 800aae4:	e0010690 	mul	r1, r0, r6
 800aae8:	e59d0064 	ldr	r0, [sp, #100]	@ 0x64
 800aaec:	e0455001 	sub	r5, r5, r1
 800aaf0:	e59d1068 	ldr	r1, [sp, #104]	@ 0x68
 800aaf4:	e1a00035 	lsr	r0, r5, r0
 800aaf8:	e3510000 	cmp	r1, #0
 800aafc:	51a00115 	lslpl	r0, r5, r1
 800ab00:	e59d1070 	ldr	r1, [sp, #112]	@ 0x70
 800ab04:	e1a01115 	lsl	r1, r5, r1
 800ab08:	53a01000 	movpl	r1, #0
 800ab0c:	e091a002 	adds	sl, r1, r2
 800ab10:	e59d103c 	ldr	r1, [sp, #60]	@ 0x3c
 800ab14:	e0a07001 	adc	r7, r0, r1
 800ab18:	e59d0058 	ldr	r0, [sp, #88]	@ 0x58
 800ab1c:	e05a0000 	subs	r0, sl, r0
 800ab20:	e59d0078 	ldr	r0, [sp, #120]	@ 0x78
 800ab24:	e0d70000 	sbcs	r0, r7, r0
 800ab28:	2a00000d 	bcs	0x800ab64
 800ab2c:	e2890007 	add	r0, r9, #7
 800ab30:	e58d0060 	str	r0, [sp, #96]	@ 0x60
 800ab34:	e3a00008 	mov	r0, #8
 800ab38:	e1a04006 	mov	r4, r6
 800ab3c:	e58d007c 	str	r0, [sp, #124]	@ 0x7c
 800ab40:	e59de044 	ldr	lr, [sp, #68]	@ 0x44
 800ab44:	e59d0030 	ldr	r0, [sp, #48]	@ 0x30
 800ab48:	e59d102c 	ldr	r1, [sp, #44]	@ 0x2c
 800ab4c:	eafffa79 	b	0x8009538
 800ab50:	33333333 	teqcc	r3, #-872415232	@ 0xcc000000
 800ab54:	0f0f0f0f 	svceq	0x000f0f0f
 800ab58:	01010101 	tsteq	r1, r1, lsl #2
 800ab5c:	44135080 	ldrmi	r5, [r3], #-128	@ 0xffffff80
 800ab60:	4d104d42 	ldcmi	13, cr4, [r0, #-264]	@ 0xfffffef8
 800ab64:	e59d007c 	ldr	r0, [sp, #124]	@ 0x7c
 800ab68:	e59d3034 	ldr	r3, [sp, #52]	@ 0x34
 800ab6c:	e3a01008 	mov	r1, #8
 800ab70:	e3500007 	cmp	r0, #7
 800ab74:	0afffac3 	beq	0x8009688
 800ab78:	e59f017c 	ldr	r0, [pc, #380]	@ 0x800acfc
 800ab7c:	e1530000 	cmp	r3, r0
 800ab80:	3a000052 	bcc	0x800acd0
 800ab84:	e59f0190 	ldr	r0, [pc, #400]	@ 0x800ad1c
 800ab88:	e0821093 	umull	r1, r2, r3, r0
 800ab8c:	e1a00005 	mov	r0, r5
 800ab90:	e1a06c22 	lsr	r6, r2, #24
 800ab94:	e1a01006 	mov	r1, r6
 800ab98:	eb001937 	bl	0x801107c
 800ab9c:	e2801030 	add	r1, r0, #48	@ 0x30
 800aba0:	e59d2068 	ldr	r2, [sp, #104]	@ 0x68
 800aba4:	e59d3074 	ldr	r3, [sp, #116]	@ 0x74
 800aba8:	e1a08001 	mov	r8, r1
 800abac:	e5cd108b 	strb	r1, [sp, #139]	@ 0x8b
 800abb0:	e0010690 	mul	r1, r0, r6
 800abb4:	e0450001 	sub	r0, r5, r1
 800abb8:	e59d1064 	ldr	r1, [sp, #100]	@ 0x64
 800abbc:	e3520000 	cmp	r2, #0
 800abc0:	e1a01130 	lsr	r1, r0, r1
 800abc4:	51a01210 	lslpl	r1, r0, r2
 800abc8:	e59d2070 	ldr	r2, [sp, #112]	@ 0x70
 800abcc:	e1a02210 	lsl	r2, r0, r2
 800abd0:	53a02000 	movpl	r2, #0
 800abd4:	e092a003 	adds	sl, r2, r3
 800abd8:	e59d203c 	ldr	r2, [sp, #60]	@ 0x3c
 800abdc:	e0a17002 	adc	r7, r1, r2
 800abe0:	e59d1058 	ldr	r1, [sp, #88]	@ 0x58
 800abe4:	e05a1001 	subs	r1, sl, r1
 800abe8:	e59d1078 	ldr	r1, [sp, #120]	@ 0x78
 800abec:	e0d71001 	sbcs	r1, r7, r1
 800abf0:	2a00000b 	bcs	0x800ac24
 800abf4:	e2890008 	add	r0, r9, #8
 800abf8:	e58d0060 	str	r0, [sp, #96]	@ 0x60
 800abfc:	e3a00009 	mov	r0, #9
 800ac00:	eaffffcc 	b	0x800ab38
 800ac04:	e59f2120 	ldr	r2, [pc, #288]	@ 0x800ad2c
 800ac08:	e3a00028 	mov	r0, #40	@ 0x28
 800ac0c:	e3a01028 	mov	r1, #40	@ 0x28
 800ac10:	ebffef8d 	bl	0x8006a4c
 800ac14:	e59f2120 	ldr	r2, [pc, #288]	@ 0x800ad3c
 800ac18:	e3a00011 	mov	r0, #17
 800ac1c:	e3a01011 	mov	r1, #17
 800ac20:	ebffef89 	bl	0x8006a4c
 800ac24:	e59d207c 	ldr	r2, [sp, #124]	@ 0x7c
 800ac28:	e59d3034 	ldr	r3, [sp, #52]	@ 0x34
 800ac2c:	e3a01009 	mov	r1, #9
 800ac30:	e3520008 	cmp	r2, #8
 800ac34:	0afffa93 	beq	0x8009688
 800ac38:	e59f10c0 	ldr	r1, [pc, #192]	@ 0x800ad00
 800ac3c:	e1530001 	cmp	r3, r1
 800ac40:	3a000022 	bcc	0x800acd0
 800ac44:	e3800030 	orr	r0, r0, #48	@ 0x30
 800ac48:	e59d1058 	ldr	r1, [sp, #88]	@ 0x58
 800ac4c:	e1a08000 	mov	r8, r0
 800ac50:	e5cd008c 	strb	r0, [sp, #140]	@ 0x8c
 800ac54:	e3a0000a 	mov	r0, #10
 800ac58:	e58d007c 	str	r0, [sp, #124]	@ 0x7c
 800ac5c:	e59d0074 	ldr	r0, [sp, #116]	@ 0x74
 800ac60:	e0500001 	subs	r0, r0, r1
 800ac64:	e59d1078 	ldr	r1, [sp, #120]	@ 0x78
 800ac68:	e59d003c 	ldr	r0, [sp, #60]	@ 0x3c
 800ac6c:	e0d00001 	sbcs	r0, r0, r1
 800ac70:	2a00000c 	bcs	0x800aca8
 800ac74:	e59f00a4 	ldr	r0, [pc, #164]	@ 0x800ad20
 800ac78:	e59d3034 	ldr	r3, [sp, #52]	@ 0x34
 800ac7c:	e59da074 	ldr	sl, [sp, #116]	@ 0x74
 800ac80:	e59d703c 	ldr	r7, [sp, #60]	@ 0x3c
 800ac84:	e0821093 	umull	r1, r2, r3, r0
 800ac88:	e2890009 	add	r0, r9, #9
 800ac8c:	e1a04e22 	lsr	r4, r2, #28
 800ac90:	e58d0060 	str	r0, [sp, #96]	@ 0x60
 800ac94:	eaffffa9 	b	0x800ab40
 800ac98:	e59f2088 	ldr	r2, [pc, #136]	@ 0x800ad28
 800ac9c:	e3a00011 	mov	r0, #17
 800aca0:	e3a01011 	mov	r1, #17
 800aca4:	ebffef68 	bl	0x8006a4c
 800aca8:	e3a0100a 	mov	r1, #10
 800acac:	eafffa75 	b	0x8009688
 800acb0:	e59f0088 	ldr	r0, [pc, #136]	@ 0x800ad40
 800acb4:	e59f2088 	ldr	r2, [pc, #136]	@ 0x800ad44
 800acb8:	e3a01036 	mov	r1, #54	@ 0x36
 800acbc:	ebffef4d 	bl	0x80069f8
 800acc0:	e59f2030 	ldr	r2, [pc, #48]	@ 0x800acf8
 800acc4:	e1a00001 	mov	r0, r1
 800acc8:	e3a01051 	mov	r1, #81	@ 0x51
 800accc:	ebffef5e 	bl	0x8006a4c
 800acd0:	e59f004c 	ldr	r0, [pc, #76]	@ 0x800ad24
 800acd4:	eb00004b 	bl	0x800ae08
 800acd8:	e59f2058 	ldr	r2, [pc, #88]	@ 0x800ad38
 800acdc:	e59d007c 	ldr	r0, [sp, #124]	@ 0x7c
 800ace0:	e3a01011 	mov	r1, #17
 800ace4:	ebffef58 	bl	0x8006a4c
 800ace8:	082fd6a8 	stmdaeq	pc!, {r3, r5, r7, r9, sl, ip, lr, pc}	@ <UNPREDICTABLE>
 800acec:	082fd6d8 	stmdaeq	pc!, {r3, r4, r6, r7, r9, sl, ip, lr, pc}	@ <UNPREDICTABLE>
 800acf0:	082fd038 	stmdaeq	pc!, {r3, r4, r5, ip, lr, pc}	@ <UNPREDICTABLE>
 800acf4:	082fd0d0 	stmdaeq	pc!, {r4, r6, r7, ip, lr, pc}	@ <UNPREDICTABLE>
 800acf8:	082fd688 	stmdaeq	pc!, {r3, r7, r9, sl, ip, lr, pc}	@ <UNPREDICTABLE>
 800acfc:	05f5e100 	ldrbeq	lr, [r5, #256]!	@ 0x100
 800ad00:	3b9aca00 	blcc	0x66bd508
 800ad04:	00989680 	addseq	r9, r8, r0, lsl #13
 800ad08:	10624dd3 	ldrdne	r4, [r2], #-211	@ 0xffffff2d	@ <UNPREDICTABLE>
 800ad0c:	346dc5d7 	strbtcc	ip, [sp], #-1495	@ 0xfffffa29
 800ad10:	14f8b589 	ldrbtne	fp, [r8], #1417	@ 0x589
 800ad14:	431bde83 	tstmi	fp, #2096	@ 0x830
 800ad18:	1ad7f29b 	bne	0x760778c
 800ad1c:	2af31dc5 	bcs	0x7cd2438
 800ad20:	44b82fa1 	ldrtmi	r2, [r8], #4001	@ 0xfa1
 800ad24:	082fd6e8 	stmdaeq	pc!, {r3, r5, r6, r7, r9, sl, ip, lr, pc}	@ <UNPREDICTABLE>
 800ad28:	082fd6f8 	stmdaeq	pc!, {r3, r4, r5, r6, r7, r9, sl, ip, lr, pc}	@ <UNPREDICTABLE>
 800ad2c:	082fd7f0 	stmdaeq	pc!, {r4, r5, r6, r7, r8, r9, sl, ip, lr, pc}	@ <UNPREDICTABLE>
 800ad30:	082fd800 	stmdaeq	pc!, {fp, ip, lr, pc}	@ <UNPREDICTABLE>
 800ad34:	082fdd18 	stmdaeq	pc!, {r3, r4, r8, sl, fp, ip, lr, pc}	@ <UNPREDICTABLE>
 800ad38:	082fdd08 	stmdaeq	pc!, {r3, r8, sl, fp, ip, lr, pc}	@ <UNPREDICTABLE>
 800ad3c:	082fdcf8 	stmdaeq	pc!, {r3, r4, r5, r6, r7, sl, fp, ip, lr, pc}	@ <UNPREDICTABLE>
 800ad40:	082fdd28 	stmdaeq	pc!, {r3, r5, r8, sl, fp, ip, lr, pc}	@ <UNPREDICTABLE>
 800ad44:	082fd708 	stmdaeq	pc!, {r3, r8, r9, sl, ip, lr, pc}	@ <UNPREDICTABLE>
 800ad48:	082fdcdb 	stmdaeq	pc!, {r0, r1, r3, r4, r6, r7, sl, fp, ip, lr, pc}	@ <UNPREDICTABLE>
 800ad4c:	082fd698 	stmdaeq	pc!, {r3, r4, r7, r9, sl, ip, lr, pc}	@ <UNPREDICTABLE>
 800ad50:	e1a0c001 	mov	ip, r1
 800ad54:	e5901000 	ldr	r1, [r0]
 800ad58:	e59c2014 	ldr	r2, [ip, #20]
 800ad5c:	e59c0008 	ldr	r0, [ip, #8]
 800ad60:	e2022001 	and	r2, r2, #1
 800ad64:	e3500001 	cmp	r0, #1
 800ad68:	1a000002 	bne	0x800ad78
 800ad6c:	e59c300c 	ldr	r3, [ip, #12]
 800ad70:	e1a0000c 	mov	r0, ip
 800ad74:	eafff30b 	b	0x80079a8
 800ad78:	e1a0000c 	mov	r0, ip
 800ad7c:	eafff81b 	b	0x8008df0
 800ad80:	e92d4800 	push	{fp, lr}
 800ad84:	e1a0b00d 	mov	fp, sp
 800ad88:	e1a02000 	mov	r2, r0
 800ad8c:	e59f0004 	ldr	r0, [pc, #4]	@ 0x800ad98
 800ad90:	e3a0102b 	mov	r1, #43	@ 0x2b
 800ad94:	ebffef17 	bl	0x80069f8
 800ad98:	082fd9e3 	stmdaeq	pc!, {r0, r1, r5, r6, r7, r8, fp, ip, lr, pc}	@ <UNPREDICTABLE>
 800ad9c:	e92d4800 	push	{fp, lr}
 800ada0:	e1a0b00d 	mov	fp, sp
 800ada4:	e24dd028 	sub	sp, sp, #40	@ 0x28
 800ada8:	e3a0003b 	mov	r0, #59	@ 0x3b
 800adac:	e59f1048 	ldr	r1, [pc, #72]	@ 0x800adfc
 800adb0:	e58d0004 	str	r0, [sp, #4]
 800adb4:	e59f003c 	ldr	r0, [pc, #60]	@ 0x800adf8
 800adb8:	e58d1008 	str	r1, [sp, #8]
 800adbc:	e59f1040 	ldr	r1, [pc, #64]	@ 0x800ae04
 800adc0:	e58d0000 	str	r0, [sp]
 800adc4:	e3a00000 	mov	r0, #0
 800adc8:	e58d0018 	str	r0, [sp, #24]
 800adcc:	e3a00001 	mov	r0, #1
 800add0:	e58d000c 	str	r0, [sp, #12]
 800add4:	e58d0014 	str	r0, [sp, #20]
 800add8:	e24b0008 	sub	r0, fp, #8
 800addc:	e58d0010 	str	r0, [sp, #16]
 800ade0:	e59f0018 	ldr	r0, [pc, #24]	@ 0x800ae00
 800ade4:	e50b0004 	str	r0, [fp, #-4]
 800ade8:	e1a0000d 	mov	r0, sp
 800adec:	e50b0008 	str	r0, [fp, #-8]
 800adf0:	e28d0008 	add	r0, sp, #8
 800adf4:	ebffed83 	bl	0x8006408
 800adf8:	082fe480 	stmdaeq	pc!, {r7, sl, sp, lr, pc}	@ <UNPREDICTABLE>
 800adfc:	082e3e54 	stmdaeq	lr!, {r2, r4, r6, r9, sl, fp, ip, sp}
 800ae00:	08006a3c 	stmdaeq	r0, {r2, r3, r4, r5, r9, fp, sp, lr}
 800ae04:	082fe4bc 	stmdaeq	pc!, {r2, r3, r4, r5, r7, sl, sp, lr, pc}	@ <UNPREDICTABLE>
 800ae08:	e92d4800 	push	{fp, lr}
 800ae0c:	e1a0b00d 	mov	fp, sp
 800ae10:	e24dd018 	sub	sp, sp, #24
 800ae14:	e3a02001 	mov	r2, #1
 800ae18:	e1a01000 	mov	r1, r0
 800ae1c:	e3a00000 	mov	r0, #0
 800ae20:	e58d2004 	str	r2, [sp, #4]
 800ae24:	e59f2018 	ldr	r2, [pc, #24]	@ 0x800ae44
 800ae28:	e58d0010 	str	r0, [sp, #16]
 800ae2c:	e58d000c 	str	r0, [sp, #12]
 800ae30:	e3a00004 	mov	r0, #4
 800ae34:	e58d0008 	str	r0, [sp, #8]
 800ae38:	e1a0000d 	mov	r0, sp
 800ae3c:	e58d2000 	str	r2, [sp]
 800ae40:	ebffed70 	bl	0x8006408
 800ae44:	082fdb44 	stmdaeq	pc!, {r2, r6, r8, r9, fp, ip, lr, pc}	@ <UNPREDICTABLE>
 800ae48:	e92d4800 	push	{fp, lr}
 800ae4c:	e1a0b00d 	mov	fp, sp
 800ae50:	e24dd018 	sub	sp, sp, #24
 800ae54:	e3a01001 	mov	r1, #1
 800ae58:	e3a00000 	mov	r0, #0
 800ae5c:	e58d1004 	str	r1, [sp, #4]
 800ae60:	e59f101c 	ldr	r1, [pc, #28]	@ 0x800ae84
 800ae64:	e58d0010 	str	r0, [sp, #16]
 800ae68:	e58d000c 	str	r0, [sp, #12]
 800ae6c:	e3a00004 	mov	r0, #4
 800ae70:	e58d0008 	str	r0, [sp, #8]
 800ae74:	e1a0000d 	mov	r0, sp
 800ae78:	e58d1000 	str	r1, [sp]
 800ae7c:	e59f1004 	ldr	r1, [pc, #4]	@ 0x800ae88
 800ae80:	ebffed60 	bl	0x8006408
 800ae84:	082fdb88 	stmdaeq	pc!, {r3, r7, r8, r9, fp, ip, lr, pc}	@ <UNPREDICTABLE>
 800ae88:	082fe1cc 	stmdaeq	pc!, {r2, r3, r6, r7, r8, sp, lr, pc}	@ <UNPREDICTABLE>
 800ae8c:	e92d4ff0 	push	{r4, r5, r6, r7, r8, r9, sl, fp, lr}
 800ae90:	e28db01c 	add	fp, sp, #28
 800ae94:	e24dd014 	sub	sp, sp, #20
 800ae98:	e1a07001 	mov	r7, r1
 800ae9c:	e5901000 	ldr	r1, [r0]
 800aea0:	e3a09e71 	mov	r9, #1808	@ 0x710
 800aea4:	e3a0a0ff 	mov	sl, #255	@ 0xff
 800aea8:	e3a0807b 	mov	r8, #123	@ 0x7b
 800aeac:	e3a0e00a 	mov	lr, #10
 800aeb0:	e28d300a 	add	r3, sp, #10
 800aeb4:	e3899a02 	orr	r9, r9, #8192	@ 0x2000
 800aeb8:	e38aacff 	orr	sl, sl, #65280	@ 0xff00
 800aebc:	e3888b05 	orr	r8, r8, #5120	@ 0x1400
 800aec0:	e1510009 	cmp	r1, r9
 800aec4:	3a000030 	bcc	0x800af8c
 800aec8:	e59fe144 	ldr	lr, [pc, #324]	@ 0x800b014
 800aecc:	e3a00000 	mov	r0, #0
 800aed0:	e58d7004 	str	r7, [sp, #4]
 800aed4:	e59f5134 	ldr	r5, [pc, #308]	@ 0x800b010
 800aed8:	e0836000 	add	r6, r3, r0
 800aedc:	e1a0700e 	mov	r7, lr
 800aee0:	e2400004 	sub	r0, r0, #4
 800aee4:	e08c4591 	umull	r4, ip, r1, r5
 800aee8:	e1a046ac 	lsr	r4, ip, #13
 800aeec:	e1a0c003 	mov	ip, r3
 800aef0:	e0030994 	mul	r3, r4, r9
 800aef4:	e0413003 	sub	r3, r1, r3
 800aef8:	e003500a 	and	r5, r3, sl
 800aefc:	e1a05125 	lsr	r5, r5, #2
 800af00:	e0020895 	mul	r2, r5, r8
 800af04:	e1a028a2 	lsr	r2, r2, #17
 800af08:	e7f75082 	ldrb	r5, [r7, r2, lsl #1]!
 800af0c:	e5d77001 	ldrb	r7, [r7, #1]
 800af10:	e5c65006 	strb	r5, [r6, #6]
 800af14:	e3a05064 	mov	r5, #100	@ 0x64
 800af18:	e5c67007 	strb	r7, [r6, #7]
 800af1c:	e0070592 	mul	r7, r2, r5
 800af20:	e0432007 	sub	r2, r3, r7
 800af24:	e1a0300e 	mov	r3, lr
 800af28:	e59f70e8 	ldr	r7, [pc, #232]	@ 0x800b018
 800af2c:	e002200a 	and	r2, r2, sl
 800af30:	e7f32082 	ldrb	r2, [r3, r2, lsl #1]!
 800af34:	e1510007 	cmp	r1, r7
 800af38:	e1a01004 	mov	r1, r4
 800af3c:	e5c62008 	strb	r2, [r6, #8]
 800af40:	e5d32001 	ldrb	r2, [r3, #1]
 800af44:	e1a0300c 	mov	r3, ip
 800af48:	e5c62009 	strb	r2, [r6, #9]
 800af4c:	8affffe0 	bhi	0x800aed4
 800af50:	e59d7004 	ldr	r7, [sp, #4]
 800af54:	e280e00a 	add	lr, r0, #10
 800af58:	e3540063 	cmp	r4, #99	@ 0x63
 800af5c:	8a00000d 	bhi	0x800af98
 800af60:	e1a00004 	mov	r0, r4
 800af64:	e350000a 	cmp	r0, #10
 800af68:	3a00001b 	bcc	0x800afdc
 800af6c:	e59f20a0 	ldr	r2, [pc, #160]	@ 0x800b014
 800af70:	e24e1002 	sub	r1, lr, #2
 800af74:	e7f20080 	ldrb	r0, [r2, r0, lsl #1]!
 800af78:	e5d22001 	ldrb	r2, [r2, #1]
 800af7c:	e7c30001 	strb	r0, [r3, r1]
 800af80:	e0830001 	add	r0, r3, r1
 800af84:	e5c02001 	strb	r2, [r0, #1]
 800af88:	ea000016 	b	0x800afe8
 800af8c:	e1a04001 	mov	r4, r1
 800af90:	e3540063 	cmp	r4, #99	@ 0x63
 800af94:	9afffff1 	bls	0x800af60
 800af98:	e004000a 	and	r0, r4, sl
 800af9c:	e24ee002 	sub	lr, lr, #2
 800afa0:	e1a00120 	lsr	r0, r0, #2
 800afa4:	e0010890 	mul	r1, r0, r8
 800afa8:	e1a008a1 	lsr	r0, r1, #17
 800afac:	e3a01064 	mov	r1, #100	@ 0x64
 800afb0:	e0020190 	mul	r2, r0, r1
 800afb4:	e0441002 	sub	r1, r4, r2
 800afb8:	e59f2054 	ldr	r2, [pc, #84]	@ 0x800b014
 800afbc:	e001100a 	and	r1, r1, sl
 800afc0:	e7f21081 	ldrb	r1, [r2, r1, lsl #1]!
 800afc4:	e5d22001 	ldrb	r2, [r2, #1]
 800afc8:	e7c3100e 	strb	r1, [r3, lr]
 800afcc:	e083100e 	add	r1, r3, lr
 800afd0:	e5c12001 	strb	r2, [r1, #1]
 800afd4:	e350000a 	cmp	r0, #10
 800afd8:	2affffe3 	bcs	0x800af6c
 800afdc:	e24e1001 	sub	r1, lr, #1
 800afe0:	e3800030 	orr	r0, r0, #48	@ 0x30
 800afe4:	e7c30001 	strb	r0, [r3, r1]
 800afe8:	e261000a 	rsb	r0, r1, #10
 800afec:	e0833001 	add	r3, r3, r1
 800aff0:	e3a01001 	mov	r1, #1
 800aff4:	e3a02000 	mov	r2, #0
 800aff8:	e58d0000 	str	r0, [sp]
 800affc:	e1a00007 	mov	r0, r7
 800b000:	ebfff041 	bl	0x800710c
 800b004:	e24bd01c 	sub	sp, fp, #28
 800b008:	e8bd4ff0 	pop	{r4, r5, r6, r7, r8, r9, sl, fp, lr}
 800b00c:	e12fff1e 	bx	lr
 800b010:	d1b71759 			@ <UNDEFINED> instruction: 0xd1b71759
 800b014:	082fda10 	stmdaeq	pc!, {r4, r9, fp, ip, lr, pc}	@ <UNPREDICTABLE>
 800b018:	05f5e0ff 	ldrbeq	lr, [r5, #255]!	@ 0xff
 800b01c:	e92d48f0 	push	{r4, r5, r6, r7, fp, lr}
 800b020:	e28db010 	add	fp, sp, #16
 800b024:	e1a07001 	mov	r7, r1
 800b028:	e3510008 	cmp	r1, #8
 800b02c:	2a000019 	bcs	0x800b098
 800b030:	e59010a0 	ldr	r1, [r0, #160]	@ 0xa0
 800b034:	e3510029 	cmp	r1, #41	@ 0x29
 800b038:	2a000080 	bcs	0x800b240
 800b03c:	e3510000 	cmp	r1, #0
 800b040:	0a000048 	beq	0x800b168
 800b044:	e59f2214 	ldr	r2, [pc, #532]	@ 0x800b260
 800b048:	e1a03101 	lsl	r3, r1, #2
 800b04c:	e3a04000 	mov	r4, #0
 800b050:	e1a05000 	mov	r5, r0
 800b054:	e7922107 	ldr	r2, [r2, r7, lsl #2]
 800b058:	e5957000 	ldr	r7, [r5]
 800b05c:	e3a06000 	mov	r6, #0
 800b060:	e2533004 	subs	r3, r3, #4
 800b064:	e0a64297 	umlal	r4, r6, r7, r2
 800b068:	e4854004 	str	r4, [r5], #4
 800b06c:	e1a04006 	mov	r4, r6
 800b070:	1afffff8 	bne	0x800b058
 800b074:	e3560000 	cmp	r6, #0
 800b078:	0a000003 	beq	0x800b08c
 800b07c:	e3510028 	cmp	r1, #40	@ 0x28
 800b080:	0a000072 	beq	0x800b250
 800b084:	e7806101 	str	r6, [r0, r1, lsl #2]
 800b088:	e2811001 	add	r1, r1, #1
 800b08c:	e58010a0 	str	r1, [r0, #160]	@ 0xa0
 800b090:	e8bd48f0 	pop	{r4, r5, r6, r7, fp, lr}
 800b094:	e12fff1e 	bx	lr
 800b098:	e2171007 	ands	r1, r7, #7
 800b09c:	0a000018 	beq	0x800b104
 800b0a0:	e590c0a0 	ldr	ip, [r0, #160]	@ 0xa0
 800b0a4:	e35c0029 	cmp	ip, #41	@ 0x29
 800b0a8:	2a000060 	bcs	0x800b230
 800b0ac:	e35c0000 	cmp	ip, #0
 800b0b0:	0a000030 	beq	0x800b178
 800b0b4:	e59f21a4 	ldr	r2, [pc, #420]	@ 0x800b260
 800b0b8:	e1a0310c 	lsl	r3, ip, #2
 800b0bc:	e3a04000 	mov	r4, #0
 800b0c0:	e1a05000 	mov	r5, r0
 800b0c4:	e7922101 	ldr	r2, [r2, r1, lsl #2]
 800b0c8:	e1a02132 	lsr	r2, r2, r1
 800b0cc:	e5956000 	ldr	r6, [r5]
 800b0d0:	e3a01000 	mov	r1, #0
 800b0d4:	e2533004 	subs	r3, r3, #4
 800b0d8:	e0a14296 	umlal	r4, r1, r6, r2
 800b0dc:	e4854004 	str	r4, [r5], #4
 800b0e0:	e1a04001 	mov	r4, r1
 800b0e4:	1afffff8 	bne	0x800b0cc
 800b0e8:	e3510000 	cmp	r1, #0
 800b0ec:	0a000003 	beq	0x800b100
 800b0f0:	e35c0028 	cmp	ip, #40	@ 0x28
 800b0f4:	0a000055 	beq	0x800b250
 800b0f8:	e780110c 	str	r1, [r0, ip, lsl #2]
 800b0fc:	e28cc001 	add	ip, ip, #1
 800b100:	e580c0a0 	str	ip, [r0, #160]	@ 0xa0
 800b104:	e3170008 	tst	r7, #8
 800b108:	0a000021 	beq	0x800b194
 800b10c:	e590c0a0 	ldr	ip, [r0, #160]	@ 0xa0
 800b110:	e35c0029 	cmp	ip, #41	@ 0x29
 800b114:	2a000045 	bcs	0x800b230
 800b118:	e35c0000 	cmp	ip, #0
 800b11c:	0a00001a 	beq	0x800b18c
 800b120:	e59f3140 	ldr	r3, [pc, #320]	@ 0x800b268
 800b124:	e1a0210c 	lsl	r2, ip, #2
 800b128:	e3a01000 	mov	r1, #0
 800b12c:	e1a05000 	mov	r5, r0
 800b130:	e5956000 	ldr	r6, [r5]
 800b134:	e3a04000 	mov	r4, #0
 800b138:	e2522004 	subs	r2, r2, #4
 800b13c:	e0a41396 	umlal	r1, r4, r6, r3
 800b140:	e4851004 	str	r1, [r5], #4
 800b144:	e1a01004 	mov	r1, r4
 800b148:	1afffff8 	bne	0x800b130
 800b14c:	e3540000 	cmp	r4, #0
 800b150:	0a00000e 	beq	0x800b190
 800b154:	e35c0028 	cmp	ip, #40	@ 0x28
 800b158:	0a00003c 	beq	0x800b250
 800b15c:	e780410c 	str	r4, [r0, ip, lsl #2]
 800b160:	e28cc001 	add	ip, ip, #1
 800b164:	ea000009 	b	0x800b190
 800b168:	e3a01000 	mov	r1, #0
 800b16c:	e58010a0 	str	r1, [r0, #160]	@ 0xa0
 800b170:	e8bd48f0 	pop	{r4, r5, r6, r7, fp, lr}
 800b174:	e12fff1e 	bx	lr
 800b178:	e3a0c000 	mov	ip, #0
 800b17c:	e580c0a0 	str	ip, [r0, #160]	@ 0xa0
 800b180:	e3170008 	tst	r7, #8
 800b184:	1affffe0 	bne	0x800b10c
 800b188:	ea000001 	b	0x800b194
 800b18c:	e3a0c000 	mov	ip, #0
 800b190:	e580c0a0 	str	ip, [r0, #160]	@ 0xa0
 800b194:	e3170010 	tst	r7, #16
 800b198:	1a00000a 	bne	0x800b1c8
 800b19c:	e3170020 	tst	r7, #32
 800b1a0:	1a00000d 	bne	0x800b1dc
 800b1a4:	e3170040 	tst	r7, #64	@ 0x40
 800b1a8:	1a000010 	bne	0x800b1f0
 800b1ac:	e3170080 	tst	r7, #128	@ 0x80
 800b1b0:	1a000013 	bne	0x800b204
 800b1b4:	e3170c01 	tst	r7, #256	@ 0x100
 800b1b8:	1a000016 	bne	0x800b218
 800b1bc:	e1a01007 	mov	r1, r7
 800b1c0:	e8bd48f0 	pop	{r4, r5, r6, r7, fp, lr}
 800b1c4:	eaffea73 	b	0x8005b98
 800b1c8:	e59f109c 	ldr	r1, [pc, #156]	@ 0x800b26c
 800b1cc:	e3a02002 	mov	r2, #2
 800b1d0:	ebffead5 	bl	0x8005d2c
 800b1d4:	e3170020 	tst	r7, #32
 800b1d8:	0afffff1 	beq	0x800b1a4
 800b1dc:	e59f108c 	ldr	r1, [pc, #140]	@ 0x800b270
 800b1e0:	e3a02003 	mov	r2, #3
 800b1e4:	ebffead0 	bl	0x8005d2c
 800b1e8:	e3170040 	tst	r7, #64	@ 0x40
 800b1ec:	0affffee 	beq	0x800b1ac
 800b1f0:	e59f107c 	ldr	r1, [pc, #124]	@ 0x800b274
 800b1f4:	e3a02005 	mov	r2, #5
 800b1f8:	ebffeacb 	bl	0x8005d2c
 800b1fc:	e3170080 	tst	r7, #128	@ 0x80
 800b200:	0affffeb 	beq	0x800b1b4
 800b204:	e59f106c 	ldr	r1, [pc, #108]	@ 0x800b278
 800b208:	e3a0200a 	mov	r2, #10
 800b20c:	ebffeac6 	bl	0x8005d2c
 800b210:	e3170c01 	tst	r7, #256	@ 0x100
 800b214:	0affffe8 	beq	0x800b1bc
 800b218:	e59f105c 	ldr	r1, [pc, #92]	@ 0x800b27c
 800b21c:	e3a02013 	mov	r2, #19
 800b220:	ebffeac1 	bl	0x8005d2c
 800b224:	e1a01007 	mov	r1, r7
 800b228:	e8bd48f0 	pop	{r4, r5, r6, r7, fp, lr}
 800b22c:	eaffea59 	b	0x8005b98
 800b230:	e59f202c 	ldr	r2, [pc, #44]	@ 0x800b264
 800b234:	e1a0000c 	mov	r0, ip
 800b238:	e3a01028 	mov	r1, #40	@ 0x28
 800b23c:	ebffea1d 	bl	0x8005ab8
 800b240:	e59f201c 	ldr	r2, [pc, #28]	@ 0x800b264
 800b244:	e1a00001 	mov	r0, r1
 800b248:	e3a01028 	mov	r1, #40	@ 0x28
 800b24c:	ebffea19 	bl	0x8005ab8
 800b250:	e59f200c 	ldr	r2, [pc, #12]	@ 0x800b264
 800b254:	e3a00028 	mov	r0, #40	@ 0x28
 800b258:	e3a01028 	mov	r1, #40	@ 0x28
 800b25c:	ebffedfa 	bl	0x8006a4c
 800b260:	082fdb90 	stmdaeq	pc!, {r4, r7, r8, r9, fp, ip, lr, pc}	@ <UNPREDICTABLE>
 800b264:	082fd7f0 	stmdaeq	pc!, {r4, r5, r6, r7, r8, r9, sl, ip, lr, pc}	@ <UNPREDICTABLE>
 800b268:	0005f5e1 	andeq	pc, r5, r1, ror #11
 800b26c:	082fdbb8 	stmdaeq	pc!, {r3, r4, r5, r7, r8, r9, fp, ip, lr, pc}	@ <UNPREDICTABLE>
 800b270:	082fdbc0 	stmdaeq	pc!, {r6, r7, r8, r9, fp, ip, lr, pc}	@ <UNPREDICTABLE>
 800b274:	082fdbcc 	stmdaeq	pc!, {r2, r3, r6, r7, r8, r9, fp, ip, lr, pc}	@ <UNPREDICTABLE>
 800b278:	082fdbe0 	stmdaeq	pc!, {r5, r6, r7, r8, r9, fp, ip, lr, pc}	@ <UNPREDICTABLE>
 800b27c:	082fdc08 	stmdaeq	pc!, {r3, sl, fp, ip, lr, pc}	@ <UNPREDICTABLE>
 800b280:	e92d4830 	push	{r4, r5, fp, lr}
 800b284:	e28db008 	add	fp, sp, #8
 800b288:	e3510000 	cmp	r1, #0
 800b28c:	0a00004c 	beq	0x800b3c4
 800b290:	e1a0c000 	mov	ip, r0
 800b294:	e5d00000 	ldrb	r0, [r0]
 800b298:	e3500030 	cmp	r0, #48	@ 0x30
 800b29c:	9a00004c 	bls	0x800b3d4
 800b2a0:	e59b0008 	ldr	r0, [fp, #8]
 800b2a4:	e1a05802 	lsl	r5, r2, #16
 800b2a8:	e3a04002 	mov	r4, #2
 800b2ac:	e1a0e845 	asr	lr, r5, #16
 800b2b0:	e35e0001 	cmp	lr, #1
 800b2b4:	e1c040b0 	strh	r4, [r0]
 800b2b8:	ba000016 	blt	0x800b318
 800b2bc:	e3a050ff 	mov	r5, #255	@ 0xff
 800b2c0:	e580c004 	str	ip, [r0, #4]
 800b2c4:	e3855cff 	orr	r5, r5, #65280	@ 0xff00
 800b2c8:	e0022005 	and	r2, r2, r5
 800b2cc:	e1520001 	cmp	r2, r1
 800b2d0:	2a000021 	bcs	0x800b35c
 800b2d4:	e59f4110 	ldr	r4, [pc, #272]	@ 0x800b3ec
 800b2d8:	e0411002 	sub	r1, r1, r2
 800b2dc:	e5802008 	str	r2, [r0, #8]
 800b2e0:	e08c2002 	add	r2, ip, r2
 800b2e4:	e3a05002 	mov	r5, #2
 800b2e8:	e3a0e001 	mov	lr, #1
 800b2ec:	e580201c 	str	r2, [r0, #28]
 800b2f0:	e3a02003 	mov	r2, #3
 800b2f4:	e1530001 	cmp	r3, r1
 800b2f8:	e1c051b8 	strh	r5, [r0, #24]
 800b2fc:	e580e014 	str	lr, [r0, #20]
 800b300:	e1c050bc 	strh	r5, [r0, #12]
 800b304:	e5801020 	str	r1, [r0, #32]
 800b308:	e5804010 	str	r4, [r0, #16]
 800b30c:	9a00000f 	bls	0x800b350
 800b310:	e0433001 	sub	r3, r3, r1
 800b314:	ea000023 	b	0x800b3a8
 800b318:	e59f20d0 	ldr	r2, [pc, #208]	@ 0x800b3f0
 800b31c:	e580c01c 	str	ip, [r0, #28]
 800b320:	e3a0c000 	mov	ip, #0
 800b324:	e1530001 	cmp	r3, r1
 800b328:	e5801020 	str	r1, [r0, #32]
 800b32c:	e1c041b8 	strh	r4, [r0, #24]
 800b330:	e04c5845 	sub	r5, ip, r5, asr #16
 800b334:	80431001 	subhi	r1, r3, r1
 800b338:	e1c0c0bc 	strh	ip, [r0, #12]
 800b33c:	81510005 	cmphi	r1, r5
 800b340:	e5805010 	str	r5, [r0, #16]
 800b344:	e9800014 	stmib	r0, {r2, r4}
 800b348:	e3a02003 	mov	r2, #3
 800b34c:	8a000014 	bhi	0x800b3a4
 800b350:	e1a01002 	mov	r1, r2
 800b354:	e8bd4830 	pop	{r4, r5, fp, lr}
 800b358:	e12fff1e 	bx	lr
 800b35c:	e3a05000 	mov	r5, #0
 800b360:	e5801008 	str	r1, [r0, #8]
 800b364:	e0421001 	sub	r1, r2, r1
 800b368:	e3530000 	cmp	r3, #0
 800b36c:	e1c050bc 	strh	r5, [r0, #12]
 800b370:	e5801010 	str	r1, [r0, #16]
 800b374:	0a000006 	beq	0x800b394
 800b378:	e59f206c 	ldr	r2, [pc, #108]	@ 0x800b3ec
 800b37c:	e3a01001 	mov	r1, #1
 800b380:	e5801020 	str	r1, [r0, #32]
 800b384:	e3a01002 	mov	r1, #2
 800b388:	e1c011b8 	strh	r1, [r0, #24]
 800b38c:	e580201c 	str	r2, [r0, #28]
 800b390:	ea000004 	b	0x800b3a8
 800b394:	e3a02002 	mov	r2, #2
 800b398:	e1a01002 	mov	r1, r2
 800b39c:	e8bd4830 	pop	{r4, r5, fp, lr}
 800b3a0:	e12fff1e 	bx	lr
 800b3a4:	e081300e 	add	r3, r1, lr
 800b3a8:	e3a01000 	mov	r1, #0
 800b3ac:	e3a02004 	mov	r2, #4
 800b3b0:	e5803028 	str	r3, [r0, #40]	@ 0x28
 800b3b4:	e1c012b4 	strh	r1, [r0, #36]	@ 0x24
 800b3b8:	e1a01002 	mov	r1, r2
 800b3bc:	e8bd4830 	pop	{r4, r5, fp, lr}
 800b3c0:	e12fff1e 	bx	lr
 800b3c4:	e59f0028 	ldr	r0, [pc, #40]	@ 0x800b3f4
 800b3c8:	e59f2028 	ldr	r2, [pc, #40]	@ 0x800b3f8
 800b3cc:	e3a01021 	mov	r1, #33	@ 0x21
 800b3d0:	ebffed88 	bl	0x80069f8
 800b3d4:	e59f0008 	ldr	r0, [pc, #8]	@ 0x800b3e4
 800b3d8:	e59f2008 	ldr	r2, [pc, #8]	@ 0x800b3e8
 800b3dc:	e3a0101f 	mov	r1, #31
 800b3e0:	ebffed84 	bl	0x80069f8
 800b3e4:	082fde6c 	stmdaeq	pc!, {r2, r3, r5, r6, r9, sl, fp, ip, lr, pc}	@ <UNPREDICTABLE>
 800b3e8:	082fde8c 	stmdaeq	pc!, {r2, r3, r7, r9, sl, fp, ip, lr, pc}	@ <UNPREDICTABLE>
 800b3ec:	082fde9c 	stmdaeq	pc!, {r2, r3, r4, r7, r9, sl, fp, ip, lr, pc}	@ <UNPREDICTABLE>
 800b3f0:	082fde9d 	stmdaeq	pc!, {r0, r2, r3, r4, r7, r9, sl, fp, ip, lr, pc}	@ <UNPREDICTABLE>
 800b3f4:	082fde3b 	stmdaeq	pc!, {r0, r1, r3, r4, r5, r9, sl, fp, ip, lr, pc}	@ <UNPREDICTABLE>
 800b3f8:	082fde5c 	stmdaeq	pc!, {r2, r3, r4, r6, r9, sl, fp, ip, lr, pc}	@ <UNPREDICTABLE>
 800b3fc:	e92d4800 	push	{fp, lr}
 800b400:	e1a0b00d 	mov	fp, sp
 800b404:	e24dd038 	sub	sp, sp, #56	@ 0x38
 800b408:	e88d000f 	stm	sp, {r0, r1, r2, r3}
 800b40c:	e3a00000 	mov	r0, #0
 800b410:	e59f1044 	ldr	r1, [pc, #68]	@ 0x800b45c
 800b414:	e58d0020 	str	r0, [sp, #32]
 800b418:	e3a00002 	mov	r0, #2
 800b41c:	e58d0014 	str	r0, [sp, #20]
 800b420:	e58d001c 	str	r0, [sp, #28]
 800b424:	e24b0010 	sub	r0, fp, #16
 800b428:	e58d0018 	str	r0, [sp, #24]
 800b42c:	e59f002c 	ldr	r0, [pc, #44]	@ 0x800b460
 800b430:	e58d1010 	str	r1, [sp, #16]
 800b434:	e59b1008 	ldr	r1, [fp, #8]
 800b438:	e50b0004 	str	r0, [fp, #-4]
 800b43c:	e28d0008 	add	r0, sp, #8
 800b440:	e50b0008 	str	r0, [fp, #-8]
 800b444:	e59f0018 	ldr	r0, [pc, #24]	@ 0x800b464
 800b448:	e50b000c 	str	r0, [fp, #-12]
 800b44c:	e1a0000d 	mov	r0, sp
 800b450:	e50b0010 	str	r0, [fp, #-16]
 800b454:	e28d0010 	add	r0, sp, #16
 800b458:	ebffebea 	bl	0x8006408
 800b45c:	082fdf0c 	stmdaeq	pc!, {r2, r3, r8, r9, sl, fp, ip, lr, pc}	@ <UNPREDICTABLE>
 800b460:	08006be0 	stmdaeq	r0, {r5, r6, r7, r8, r9, fp, sp, lr}
 800b464:	08006a3c 	stmdaeq	r0, {r2, r3, r4, r5, r9, fp, sp, lr}
 800b468:	e92d4ff0 	push	{r4, r5, r6, r7, r8, r9, sl, fp, lr}
 800b46c:	e28db01c 	add	fp, sp, #28
 800b470:	e5916000 	ldr	r6, [r1]
 800b474:	e59fc0c8 	ldr	ip, [pc, #200]	@ 0x800b544
 800b478:	e59fe0c8 	ldr	lr, [pc, #200]	@ 0x800b548
 800b47c:	e3a080f7 	mov	r8, #247	@ 0xf7
 800b480:	e3e09001 	mvn	r9, #1
 800b484:	e3888cff 	orr	r8, r8, #65280	@ 0xff00
 800b488:	e024ec96 	mla	r4, r6, ip, lr
 800b48c:	e00927c4 	and	r2, r9, r4, asr #15
 800b490:	e2045002 	and	r5, r4, #2
 800b494:	e027ec94 	mla	r7, r4, ip, lr
 800b498:	e0852002 	add	r2, r5, r2
 800b49c:	e00947c7 	and	r4, r9, r7, asr #15
 800b4a0:	e0c65292 	smull	r5, r6, r2, r2
 800b4a4:	e1a05825 	lsr	r5, r5, #16
 800b4a8:	e1856806 	orr	r6, r5, r6, lsl #16
 800b4ac:	e2075002 	and	r5, r7, #2
 800b4b0:	e0855004 	add	r5, r5, r4
 800b4b4:	e0c34595 	smull	r4, r3, r5, r5
 800b4b8:	e1a04824 	lsr	r4, r4, #16
 800b4bc:	e1843803 	orr	r3, r4, r3, lsl #16
 800b4c0:	e083a006 	add	sl, r3, r6
 800b4c4:	e026ec97 	mla	r6, r7, ip, lr
 800b4c8:	e00947c6 	and	r4, r9, r6, asr #15
 800b4cc:	e2067002 	and	r7, r6, #2
 800b4d0:	e0877004 	add	r7, r7, r4
 800b4d4:	e0c34797 	smull	r4, r3, r7, r7
 800b4d8:	e1a04824 	lsr	r4, r4, #16
 800b4dc:	e1843803 	orr	r3, r4, r3, lsl #16
 800b4e0:	e08a4003 	add	r4, sl, r3
 800b4e4:	e2443009 	sub	r3, r4, #9
 800b4e8:	e1530008 	cmp	r3, r8
 800b4ec:	8affffe5 	bhi	0x800b488
 800b4f0:	e5816000 	str	r6, [r1]
 800b4f4:	e59f1050 	ldr	r1, [pc, #80]	@ 0x800b54c
 800b4f8:	e3a03000 	mov	r3, #0
 800b4fc:	e5c03018 	strb	r3, [r0, #24]
 800b500:	e5803014 	str	r3, [r0, #20]
 800b504:	e5c03010 	strb	r3, [r0, #16]
 800b508:	e580300c 	str	r3, [r0, #12]
 800b50c:	e7911104 	ldr	r1, [r1, r4, lsl #2]
 800b510:	e1a01441 	asr	r1, r1, #8
 800b514:	e0c46791 	smull	r6, r4, r1, r7
 800b518:	e1a07826 	lsr	r7, r6, #16
 800b51c:	e1877804 	orr	r7, r7, r4, lsl #16
 800b520:	e0c46591 	smull	r6, r4, r1, r5
 800b524:	e1a06826 	lsr	r6, r6, #16
 800b528:	e1866804 	orr	r6, r6, r4, lsl #16
 800b52c:	e0c45291 	smull	r5, r4, r1, r2
 800b530:	e1a01825 	lsr	r1, r5, #16
 800b534:	e1811804 	orr	r1, r1, r4, lsl #16
 800b538:	e88000c2 	stm	r0, {r1, r6, r7}
 800b53c:	e8bd4ff0 	pop	{r4, r5, r6, r7, r8, r9, sl, fp, lr}
 800b540:	e12fff1e 	bx	lr
 800b544:	01010101 	tsteq	r1, r1, lsl #2
 800b548:	31415927 	cmpcc	r1, r7, lsr #18
 800b54c:	080136f4 	stmdaeq	r1, {r2, r4, r5, r6, r7, r9, sl, ip, sp}
 800b550:	e92d4ff0 	push	{r4, r5, r6, r7, r8, r9, sl, fp, lr}
 800b554:	e28db01c 	add	fp, sp, #28
 800b558:	e24dd034 	sub	sp, sp, #52	@ 0x34
 800b55c:	e1a09002 	mov	r9, r2
 800b560:	e59b2008 	ldr	r2, [fp, #8]
 800b564:	e352006c 	cmp	r2, #108	@ 0x6c
 800b568:	3a000286 	bcc	0x800bf88
 800b56c:	e59f7acc 	ldr	r7, [pc, #2764]	@ 0x800c040
 800b570:	e58d0008 	str	r0, [sp, #8]
 800b574:	e0890109 	add	r0, r9, r9, lsl #2
 800b578:	e58d1020 	str	r1, [sp, #32]
 800b57c:	e3a05001 	mov	r5, #1
 800b580:	e3a08008 	mov	r8, #8
 800b584:	e58d3004 	str	r3, [sp, #4]
 800b588:	e58d9010 	str	r9, [sp, #16]
 800b58c:	e0812100 	add	r2, r1, r0, lsl #2
 800b590:	e2811008 	add	r1, r1, #8
 800b594:	e1a00100 	lsl	r0, r0, #2
 800b598:	e58d101c 	str	r1, [sp, #28]
 800b59c:	e28d1024 	add	r1, sp, #36	@ 0x24
 800b5a0:	e58d200c 	str	r2, [sp, #12]
 800b5a4:	e58d0018 	str	r0, [sp, #24]
 800b5a8:	e3a00080 	mov	r0, #128	@ 0x80
 800b5ac:	e3550002 	cmp	r5, #2
 800b5b0:	e0800205 	add	r0, r0, r5, lsl #4
 800b5b4:	e00c0590 	mul	ip, r0, r5
 800b5b8:	e28c0040 	add	r0, ip, #64	@ 0x40
 800b5bc:	e58d0014 	str	r0, [sp, #20]
 800b5c0:	3a00000e 	bcc	0x800b600
 800b5c4:	e20500ff 	and	r0, r5, #255	@ 0xff
 800b5c8:	e3a03025 	mov	r3, #37	@ 0x25
 800b5cc:	e3e06018 	mvn	r6, #24
 800b5d0:	e0020390 	mul	r2, r0, r3
 800b5d4:	e0450422 	sub	r0, r5, r2, lsr #8
 800b5d8:	e20000ff 	and	r0, r0, #255	@ 0xff
 800b5dc:	e1a000a0 	lsr	r0, r0, #1
 800b5e0:	e0800422 	add	r0, r0, r2, lsr #8
 800b5e4:	e3a02002 	mov	r2, #2
 800b5e8:	e0822120 	add	r2, r2, r0, lsr #2
 800b5ec:	e1a00120 	lsr	r0, r0, #2
 800b5f0:	e0030690 	mul	r3, r0, r6
 800b5f4:	e2430028 	sub	r0, r3, #40	@ 0x28
 800b5f8:	e023c290 	mla	r3, r0, r2, ip
 800b5fc:	e2830077 	add	r0, r3, #119	@ 0x77
 800b600:	e3590000 	cmp	r9, #0
 800b604:	0a00004a 	beq	0x800b734
 800b608:	e59f3a34 	ldr	r3, [pc, #2612]	@ 0x800c044
 800b60c:	e0872005 	add	r2, r7, r5
 800b610:	e3a070f1 	mov	r7, #241	@ 0xf1
 800b614:	e3a06000 	mov	r6, #0
 800b618:	e1d222d9 	ldrsb	r2, [r2, #41]	@ 0x29
 800b61c:	e0833005 	add	r3, r3, r5
 800b620:	e1d332d9 	ldrsb	r3, [r3, #41]	@ 0x29
 800b624:	e0040293 	mul	r4, r3, r2
 800b628:	e0400184 	sub	r0, r0, r4, lsl #3
 800b62c:	e3c03007 	bic	r3, r0, #7
 800b630:	e2850007 	add	r0, r5, #7
 800b634:	e20000ff 	and	r0, r0, #255	@ 0xff
 800b638:	e0020790 	mul	r2, r0, r7
 800b63c:	e59d7018 	ldr	r7, [sp, #24]
 800b640:	e1a09622 	lsr	r9, r2, #12
 800b644:	e59d201c 	ldr	r2, [sp, #28]
 800b648:	e5d20008 	ldrb	r0, [r2, #8]
 800b64c:	e28f4000 	add	r4, pc, #0
 800b650:	e794f100 	ldr	pc, [r4, r0, lsl #2]
 800b654:	0800b668 	stmdaeq	r0, {r3, r5, r6, r9, sl, ip, sp, pc}
 800b658:	0800b6ac 	stmdaeq	r0, {r2, r3, r5, r7, r9, sl, ip, sp, pc}
 800b65c:	0800b68c 	stmdaeq	r0, {r2, r3, r7, r9, sl, ip, sp, pc}
 800b660:	0800b69c 	stmdaeq	r0, {r2, r3, r4, r7, r9, sl, ip, sp, pc}
 800b664:	0800b67c 	stmdaeq	r0, {r2, r3, r4, r5, r6, r9, sl, ip, sp, pc}
 800b668:	e3a0000a 	mov	r0, #10
 800b66c:	e3a0400e 	mov	r4, #14
 800b670:	e5cd0024 	strb	r0, [sp, #36]	@ 0x24
 800b674:	e3a0000c 	mov	r0, #12
 800b678:	ea00000f 	b	0x800b6bc
 800b67c:	e3a00000 	mov	r0, #0
 800b680:	e3a04000 	mov	r4, #0
 800b684:	e5cd0024 	strb	r0, [sp, #36]	@ 0x24
 800b688:	ea00000b 	b	0x800b6bc
 800b68c:	e5cd8024 	strb	r8, [sp, #36]	@ 0x24
 800b690:	e3a00010 	mov	r0, #16
 800b694:	e3a04010 	mov	r4, #16
 800b698:	ea000007 	b	0x800b6bc
 800b69c:	e5cd8024 	strb	r8, [sp, #36]	@ 0x24
 800b6a0:	e3a0400c 	mov	r4, #12
 800b6a4:	e3a0000a 	mov	r0, #10
 800b6a8:	ea000003 	b	0x800b6bc
 800b6ac:	e3a00009 	mov	r0, #9
 800b6b0:	e3a0400d 	mov	r4, #13
 800b6b4:	e5cd0024 	strb	r0, [sp, #36]	@ 0x24
 800b6b8:	e3a0000b 	mov	r0, #11
 800b6bc:	e5cd4026 	strb	r4, [sp, #38]	@ 0x26
 800b6c0:	e5cd0025 	strb	r0, [sp, #37]	@ 0x25
 800b6c4:	e7d10009 	ldrb	r0, [r1, r9]
 800b6c8:	e350001f 	cmp	r0, #31
 800b6cc:	8a000002 	bhi	0x800b6dc
 800b6d0:	e5924000 	ldr	r4, [r2]
 800b6d4:	e1b04034 	lsrs	r4, r4, r0
 800b6d8:	1a00000e 	bne	0x800b718
 800b6dc:	e2804004 	add	r4, r0, #4
 800b6e0:	e0960004 	adds	r0, r6, r4
 800b6e4:	3592a004 	ldrcc	sl, [r2, #4]
 800b6e8:	30844006 	addcc	r4, r4, r6
 800b6ec:	e3a00000 	mov	r0, #0
 800b6f0:	3094e00a 	addscc	lr, r4, sl
 800b6f4:	2a000008 	bcs	0x800b71c
 800b6f8:	e08a6004 	add	r6, sl, r4
 800b6fc:	e2577014 	subs	r7, r7, #20
 800b700:	e2822014 	add	r2, r2, #20
 800b704:	1affffcf 	bne	0x800b648
 800b708:	e3a00001 	mov	r0, #1
 800b70c:	e1560003 	cmp	r6, r3
 800b710:	8a000001 	bhi	0x800b71c
 800b714:	ea000217 	b	0x800bf78
 800b718:	e3a00000 	mov	r0, #0
 800b71c:	e3550006 	cmp	r5, #6
 800b720:	0a00002c 	beq	0x800b7d8
 800b724:	e59d9010 	ldr	r9, [sp, #16]
 800b728:	e59f7910 	ldr	r7, [pc, #2320]	@ 0x800c040
 800b72c:	e2855001 	add	r5, r5, #1
 800b730:	eaffff9c 	b	0x800b5a8
 800b734:	e3a06000 	mov	r6, #0
 800b738:	e3a0e001 	mov	lr, #1
 800b73c:	e20e00ff 	and	r0, lr, #255	@ 0xff
 800b740:	e3a01025 	mov	r1, #37	@ 0x25
 800b744:	e3a04002 	mov	r4, #2
 800b748:	e59f88f4 	ldr	r8, [pc, #2292]	@ 0x800c044
 800b74c:	e35e0006 	cmp	lr, #6
 800b750:	e0020190 	mul	r2, r0, r1
 800b754:	e04e0422 	sub	r0, lr, r2, lsr #8
 800b758:	e20000ff 	and	r0, r0, #255	@ 0xff
 800b75c:	e1a000a0 	lsr	r0, r0, #1
 800b760:	e0800422 	add	r0, r0, r2, lsr #8
 800b764:	e3e02018 	mvn	r2, #24
 800b768:	e0841120 	add	r1, r4, r0, lsr #2
 800b76c:	e1a00120 	lsr	r0, r0, #2
 800b770:	e0030290 	mul	r3, r0, r2
 800b774:	e2430028 	sub	r0, r3, #40	@ 0x28
 800b778:	e022c190 	mla	r2, r0, r1, ip
 800b77c:	e2820077 	add	r0, r2, #119	@ 0x77
 800b780:	82820053 	addhi	r0, r2, #83	@ 0x53
 800b784:	e3550001 	cmp	r5, #1
 800b788:	9a000018 	bls	0x800b7f0
 800b78c:	e35e0028 	cmp	lr, #40	@ 0x28
 800b790:	8a000215 	bhi	0x800bfec
 800b794:	e087100e 	add	r1, r7, lr
 800b798:	e088300e 	add	r3, r8, lr
 800b79c:	e1a0c007 	mov	ip, r7
 800b7a0:	e1d125d2 	ldrsb	r2, [r1, #82]	@ 0x52
 800b7a4:	e1d375d2 	ldrsb	r7, [r3, #82]	@ 0x52
 800b7a8:	e1d117db 	ldrsb	r1, [r1, #123]	@ 0x7b
 800b7ac:	e0050297 	mul	r5, r7, r2
 800b7b0:	e0402185 	sub	r2, r0, r5, lsl #3
 800b7b4:	e3c22007 	bic	r2, r2, #7
 800b7b8:	e1560002 	cmp	r6, r2
 800b7bc:	e1d327db 	ldrsb	r2, [r3, #123]	@ 0x7b
 800b7c0:	83a04001 	movhi	r4, #1
 800b7c4:	e0030192 	mul	r3, r2, r1
 800b7c8:	e0401183 	sub	r1, r0, r3, lsl #3
 800b7cc:	e1a03000 	mov	r3, r0
 800b7d0:	e3c11007 	bic	r1, r1, #7
 800b7d4:	ea000013 	b	0x800b828
 800b7d8:	e59d1008 	ldr	r1, [sp, #8]
 800b7dc:	e8810041 	stm	r1, {r0, r6}
 800b7e0:	e5813008 	str	r3, [r1, #8]
 800b7e4:	e24bd01c 	sub	sp, fp, #28
 800b7e8:	e8bd4ff0 	pop	{r4, r5, r6, r7, r8, r9, sl, fp, lr}
 800b7ec:	e12fff1e 	bx	lr
 800b7f0:	e087000e 	add	r0, r7, lr
 800b7f4:	e088200e 	add	r2, r8, lr
 800b7f8:	e1a0c007 	mov	ip, r7
 800b7fc:	e1d015d2 	ldrsb	r1, [r0, #82]	@ 0x52
 800b800:	e1d235d2 	ldrsb	r3, [r2, #82]	@ 0x52
 800b804:	e1d007db 	ldrsb	r0, [r0, #123]	@ 0x7b
 800b808:	e0070193 	mul	r7, r3, r1
 800b80c:	e59d3014 	ldr	r3, [sp, #20]
 800b810:	e0431187 	sub	r1, r3, r7, lsl #3
 800b814:	e1560001 	cmp	r6, r1
 800b818:	e1d217db 	ldrsb	r1, [r2, #123]	@ 0x7b
 800b81c:	83a04001 	movhi	r4, #1
 800b820:	e0020091 	mul	r2, r1, r0
 800b824:	e0431182 	sub	r1, r3, r2, lsl #3
 800b828:	e1560001 	cmp	r6, r1
 800b82c:	e3a00029 	mov	r0, #41	@ 0x29
 800b830:	93a04003 	movls	r4, #3
 800b834:	e0218094 	mla	r1, r4, r0, r8
 800b838:	e022c094 	mla	r2, r4, r0, ip
 800b83c:	e081100e 	add	r1, r1, lr
 800b840:	e082000e 	add	r0, r2, lr
 800b844:	e1d110d0 	ldrsb	r1, [r1]
 800b848:	e1d000d0 	ldrsb	r0, [r0]
 800b84c:	e0020190 	mul	r2, r0, r1
 800b850:	e59b1008 	ldr	r1, [fp, #8]
 800b854:	e06221a3 	rsb	r2, r2, r3, lsr #3
 800b858:	e3c2020e 	bic	r0, r2, #-536870912	@ 0xe0000000
 800b85c:	e1500001 	cmp	r0, r1
 800b860:	8a0001cc 	bhi	0x800bf98
 800b864:	e58d0028 	str	r0, [sp, #40]	@ 0x28
 800b868:	e59d0004 	ldr	r0, [sp, #4]
 800b86c:	e3a0c000 	mov	ip, #0
 800b870:	e3590000 	cmp	r9, #0
 800b874:	e58d2000 	str	r2, [sp]
 800b878:	e58d4014 	str	r4, [sp, #20]
 800b87c:	e58de018 	str	lr, [sp, #24]
 800b880:	e58dc02c 	str	ip, [sp, #44]	@ 0x2c
 800b884:	e58d0024 	str	r0, [sp, #36]	@ 0x24
 800b888:	0a00018b 	beq	0x800bebc
 800b88c:	e59d0018 	ldr	r0, [sp, #24]
 800b890:	e3a010f1 	mov	r1, #241	@ 0xf1
 800b894:	e2800007 	add	r0, r0, #7
 800b898:	e20000ff 	and	r0, r0, #255	@ 0xff
 800b89c:	e0020190 	mul	r2, r0, r1
 800b8a0:	e3500032 	cmp	r0, #50	@ 0x32
 800b8a4:	e1a01622 	lsr	r1, r2, #12
 800b8a8:	e58d101c 	str	r1, [sp, #28]
 800b8ac:	8a0001c2 	bhi	0x800bfbc
 800b8b0:	e59d9020 	ldr	r9, [sp, #32]
 800b8b4:	e3a0a001 	mov	sl, #1
 800b8b8:	e3a08007 	mov	r8, #7
 800b8bc:	ea000005 	b	0x800b8d8
 800b8c0:	e08cc006 	add	ip, ip, r6
 800b8c4:	e59d9020 	ldr	r9, [sp, #32]
 800b8c8:	e59d000c 	ldr	r0, [sp, #12]
 800b8cc:	e58dc02c 	str	ip, [sp, #44]	@ 0x2c
 800b8d0:	e1590000 	cmp	r9, r0
 800b8d4:	0a000178 	beq	0x800bebc
 800b8d8:	e5d90010 	ldrb	r0, [r9, #16]
 800b8dc:	e28f1008 	add	r1, pc, #8
 800b8e0:	e2892014 	add	r2, r9, #20
 800b8e4:	e58d2020 	str	r2, [sp, #32]
 800b8e8:	e791f100 	ldr	pc, [r1, r0, lsl #2]
 800b8ec:	0800b900 	stmdaeq	r0, {r8, fp, ip, sp, pc}
 800b8f0:	0800ba48 	stmdaeq	r0, {r3, r6, r9, fp, ip, sp, pc}
 800b8f4:	0800b9c8 	stmdaeq	r0, {r3, r6, r7, r8, fp, ip, sp, pc}
 800b8f8:	0800ba14 	stmdaeq	r0, {r2, r4, r9, fp, ip, sp, pc}
 800b8fc:	0800b97c 	stmdaeq	r0, {r2, r3, r4, r5, r6, r8, fp, ip, sp, pc}
 800b900:	e37c0005 	cmn	ip, #5
 800b904:	8a000197 	bhi	0x800bf68
 800b908:	e59d2024 	ldr	r2, [sp, #36]	@ 0x24
 800b90c:	e59d1028 	ldr	r1, [sp, #40]	@ 0x28
 800b910:	e1a001ac 	lsr	r0, ip, #3
 800b914:	e31c0007 	tst	ip, #7
 800b918:	0a0000a9 	beq	0x800bbc4
 800b91c:	e1500001 	cmp	r0, r1
 800b920:	2a0001a1 	bcs	0x800bfac
 800b924:	e28c3001 	add	r3, ip, #1
 800b928:	e1a001a3 	lsr	r0, r3, #3
 800b92c:	e3130007 	tst	r3, #7
 800b930:	0a0000ab 	beq	0x800bbe4
 800b934:	e1500001 	cmp	r0, r1
 800b938:	2a00019b 	bcs	0x800bfac
 800b93c:	e28c3002 	add	r3, ip, #2
 800b940:	e1a001a3 	lsr	r0, r3, #3
 800b944:	e3130007 	tst	r3, #7
 800b948:	0a0000ad 	beq	0x800bc04
 800b94c:	e1500001 	cmp	r0, r1
 800b950:	2a000195 	bcs	0x800bfac
 800b954:	e28c0003 	add	r0, ip, #3
 800b958:	e2103007 	ands	r3, r0, #7
 800b95c:	e1a001a0 	lsr	r0, r0, #3
 800b960:	0a0000af 	beq	0x800bc24
 800b964:	e1500001 	cmp	r0, r1
 800b968:	2a00018f 	bcs	0x800bfac
 800b96c:	e7d21000 	ldrb	r1, [r2, r0]
 800b970:	e2233007 	eor	r3, r3, #7
 800b974:	e181131a 	orr	r1, r1, sl, lsl r3
 800b978:	ea0000ac 	b	0x800bc30
 800b97c:	e37c0005 	cmn	ip, #5
 800b980:	8a000178 	bhi	0x800bf68
 800b984:	e59d2024 	ldr	r2, [sp, #36]	@ 0x24
 800b988:	e59d1028 	ldr	r1, [sp, #40]	@ 0x28
 800b98c:	e1a001ac 	lsr	r0, ip, #3
 800b990:	e31c0007 	tst	ip, #7
 800b994:	0a000044 	beq	0x800baac
 800b998:	e1500001 	cmp	r0, r1
 800b99c:	2a000182 	bcs	0x800bfac
 800b9a0:	e28c0001 	add	r0, ip, #1
 800b9a4:	e2103007 	ands	r3, r0, #7
 800b9a8:	e1a001a0 	lsr	r0, r0, #3
 800b9ac:	0a000046 	beq	0x800bacc
 800b9b0:	e1500001 	cmp	r0, r1
 800b9b4:	2a00017c 	bcs	0x800bfac
 800b9b8:	e7d27000 	ldrb	r7, [r2, r0]
 800b9bc:	e2233007 	eor	r3, r3, #7
 800b9c0:	e187331a 	orr	r3, r7, sl, lsl r3
 800b9c4:	ea000043 	b	0x800bad8
 800b9c8:	e37c0005 	cmn	ip, #5
 800b9cc:	8a000165 	bhi	0x800bf68
 800b9d0:	e59d2024 	ldr	r2, [sp, #36]	@ 0x24
 800b9d4:	e59d1028 	ldr	r1, [sp, #40]	@ 0x28
 800b9d8:	e1a001ac 	lsr	r0, ip, #3
 800b9dc:	e31c0007 	tst	ip, #7
 800b9e0:	0a000047 	beq	0x800bb04
 800b9e4:	e1500001 	cmp	r0, r1
 800b9e8:	2a00016f 	bcs	0x800bfac
 800b9ec:	e28c0001 	add	r0, ip, #1
 800b9f0:	e2103007 	ands	r3, r0, #7
 800b9f4:	e1a001a0 	lsr	r0, r0, #3
 800b9f8:	0a000049 	beq	0x800bb24
 800b9fc:	e1500001 	cmp	r0, r1
 800ba00:	2a000169 	bcs	0x800bfac
 800ba04:	e7d27000 	ldrb	r7, [r2, r0]
 800ba08:	e2233007 	eor	r3, r3, #7
 800ba0c:	e187331a 	orr	r3, r7, sl, lsl r3
 800ba10:	ea000046 	b	0x800bb30
 800ba14:	e37c0005 	cmn	ip, #5
 800ba18:	8a000152 	bhi	0x800bf68
 800ba1c:	e59d2024 	ldr	r2, [sp, #36]	@ 0x24
 800ba20:	e59d1028 	ldr	r1, [sp, #40]	@ 0x28
 800ba24:	e21c3007 	ands	r3, ip, #7
 800ba28:	e1a001ac 	lsr	r0, ip, #3
 800ba2c:	0a00004d 	beq	0x800bb68
 800ba30:	e1500001 	cmp	r0, r1
 800ba34:	2a00015c 	bcs	0x800bfac
 800ba38:	e7d27000 	ldrb	r7, [r2, r0]
 800ba3c:	e2233007 	eor	r3, r3, #7
 800ba40:	e187331a 	orr	r3, r7, sl, lsl r3
 800ba44:	ea00004a 	b	0x800bb74
 800ba48:	e37c0005 	cmn	ip, #5
 800ba4c:	8a000145 	bhi	0x800bf68
 800ba50:	e59d2024 	ldr	r2, [sp, #36]	@ 0x24
 800ba54:	e59d1028 	ldr	r1, [sp, #40]	@ 0x28
 800ba58:	e1a001ac 	lsr	r0, ip, #3
 800ba5c:	e31c0007 	tst	ip, #7
 800ba60:	0a00007b 	beq	0x800bc54
 800ba64:	e1500001 	cmp	r0, r1
 800ba68:	2a00014f 	bcs	0x800bfac
 800ba6c:	e28c3001 	add	r3, ip, #1
 800ba70:	e1a001a3 	lsr	r0, r3, #3
 800ba74:	e3130007 	tst	r3, #7
 800ba78:	0a00007d 	beq	0x800bc74
 800ba7c:	e1500001 	cmp	r0, r1
 800ba80:	2a000149 	bcs	0x800bfac
 800ba84:	e28c0002 	add	r0, ip, #2
 800ba88:	e2103007 	ands	r3, r0, #7
 800ba8c:	e1a001a0 	lsr	r0, r0, #3
 800ba90:	0a00007f 	beq	0x800bc94
 800ba94:	e1500001 	cmp	r0, r1
 800ba98:	2a000143 	bcs	0x800bfac
 800ba9c:	e7d27000 	ldrb	r7, [r2, r0]
 800baa0:	e2233007 	eor	r3, r3, #7
 800baa4:	e187331a 	orr	r3, r7, sl, lsl r3
 800baa8:	ea00007c 	b	0x800bca0
 800baac:	e1500001 	cmp	r0, r1
 800bab0:	2a00013f 	bcs	0x800bfb4
 800bab4:	e3a03000 	mov	r3, #0
 800bab8:	e7c23000 	strb	r3, [r2, r0]
 800babc:	e28c0001 	add	r0, ip, #1
 800bac0:	e2103007 	ands	r3, r0, #7
 800bac4:	e1a001a0 	lsr	r0, r0, #3
 800bac8:	1affffb8 	bne	0x800b9b0
 800bacc:	e1500001 	cmp	r0, r1
 800bad0:	2a000137 	bcs	0x800bfb4
 800bad4:	e3a03080 	mov	r3, #128	@ 0x80
 800bad8:	e7c23000 	strb	r3, [r2, r0]
 800badc:	e28c0002 	add	r0, ip, #2
 800bae0:	e2103007 	ands	r3, r0, #7
 800bae4:	e1a001a0 	lsr	r0, r0, #3
 800bae8:	0a000090 	beq	0x800bd30
 800baec:	e1500001 	cmp	r0, r1
 800baf0:	2a00012d 	bcs	0x800bfac
 800baf4:	e7d27000 	ldrb	r7, [r2, r0]
 800baf8:	e2233007 	eor	r3, r3, #7
 800bafc:	e187331a 	orr	r3, r7, sl, lsl r3
 800bb00:	ea00008d 	b	0x800bd3c
 800bb04:	e1500001 	cmp	r0, r1
 800bb08:	2a000129 	bcs	0x800bfb4
 800bb0c:	e3a03000 	mov	r3, #0
 800bb10:	e7c23000 	strb	r3, [r2, r0]
 800bb14:	e28c0001 	add	r0, ip, #1
 800bb18:	e2103007 	ands	r3, r0, #7
 800bb1c:	e1a001a0 	lsr	r0, r0, #3
 800bb20:	1affffb5 	bne	0x800b9fc
 800bb24:	e1500001 	cmp	r0, r1
 800bb28:	2a000121 	bcs	0x800bfb4
 800bb2c:	e3a03080 	mov	r3, #128	@ 0x80
 800bb30:	e7c23000 	strb	r3, [r2, r0]
 800bb34:	e28c3002 	add	r3, ip, #2
 800bb38:	e1a001a3 	lsr	r0, r3, #3
 800bb3c:	e3130007 	tst	r3, #7
 800bb40:	0a000088 	beq	0x800bd68
 800bb44:	e1500001 	cmp	r0, r1
 800bb48:	2a000117 	bcs	0x800bfac
 800bb4c:	e28c3003 	add	r3, ip, #3
 800bb50:	e1a001a3 	lsr	r0, r3, #3
 800bb54:	e3130007 	tst	r3, #7
 800bb58:	0a00008a 	beq	0x800bd88
 800bb5c:	e1500001 	cmp	r0, r1
 800bb60:	3a00008c 	bcc	0x800bd98
 800bb64:	ea000110 	b	0x800bfac
 800bb68:	e1500001 	cmp	r0, r1
 800bb6c:	2a000110 	bcs	0x800bfb4
 800bb70:	e3a03080 	mov	r3, #128	@ 0x80
 800bb74:	e7c23000 	strb	r3, [r2, r0]
 800bb78:	e28c3001 	add	r3, ip, #1
 800bb7c:	e1a001a3 	lsr	r0, r3, #3
 800bb80:	e3130007 	tst	r3, #7
 800bb84:	0a00004d 	beq	0x800bcc0
 800bb88:	e1500001 	cmp	r0, r1
 800bb8c:	2a000106 	bcs	0x800bfac
 800bb90:	e28c3002 	add	r3, ip, #2
 800bb94:	e1a001a3 	lsr	r0, r3, #3
 800bb98:	e3130007 	tst	r3, #7
 800bb9c:	0a00004f 	beq	0x800bce0
 800bba0:	e1500001 	cmp	r0, r1
 800bba4:	2a000100 	bcs	0x800bfac
 800bba8:	e28c3003 	add	r3, ip, #3
 800bbac:	e1a001a3 	lsr	r0, r3, #3
 800bbb0:	e3130007 	tst	r3, #7
 800bbb4:	0a000051 	beq	0x800bd00
 800bbb8:	e1500001 	cmp	r0, r1
 800bbbc:	3a000053 	bcc	0x800bd10
 800bbc0:	ea0000f9 	b	0x800bfac
 800bbc4:	e1500001 	cmp	r0, r1
 800bbc8:	2a0000f9 	bcs	0x800bfb4
 800bbcc:	e3a03000 	mov	r3, #0
 800bbd0:	e7c23000 	strb	r3, [r2, r0]
 800bbd4:	e28c3001 	add	r3, ip, #1
 800bbd8:	e1a001a3 	lsr	r0, r3, #3
 800bbdc:	e3130007 	tst	r3, #7
 800bbe0:	1affff53 	bne	0x800b934
 800bbe4:	e1500001 	cmp	r0, r1
 800bbe8:	2a0000f1 	bcs	0x800bfb4
 800bbec:	e3a03000 	mov	r3, #0
 800bbf0:	e7c23000 	strb	r3, [r2, r0]
 800bbf4:	e28c3002 	add	r3, ip, #2
 800bbf8:	e1a001a3 	lsr	r0, r3, #3
 800bbfc:	e3130007 	tst	r3, #7
 800bc00:	1affff51 	bne	0x800b94c
 800bc04:	e1500001 	cmp	r0, r1
 800bc08:	2a0000e9 	bcs	0x800bfb4
 800bc0c:	e3a03000 	mov	r3, #0
 800bc10:	e7c23000 	strb	r3, [r2, r0]
 800bc14:	e28c0003 	add	r0, ip, #3
 800bc18:	e2103007 	ands	r3, r0, #7
 800bc1c:	e1a001a0 	lsr	r0, r0, #3
 800bc20:	1affff4f 	bne	0x800b964
 800bc24:	e1500001 	cmp	r0, r1
 800bc28:	2a0000e1 	bcs	0x800bfb4
 800bc2c:	e3a01080 	mov	r1, #128	@ 0x80
 800bc30:	e7c21000 	strb	r1, [r2, r0]
 800bc34:	e28c0004 	add	r0, ip, #4
 800bc38:	e3a0200e 	mov	r2, #14
 800bc3c:	e5991008 	ldr	r1, [r9, #8]
 800bc40:	e58d002c 	str	r0, [sp, #44]	@ 0x2c
 800bc44:	e3a0000a 	mov	r0, #10
 800bc48:	e54b001f 	strb	r0, [fp, #-31]	@ 0xffffffe1
 800bc4c:	e3a0000c 	mov	r0, #12
 800bc50:	ea00006e 	b	0x800be10
 800bc54:	e1500001 	cmp	r0, r1
 800bc58:	2a0000d5 	bcs	0x800bfb4
 800bc5c:	e3a03000 	mov	r3, #0
 800bc60:	e7c23000 	strb	r3, [r2, r0]
 800bc64:	e28c3001 	add	r3, ip, #1
 800bc68:	e1a001a3 	lsr	r0, r3, #3
 800bc6c:	e3130007 	tst	r3, #7
 800bc70:	1affff81 	bne	0x800ba7c
 800bc74:	e1500001 	cmp	r0, r1
 800bc78:	2a0000cd 	bcs	0x800bfb4
 800bc7c:	e3a03000 	mov	r3, #0
 800bc80:	e7c23000 	strb	r3, [r2, r0]
 800bc84:	e28c0002 	add	r0, ip, #2
 800bc88:	e2103007 	ands	r3, r0, #7
 800bc8c:	e1a001a0 	lsr	r0, r0, #3
 800bc90:	1affff7f 	bne	0x800ba94
 800bc94:	e1500001 	cmp	r0, r1
 800bc98:	2a0000c5 	bcs	0x800bfb4
 800bc9c:	e3a03080 	mov	r3, #128	@ 0x80
 800bca0:	e7c23000 	strb	r3, [r2, r0]
 800bca4:	e28c3003 	add	r3, ip, #3
 800bca8:	e1a001a3 	lsr	r0, r3, #3
 800bcac:	e3130007 	tst	r3, #7
 800bcb0:	0a00004b 	beq	0x800bde4
 800bcb4:	e1500001 	cmp	r0, r1
 800bcb8:	3a00004d 	bcc	0x800bdf4
 800bcbc:	ea0000ba 	b	0x800bfac
 800bcc0:	e1500001 	cmp	r0, r1
 800bcc4:	2a0000ba 	bcs	0x800bfb4
 800bcc8:	e3a03000 	mov	r3, #0
 800bccc:	e7c23000 	strb	r3, [r2, r0]
 800bcd0:	e28c3002 	add	r3, ip, #2
 800bcd4:	e1a001a3 	lsr	r0, r3, #3
 800bcd8:	e3130007 	tst	r3, #7
 800bcdc:	1affffaf 	bne	0x800bba0
 800bce0:	e1500001 	cmp	r0, r1
 800bce4:	2a0000b2 	bcs	0x800bfb4
 800bce8:	e3a03000 	mov	r3, #0
 800bcec:	e7c23000 	strb	r3, [r2, r0]
 800bcf0:	e28c3003 	add	r3, ip, #3
 800bcf4:	e1a001a3 	lsr	r0, r3, #3
 800bcf8:	e3130007 	tst	r3, #7
 800bcfc:	1affffad 	bne	0x800bbb8
 800bd00:	e1500001 	cmp	r0, r1
 800bd04:	2a0000aa 	bcs	0x800bfb4
 800bd08:	e3a01000 	mov	r1, #0
 800bd0c:	e7c21000 	strb	r1, [r2, r0]
 800bd10:	e5991008 	ldr	r1, [r9, #8]
 800bd14:	e28c0004 	add	r0, ip, #4
 800bd18:	e3a0200c 	mov	r2, #12
 800bd1c:	e58d002c 	str	r0, [sp, #44]	@ 0x2c
 800bd20:	e3a00008 	mov	r0, #8
 800bd24:	e54b001f 	strb	r0, [fp, #-31]	@ 0xffffffe1
 800bd28:	e3a0000a 	mov	r0, #10
 800bd2c:	ea000037 	b	0x800be10
 800bd30:	e1500001 	cmp	r0, r1
 800bd34:	2a00009e 	bcs	0x800bfb4
 800bd38:	e3a03080 	mov	r3, #128	@ 0x80
 800bd3c:	e7c23000 	strb	r3, [r2, r0]
 800bd40:	e28c0003 	add	r0, ip, #3
 800bd44:	e2103007 	ands	r3, r0, #7
 800bd48:	e1a001a0 	lsr	r0, r0, #3
 800bd4c:	0a000019 	beq	0x800bdb8
 800bd50:	e1500001 	cmp	r0, r1
 800bd54:	2a000094 	bcs	0x800bfac
 800bd58:	e7d21000 	ldrb	r1, [r2, r0]
 800bd5c:	e2233007 	eor	r3, r3, #7
 800bd60:	e181131a 	orr	r1, r1, sl, lsl r3
 800bd64:	ea000016 	b	0x800bdc4
 800bd68:	e1500001 	cmp	r0, r1
 800bd6c:	2a000090 	bcs	0x800bfb4
 800bd70:	e3a03000 	mov	r3, #0
 800bd74:	e7c23000 	strb	r3, [r2, r0]
 800bd78:	e28c3003 	add	r3, ip, #3
 800bd7c:	e1a001a3 	lsr	r0, r3, #3
 800bd80:	e3130007 	tst	r3, #7
 800bd84:	1affff74 	bne	0x800bb5c
 800bd88:	e1500001 	cmp	r0, r1
 800bd8c:	2a000088 	bcs	0x800bfb4
 800bd90:	e3a01000 	mov	r1, #0
 800bd94:	e7c21000 	strb	r1, [r2, r0]
 800bd98:	e5991008 	ldr	r1, [r9, #8]
 800bd9c:	e28c0004 	add	r0, ip, #4
 800bda0:	e3a02010 	mov	r2, #16
 800bda4:	e58d002c 	str	r0, [sp, #44]	@ 0x2c
 800bda8:	e3a00008 	mov	r0, #8
 800bdac:	e54b001f 	strb	r0, [fp, #-31]	@ 0xffffffe1
 800bdb0:	e3a00010 	mov	r0, #16
 800bdb4:	ea000015 	b	0x800be10
 800bdb8:	e1500001 	cmp	r0, r1
 800bdbc:	2a00007c 	bcs	0x800bfb4
 800bdc0:	e3a01080 	mov	r1, #128	@ 0x80
 800bdc4:	e7c21000 	strb	r1, [r2, r0]
 800bdc8:	e28c0004 	add	r0, ip, #4
 800bdcc:	e3a02000 	mov	r2, #0
 800bdd0:	e5991008 	ldr	r1, [r9, #8]
 800bdd4:	e58d002c 	str	r0, [sp, #44]	@ 0x2c
 800bdd8:	e3a00000 	mov	r0, #0
 800bddc:	e54b001f 	strb	r0, [fp, #-31]	@ 0xffffffe1
 800bde0:	ea00000a 	b	0x800be10
 800bde4:	e1500001 	cmp	r0, r1
 800bde8:	2a000071 	bcs	0x800bfb4
 800bdec:	e3a01000 	mov	r1, #0
 800bdf0:	e7c21000 	strb	r1, [r2, r0]
 800bdf4:	e5991008 	ldr	r1, [r9, #8]
 800bdf8:	e28c0004 	add	r0, ip, #4
 800bdfc:	e3a0200d 	mov	r2, #13
 800be00:	e58d002c 	str	r0, [sp, #44]	@ 0x2c
 800be04:	e3a00009 	mov	r0, #9
 800be08:	e54b001f 	strb	r0, [fp, #-31]	@ 0xffffffe1
 800be0c:	e3a0000b 	mov	r0, #11
 800be10:	e54b001e 	strb	r0, [fp, #-30]	@ 0xffffffe2
 800be14:	e59d001c 	ldr	r0, [sp, #28]
 800be18:	e54b201d 	strb	r2, [fp, #-29]	@ 0xffffffe3
 800be1c:	e24b201f 	sub	r2, fp, #31
 800be20:	e7d22000 	ldrb	r2, [r2, r0]
 800be24:	e28d0024 	add	r0, sp, #36	@ 0x24
 800be28:	eb000893 	bl	0x800e07c
 800be2c:	e599200c 	ldr	r2, [r9, #12]
 800be30:	e59dc02c 	ldr	ip, [sp, #44]	@ 0x2c
 800be34:	e3520000 	cmp	r2, #0
 800be38:	0afffea1 	beq	0x800b8c4
 800be3c:	e599e004 	ldr	lr, [r9, #4]
 800be40:	e59d7024 	ldr	r7, [sp, #36]	@ 0x24
 800be44:	e59d1028 	ldr	r1, [sp, #40]	@ 0x28
 800be48:	e3a06000 	mov	r6, #0
 800be4c:	ea000003 	b	0x800be60
 800be50:	e2866001 	add	r6, r6, #1
 800be54:	e7c73000 	strb	r3, [r7, r0]
 800be58:	e1520006 	cmp	r2, r6
 800be5c:	0afffe97 	beq	0x800b8c0
 800be60:	e1a001a6 	lsr	r0, r6, #3
 800be64:	e15e01a6 	cmp	lr, r6, lsr #3
 800be68:	9a00004c 	bls	0x800bfa0
 800be6c:	e08c4006 	add	r4, ip, r6
 800be70:	e3740001 	cmn	r4, #1
 800be74:	0a00003b 	beq	0x800bf68
 800be78:	e5995000 	ldr	r5, [r9]
 800be7c:	e1c83006 	bic	r3, r8, r6
 800be80:	e7d50000 	ldrb	r0, [r5, r0]
 800be84:	e00a5330 	and	r5, sl, r0, lsr r3
 800be88:	e2143007 	ands	r3, r4, #7
 800be8c:	e1a001a4 	lsr	r0, r4, #3
 800be90:	0a000005 	beq	0x800beac
 800be94:	e1500001 	cmp	r0, r1
 800be98:	2a000043 	bcs	0x800bfac
 800be9c:	e7d74000 	ldrb	r4, [r7, r0]
 800bea0:	e2233007 	eor	r3, r3, #7
 800bea4:	e1843315 	orr	r3, r4, r5, lsl r3
 800bea8:	eaffffe8 	b	0x800be50
 800beac:	e1500001 	cmp	r0, r1
 800beb0:	2a00003f 	bcs	0x800bfb4
 800beb4:	e1a03385 	lsl	r3, r5, #7
 800beb8:	eaffffe4 	b	0x800be50
 800bebc:	e59d0000 	ldr	r0, [sp]
 800bec0:	e28d4024 	add	r4, sp, #36	@ 0x24
 800bec4:	e3a01000 	mov	r1, #0
 800bec8:	e1a05180 	lsl	r5, r0, #3
 800becc:	e1a00004 	mov	r0, r4
 800bed0:	e045200c 	sub	r2, r5, ip
 800bed4:	e3520004 	cmp	r2, #4
 800bed8:	23a02004 	movcs	r2, #4
 800bedc:	eb000866 	bl	0x800e07c
 800bee0:	e5dd002c 	ldrb	r0, [sp, #44]	@ 0x2c
 800bee4:	e3a01000 	mov	r1, #0
 800bee8:	e2600000 	rsb	r0, r0, #0
 800beec:	e2002007 	and	r2, r0, #7
 800bef0:	e1a00004 	mov	r0, r4
 800bef4:	eb000860 	bl	0x800e07c
 800bef8:	e59d002c 	ldr	r0, [sp, #44]	@ 0x2c
 800befc:	e1500005 	cmp	r0, r5
 800bf00:	2a00000c 	bcs	0x800bf38
 800bf04:	e59f4158 	ldr	r4, [pc, #344]	@ 0x800c064
 800bf08:	e28d8024 	add	r8, sp, #36	@ 0x24
 800bf0c:	e2847008 	add	r7, r4, #8
 800bf10:	e1a06004 	mov	r6, r4
 800bf14:	e1560007 	cmp	r6, r7
 800bf18:	e1a00008 	mov	r0, r8
 800bf1c:	e3a02008 	mov	r2, #8
 800bf20:	01a06004 	moveq	r6, r4
 800bf24:	e4961004 	ldr	r1, [r6], #4
 800bf28:	eb000853 	bl	0x800e07c
 800bf2c:	e59d002c 	ldr	r0, [sp, #44]	@ 0x2c
 800bf30:	e1500005 	cmp	r0, r5
 800bf34:	3afffff6 	bcc	0x800bf14
 800bf38:	e59d2008 	ldr	r2, [sp, #8]
 800bf3c:	e59d1018 	ldr	r1, [sp, #24]
 800bf40:	e1a001a0 	lsr	r0, r0, #3
 800bf44:	e5c21009 	strb	r1, [r2, #9]
 800bf48:	e59d1014 	ldr	r1, [sp, #20]
 800bf4c:	e5820004 	str	r0, [r2, #4]
 800bf50:	e5c21008 	strb	r1, [r2, #8]
 800bf54:	e3a01002 	mov	r1, #2
 800bf58:	e5821000 	str	r1, [r2]
 800bf5c:	e24bd01c 	sub	sp, fp, #28
 800bf60:	e8bd4ff0 	pop	{r4, r5, r6, r7, r8, r9, sl, fp, lr}
 800bf64:	e12fff1e 	bx	lr
 800bf68:	e59f00e8 	ldr	r0, [pc, #232]	@ 0x800c058
 800bf6c:	e59f20e8 	ldr	r2, [pc, #232]	@ 0x800c05c
 800bf70:	e3a0103e 	mov	r1, #62	@ 0x3e
 800bf74:	ebffea9f 	bl	0x80069f8
 800bf78:	e59d9010 	ldr	r9, [sp, #16]
 800bf7c:	e59f70bc 	ldr	r7, [pc, #188]	@ 0x800c040
 800bf80:	e1a0e005 	mov	lr, r5
 800bf84:	eafffdec 	b	0x800b73c
 800bf88:	e59f00dc 	ldr	r0, [pc, #220]	@ 0x800c06c
 800bf8c:	e59f20dc 	ldr	r2, [pc, #220]	@ 0x800c070
 800bf90:	e3a01015 	mov	r1, #21
 800bf94:	ebffea97 	bl	0x80069f8
 800bf98:	e59f20c8 	ldr	r2, [pc, #200]	@ 0x800c068
 800bf9c:	ebffe6c5 	bl	0x8005ab8
 800bfa0:	e59f20b8 	ldr	r2, [pc, #184]	@ 0x800c060
 800bfa4:	e1a0100e 	mov	r1, lr
 800bfa8:	ebffeaa7 	bl	0x8006a4c
 800bfac:	e59f209c 	ldr	r2, [pc, #156]	@ 0x800c050
 800bfb0:	ebffeaa5 	bl	0x8006a4c
 800bfb4:	e59f2098 	ldr	r2, [pc, #152]	@ 0x800c054
 800bfb8:	ebffeaa3 	bl	0x8006a4c
 800bfbc:	e59d0020 	ldr	r0, [sp, #32]
 800bfc0:	e5d00010 	ldrb	r0, [r0, #16]
 800bfc4:	e28f1000 	add	r1, pc, #0
 800bfc8:	e791f100 	ldr	pc, [r1, r0, lsl #2]
 800bfcc:	0800bfe0 	stmdaeq	r0, {r5, r6, r7, r8, r9, sl, fp, ip, sp, pc}
 800bfd0:	0800bffc 	stmdaeq	r0, {r2, r3, r4, r5, r6, r7, r8, r9, sl, fp, ip, sp, pc}
 800bfd4:	0800c008 	stmdaeq	r0, {r3, lr, pc}
 800bfd8:	0800c014 	stmdaeq	r0, {r2, r4, lr, pc}
 800bfdc:	0800c020 	stmdaeq	r0, {r5, lr, pc}
 800bfe0:	e28d0024 	add	r0, sp, #36	@ 0x24
 800bfe4:	e3a01001 	mov	r1, #1
 800bfe8:	ea00000e 	b	0x800c028
 800bfec:	e59f2054 	ldr	r2, [pc, #84]	@ 0x800c048
 800bff0:	e1a0000e 	mov	r0, lr
 800bff4:	e3a01029 	mov	r1, #41	@ 0x29
 800bff8:	ebffea93 	bl	0x8006a4c
 800bffc:	e28d0024 	add	r0, sp, #36	@ 0x24
 800c000:	e3a01002 	mov	r1, #2
 800c004:	ea000007 	b	0x800c028
 800c008:	e28d0024 	add	r0, sp, #36	@ 0x24
 800c00c:	e3a01004 	mov	r1, #4
 800c010:	ea000004 	b	0x800c028
 800c014:	e28d0024 	add	r0, sp, #36	@ 0x24
 800c018:	e3a01008 	mov	r1, #8
 800c01c:	ea000001 	b	0x800c028
 800c020:	e28d0024 	add	r0, sp, #36	@ 0x24
 800c024:	e3a01007 	mov	r1, #7
 800c028:	e3a02004 	mov	r2, #4
 800c02c:	eb000812 	bl	0x800e07c
 800c030:	e59f2014 	ldr	r2, [pc, #20]	@ 0x800c04c
 800c034:	e59d001c 	ldr	r0, [sp, #28]
 800c038:	e3a01003 	mov	r1, #3
 800c03c:	ebffea82 	bl	0x8006a4c
 800c040:	082fe3a4 	stmdaeq	pc!, {r2, r5, r7, r8, r9, sp, lr, pc}	@ <UNPREDICTABLE>
 800c044:	082fe300 	stmdaeq	pc!, {r8, r9, sp, lr, pc}	@ <UNPREDICTABLE>
 800c048:	082fe2bc 	stmdaeq	pc!, {r2, r3, r4, r5, r7, r9, sp, lr, pc}	@ <UNPREDICTABLE>
 800c04c:	082fe550 	stmdaeq	pc!, {r4, r6, r8, sl, sp, lr, pc}	@ <UNPREDICTABLE>
 800c050:	082fe5c0 	stmdaeq	pc!, {r6, r7, r8, sl, sp, lr, pc}	@ <UNPREDICTABLE>
 800c054:	082fe5b0 	stmdaeq	pc!, {r4, r5, r7, r8, sl, sp, lr, pc}	@ <UNPREDICTABLE>
 800c058:	082fe560 	stmdaeq	pc!, {r5, r6, r8, sl, sp, lr, pc}	@ <UNPREDICTABLE>
 800c05c:	082fe5a0 	stmdaeq	pc!, {r5, r7, r8, sl, sp, lr, pc}	@ <UNPREDICTABLE>
 800c060:	082fe088 	stmdaeq	pc!, {r3, r7, sp, lr, pc}	@ <UNPREDICTABLE>
 800c064:	082e3c84 	stmdaeq	lr!, {r2, r7, sl, fp, ip, sp}
 800c068:	082fe078 	stmdaeq	pc!, {r3, r4, r5, r6, sp, lr, pc}	@ <UNPREDICTABLE>
 800c06c:	082fe052 	stmdaeq	pc!, {r1, r4, r6, sp, lr, pc}	@ <UNPREDICTABLE>
 800c070:	082fe068 	stmdaeq	pc!, {r3, r5, r6, sp, lr, pc}	@ <UNPREDICTABLE>
 800c074:	e92d4ff0 	push	{r4, r5, r6, r7, r8, r9, sl, fp, lr}
 800c078:	e28db01c 	add	fp, sp, #28
 800c07c:	e24dd0cc 	sub	sp, sp, #204	@ 0xcc
 800c080:	e1a08000 	mov	r8, r0
 800c084:	e59b0014 	ldr	r0, [fp, #20]
 800c088:	e1a09001 	mov	r9, r1
 800c08c:	e3a01011 	mov	r1, #17
 800c090:	e1a0a003 	mov	sl, r3
 800c094:	e20000ff 	and	r0, r0, #255	@ 0xff
 800c098:	e0811100 	add	r1, r1, r0, lsl #2
 800c09c:	e0030191 	mul	r3, r1, r1
 800c0a0:	e2831007 	add	r1, r3, #7
 800c0a4:	e3a03001 	mov	r3, #1
 800c0a8:	e08331a1 	add	r3, r3, r1, lsr #3
 800c0ac:	e15201a1 	cmp	r2, r1, lsr #3
 800c0b0:	e58d300c 	str	r3, [sp, #12]
 800c0b4:	9a00066f 	bls	0x800da78
 800c0b8:	e1a021a1 	lsr	r2, r1, #3
 800c0bc:	e59b100c 	ldr	r1, [fp, #12]
 800c0c0:	e1520001 	cmp	r2, r1
 800c0c4:	2a000670 	bcs	0x800da8c
 800c0c8:	e3a01080 	mov	r1, #128	@ 0x80
 800c0cc:	e3500001 	cmp	r0, #1
 800c0d0:	e0812200 	add	r2, r1, r0, lsl #4
 800c0d4:	e00c0092 	mul	ip, r2, r0
 800c0d8:	e28c4040 	add	r4, ip, #64	@ 0x40
 800c0dc:	e1a02004 	mov	r2, r4
 800c0e0:	9a000010 	bls	0x800c128
 800c0e4:	e3a02025 	mov	r2, #37	@ 0x25
 800c0e8:	e3e07018 	mvn	r7, #24
 800c0ec:	e3500006 	cmp	r0, #6
 800c0f0:	e0030290 	mul	r3, r0, r2
 800c0f4:	e59b2014 	ldr	r2, [fp, #20]
 800c0f8:	e0422423 	sub	r2, r2, r3, lsr #8
 800c0fc:	e20220ff 	and	r2, r2, #255	@ 0xff
 800c100:	e1a020a2 	lsr	r2, r2, #1
 800c104:	e0822423 	add	r2, r2, r3, lsr #8
 800c108:	e3a03002 	mov	r3, #2
 800c10c:	e0833122 	add	r3, r3, r2, lsr #2
 800c110:	e1a02122 	lsr	r2, r2, #2
 800c114:	e0060792 	mul	r6, r2, r7
 800c118:	e2462028 	sub	r2, r6, #40	@ 0x28
 800c11c:	e027c392 	mla	r7, r2, r3, ip
 800c120:	e2872077 	add	r2, r7, #119	@ 0x77
 800c124:	82872053 	addhi	r2, r7, #83	@ 0x53
 800c128:	e15a01a2 	cmp	sl, r2, lsr #3
 800c12c:	8a000659 	bhi	0x800da98
 800c130:	e59d200c 	ldr	r2, [sp, #12]
 800c134:	e152000a 	cmp	r2, sl
 800c138:	3a00065a 	bcc	0x800daa8
 800c13c:	e3500002 	cmp	r0, #2
 800c140:	e1a02004 	mov	r2, r4
 800c144:	e58da06c 	str	sl, [sp, #108]	@ 0x6c
 800c148:	3a000012 	bcc	0x800c198
 800c14c:	e3a02025 	mov	r2, #37	@ 0x25
 800c150:	e3e07018 	mvn	r7, #24
 800c154:	e3500006 	cmp	r0, #6
 800c158:	e0030290 	mul	r3, r0, r2
 800c15c:	e59b2014 	ldr	r2, [fp, #20]
 800c160:	e0422423 	sub	r2, r2, r3, lsr #8
 800c164:	e20220ff 	and	r2, r2, #255	@ 0xff
 800c168:	e1a020a2 	lsr	r2, r2, #1
 800c16c:	e0822423 	add	r2, r2, r3, lsr #8
 800c170:	e3a03002 	mov	r3, #2
 800c174:	e0833122 	add	r3, r3, r2, lsr #2
 800c178:	e1a02122 	lsr	r2, r2, #2
 800c17c:	e0060792 	mul	r6, r2, r7
 800c180:	e2462028 	sub	r2, r6, #40	@ 0x28
 800c184:	e027c392 	mla	r7, r2, r3, ip
 800c188:	e2872077 	add	r2, r7, #119	@ 0x77
 800c18c:	82872053 	addhi	r2, r7, #83	@ 0x53
 800c190:	e3500029 	cmp	r0, #41	@ 0x29
 800c194:	2a000783 	bcs	0x800dfa8
 800c198:	e59b3010 	ldr	r3, [fp, #16]
 800c19c:	e59f7f8c 	ldr	r7, [pc, #3980]	@ 0x800d130
 800c1a0:	e3a06029 	mov	r6, #41	@ 0x29
 800c1a4:	e20330ff 	and	r3, r3, #255	@ 0xff
 800c1a8:	e0257693 	mla	r5, r3, r6, r7
 800c1ac:	e0857000 	add	r7, r5, r0
 800c1b0:	e1d710d0 	ldrsb	r1, [r7]
 800c1b4:	e59f7f78 	ldr	r7, [pc, #3960]	@ 0x800d134
 800c1b8:	e0257693 	mla	r5, r3, r6, r7
 800c1bc:	e0853000 	add	r3, r5, r0
 800c1c0:	e1d370d0 	ldrsb	r7, [r3]
 800c1c4:	e0030197 	mul	r3, r7, r1
 800c1c8:	e06321a2 	rsb	r2, r3, r2, lsr #3
 800c1cc:	e152000a 	cmp	r2, sl
 800c1d0:	e50b2064 	str	r2, [fp, #-100]	@ 0xffffff9c
 800c1d4:	1a00063f 	bne	0x800dad8
 800c1d8:	e20720ff 	and	r2, r7, #255	@ 0xff
 800c1dc:	e3500001 	cmp	r0, #1
 800c1e0:	e58d701c 	str	r7, [sp, #28]
 800c1e4:	9a000010 	bls	0x800c22c
 800c1e8:	e3a03025 	mov	r3, #37	@ 0x25
 800c1ec:	e3e06018 	mvn	r6, #24
 800c1f0:	e3500006 	cmp	r0, #6
 800c1f4:	e0070390 	mul	r7, r0, r3
 800c1f8:	e59b3014 	ldr	r3, [fp, #20]
 800c1fc:	e0433427 	sub	r3, r3, r7, lsr #8
 800c200:	e20330ff 	and	r3, r3, #255	@ 0xff
 800c204:	e1a030a3 	lsr	r3, r3, #1
 800c208:	e0833427 	add	r3, r3, r7, lsr #8
 800c20c:	e3a07002 	mov	r7, #2
 800c210:	e0877123 	add	r7, r7, r3, lsr #2
 800c214:	e1a03123 	lsr	r3, r3, #2
 800c218:	e0050693 	mul	r5, r3, r6
 800c21c:	e2453028 	sub	r3, r5, #40	@ 0x28
 800c220:	e026c793 	mla	r6, r3, r7, ip
 800c224:	e2864077 	add	r4, r6, #119	@ 0x77
 800c228:	82864053 	addhi	r4, r6, #83	@ 0x53
 800c22c:	e3520000 	cmp	r2, #0
 800c230:	e58d1030 	str	r1, [sp, #48]	@ 0x30
 800c234:	0a000754 	beq	0x800df8c
 800c238:	e59d101c 	ldr	r1, [sp, #28]
 800c23c:	e1a051a4 	lsr	r5, r4, #3
 800c240:	e1a00005 	mov	r0, r5
 800c244:	eb00138c 	bl	0x801107c
 800c248:	e59d100c 	ldr	r1, [sp, #12]
 800c24c:	e15101a4 	cmp	r1, r4, lsr #3
 800c250:	3a000627 	bcc	0x800daf4
 800c254:	e59dc030 	ldr	ip, [sp, #48]	@ 0x30
 800c258:	e3a07000 	mov	r7, #0
 800c25c:	e14b72b0 	strh	r7, [fp, #-32]	@ 0xffffffe0
 800c260:	e50b7024 	str	r7, [fp, #-36]	@ 0xffffffdc
 800c264:	e50b7028 	str	r7, [fp, #-40]	@ 0xffffffd8
 800c268:	e50b702c 	str	r7, [fp, #-44]	@ 0xffffffd4
 800c26c:	e50b7030 	str	r7, [fp, #-48]	@ 0xffffffd0
 800c270:	e50b7034 	str	r7, [fp, #-52]	@ 0xffffffcc
 800c274:	e50b7038 	str	r7, [fp, #-56]	@ 0xffffffc8
 800c278:	e50b703c 	str	r7, [fp, #-60]	@ 0xffffffc4
 800c27c:	e24c3001 	sub	r3, ip, #1
 800c280:	e50bc040 	str	ip, [fp, #-64]	@ 0xffffffc0
 800c284:	e353001e 	cmp	r3, #30
 800c288:	2a00061d 	bcs	0x800db04
 800c28c:	e59d100c 	ldr	r1, [sp, #12]
 800c290:	e58d8004 	str	r8, [sp, #4]
 800c294:	e24b8040 	sub	r8, fp, #64	@ 0x40
 800c298:	e58d9018 	str	r9, [sp, #24]
 800c29c:	e58d3044 	str	r3, [sp, #68]	@ 0x44
 800c2a0:	e58d502c 	str	r5, [sp, #44]	@ 0x2c
 800c2a4:	e58da014 	str	sl, [sp, #20]
 800c2a8:	e58d4008 	str	r4, [sp, #8]
 800c2ac:	e041100a 	sub	r1, r1, sl
 800c2b0:	e58d104c 	str	r1, [sp, #76]	@ 0x4c
 800c2b4:	e089100a 	add	r1, r9, sl
 800c2b8:	e3a09001 	mov	r9, #1
 800c2bc:	e58d1058 	str	r1, [sp, #88]	@ 0x58
 800c2c0:	e20c10ff 	and	r1, ip, #255	@ 0xff
 800c2c4:	e58d1040 	str	r1, [sp, #64]	@ 0x40
 800c2c8:	e040100c 	sub	r1, r0, ip
 800c2cc:	e58d1048 	str	r1, [sp, #72]	@ 0x48
 800c2d0:	e59d101c 	ldr	r1, [sp, #28]
 800c2d4:	e0020190 	mul	r2, r0, r1
 800c2d8:	e04201a4 	sub	r0, r2, r4, lsr #3
 800c2dc:	e2882004 	add	r2, r8, #4
 800c2e0:	e0810000 	add	r0, r1, r0
 800c2e4:	e7c29003 	strb	r9, [r2, r3]
 800c2e8:	e3a0301d 	mov	r3, #29
 800c2ec:	e58d0020 	str	r0, [sp, #32]
 800c2f0:	ea000004 	b	0x800c308
 800c2f4:	e59d7050 	ldr	r7, [sp, #80]	@ 0x50
 800c2f8:	e0229089 	eor	r9, r2, r9, lsl #1
 800c2fc:	e2877001 	add	r7, r7, #1
 800c300:	e157000c 	cmp	r7, ip
 800c304:	0a00008f 	beq	0x800c548
 800c308:	e2090002 	and	r0, r9, #2
 800c30c:	e1a04c09 	lsl	r4, r9, #24
 800c310:	e209a040 	and	sl, r9, #64	@ 0x40
 800c314:	e3a06000 	mov	r6, #0
 800c318:	e58d7050 	str	r7, [sp, #80]	@ 0x50
 800c31c:	e58d0068 	str	r0, [sp, #104]	@ 0x68
 800c320:	e2090004 	and	r0, r9, #4
 800c324:	e1b04c44 	asrs	r4, r4, #24
 800c328:	e58d0064 	str	r0, [sp, #100]	@ 0x64
 800c32c:	e2090008 	and	r0, r9, #8
 800c330:	e58d0060 	str	r0, [sp, #96]	@ 0x60
 800c334:	e2090010 	and	r0, r9, #16
 800c338:	e58d005c 	str	r0, [sp, #92]	@ 0x5c
 800c33c:	e2090020 	and	r0, r9, #32
 800c340:	e58d0054 	str	r0, [sp, #84]	@ 0x54
 800c344:	4a00003d 	bmi	0x800c440
 800c348:	e0885006 	add	r5, r8, r6
 800c34c:	e59d2054 	ldr	r2, [sp, #84]	@ 0x54
 800c350:	e35a0000 	cmp	sl, #0
 800c354:	e1a0000a 	mov	r0, sl
 800c358:	e59d705c 	ldr	r7, [sp, #92]	@ 0x5c
 800c35c:	e59de068 	ldr	lr, [sp, #104]	@ 0x68
 800c360:	e2866001 	add	r6, r6, #1
 800c364:	e5d54004 	ldrb	r4, [r5, #4]
 800c368:	11a00004 	movne	r0, r4
 800c36c:	e3520000 	cmp	r2, #0
 800c370:	e0241080 	eor	r1, r4, r0, lsl #1
 800c374:	01a01080 	lsleq	r1, r0, #1
 800c378:	e1a00c00 	lsl	r0, r0, #24
 800c37c:	e3570000 	cmp	r7, #0
 800c380:	e59d7060 	ldr	r7, [sp, #96]	@ 0x60
 800c384:	e1a00c40 	asr	r0, r0, #24
 800c388:	e00303a0 	and	r0, r3, r0, lsr #7
 800c38c:	e0210000 	eor	r0, r1, r0
 800c390:	e0242080 	eor	r2, r4, r0, lsl #1
 800c394:	01a02080 	lsleq	r2, r0, #1
 800c398:	e1a00c01 	lsl	r0, r1, #24
 800c39c:	e3570000 	cmp	r7, #0
 800c3a0:	e59d7064 	ldr	r7, [sp, #100]	@ 0x64
 800c3a4:	e1a00c40 	asr	r0, r0, #24
 800c3a8:	e00303a0 	and	r0, r3, r0, lsr #7
 800c3ac:	e0220000 	eor	r0, r2, r0
 800c3b0:	e0241080 	eor	r1, r4, r0, lsl #1
 800c3b4:	01a01080 	lsleq	r1, r0, #1
 800c3b8:	e1a00c02 	lsl	r0, r2, #24
 800c3bc:	e3570000 	cmp	r7, #0
 800c3c0:	e1a00c40 	asr	r0, r0, #24
 800c3c4:	e00303a0 	and	r0, r3, r0, lsr #7
 800c3c8:	e0210000 	eor	r0, r1, r0
 800c3cc:	e0242080 	eor	r2, r4, r0, lsl #1
 800c3d0:	01a02080 	lsleq	r2, r0, #1
 800c3d4:	e1a00c01 	lsl	r0, r1, #24
 800c3d8:	e35e0000 	cmp	lr, #0
 800c3dc:	e1a00c40 	asr	r0, r0, #24
 800c3e0:	e00303a0 	and	r0, r3, r0, lsr #7
 800c3e4:	e0220000 	eor	r0, r2, r0
 800c3e8:	e0241080 	eor	r1, r4, r0, lsl #1
 800c3ec:	01a01080 	lsleq	r1, r0, #1
 800c3f0:	e1a00c02 	lsl	r0, r2, #24
 800c3f4:	e3190001 	tst	r9, #1
 800c3f8:	e1a00c40 	asr	r0, r0, #24
 800c3fc:	e00303a0 	and	r0, r3, r0, lsr #7
 800c400:	e0210000 	eor	r0, r1, r0
 800c404:	e1a02080 	lsl	r2, r0, #1
 800c408:	10242080 	eorne	r2, r4, r0, lsl #1
 800c40c:	e1a00c01 	lsl	r0, r1, #24
 800c410:	e156000c 	cmp	r6, ip
 800c414:	e1a00c40 	asr	r0, r0, #24
 800c418:	e00303a0 	and	r0, r3, r0, lsr #7
 800c41c:	e0224000 	eor	r4, r2, r0
 800c420:	35d50005 	ldrbcc	r0, [r5, #5]
 800c424:	e5c54004 	strb	r4, [r5, #4]
 800c428:	30200004 	eorcc	r0, r0, r4
 800c42c:	35c50004 	strbcc	r0, [r5, #4]
 800c430:	e15c0006 	cmp	ip, r6
 800c434:	1affffc3 	bne	0x800c348
 800c438:	e3a02000 	mov	r2, #0
 800c43c:	eaffffac 	b	0x800c2f4
 800c440:	e0885006 	add	r5, r8, r6
 800c444:	e59d0054 	ldr	r0, [sp, #84]	@ 0x54
 800c448:	e35a0000 	cmp	sl, #0
 800c44c:	e59d7060 	ldr	r7, [sp, #96]	@ 0x60
 800c450:	e2866001 	add	r6, r6, #1
 800c454:	e24b8040 	sub	r8, fp, #64	@ 0x40
 800c458:	e1d540d4 	ldrsb	r4, [r5, #4]
 800c45c:	e024c084 	eor	ip, r4, r4, lsl #1
 800c460:	e00313a4 	and	r1, r3, r4, lsr #7
 800c464:	01a0c084 	lsleq	ip, r4, #1
 800c468:	e3500000 	cmp	r0, #0
 800c46c:	e59d005c 	ldr	r0, [sp, #92]	@ 0x5c
 800c470:	e02c1001 	eor	r1, ip, r1
 800c474:	e024e081 	eor	lr, r4, r1, lsl #1
 800c478:	01a0e081 	lsleq	lr, r1, #1
 800c47c:	e1a01c0c 	lsl	r1, ip, #24
 800c480:	e59dc030 	ldr	ip, [sp, #48]	@ 0x30
 800c484:	e1a01c41 	asr	r1, r1, #24
 800c488:	e3500000 	cmp	r0, #0
 800c48c:	e00313a1 	and	r1, r3, r1, lsr #7
 800c490:	e02e1001 	eor	r1, lr, r1
 800c494:	e0242081 	eor	r2, r4, r1, lsl #1
 800c498:	01a02081 	lsleq	r2, r1, #1
 800c49c:	e1a01c0e 	lsl	r1, lr, #24
 800c4a0:	e3570000 	cmp	r7, #0
 800c4a4:	e59d7064 	ldr	r7, [sp, #100]	@ 0x64
 800c4a8:	e1a01c41 	asr	r1, r1, #24
 800c4ac:	e00313a1 	and	r1, r3, r1, lsr #7
 800c4b0:	e0221001 	eor	r1, r2, r1
 800c4b4:	e0240081 	eor	r0, r4, r1, lsl #1
 800c4b8:	01a00081 	lsleq	r0, r1, #1
 800c4bc:	e1a01c02 	lsl	r1, r2, #24
 800c4c0:	e3570000 	cmp	r7, #0
 800c4c4:	e59d7068 	ldr	r7, [sp, #104]	@ 0x68
 800c4c8:	e1a01c41 	asr	r1, r1, #24
 800c4cc:	e00313a1 	and	r1, r3, r1, lsr #7
 800c4d0:	e0201001 	eor	r1, r0, r1
 800c4d4:	e1a00c00 	lsl	r0, r0, #24
 800c4d8:	e0242081 	eor	r2, r4, r1, lsl #1
 800c4dc:	e1a00c40 	asr	r0, r0, #24
 800c4e0:	01a02081 	lsleq	r2, r1, #1
 800c4e4:	e00303a0 	and	r0, r3, r0, lsr #7
 800c4e8:	e3570000 	cmp	r7, #0
 800c4ec:	e0220000 	eor	r0, r2, r0
 800c4f0:	e0241080 	eor	r1, r4, r0, lsl #1
 800c4f4:	01a01080 	lsleq	r1, r0, #1
 800c4f8:	e1a00c02 	lsl	r0, r2, #24
 800c4fc:	e3190001 	tst	r9, #1
 800c500:	e1a00c40 	asr	r0, r0, #24
 800c504:	e00303a0 	and	r0, r3, r0, lsr #7
 800c508:	e0210000 	eor	r0, r1, r0
 800c50c:	e1a02080 	lsl	r2, r0, #1
 800c510:	10242080 	eorne	r2, r4, r0, lsl #1
 800c514:	e1a00c01 	lsl	r0, r1, #24
 800c518:	e156000c 	cmp	r6, ip
 800c51c:	e1a00c40 	asr	r0, r0, #24
 800c520:	e00303a0 	and	r0, r3, r0, lsr #7
 800c524:	e0224000 	eor	r4, r2, r0
 800c528:	35d50005 	ldrbcc	r0, [r5, #5]
 800c52c:	e5c54004 	strb	r4, [r5, #4]
 800c530:	30200004 	eorcc	r0, r0, r4
 800c534:	35c50004 	strbcc	r0, [r5, #4]
 800c538:	e15c0006 	cmp	ip, r6
 800c53c:	1affffbf 	bne	0x800c440
 800c540:	e3a0201d 	mov	r2, #29
 800c544:	eaffff6a 	b	0x800c2f4
 800c548:	e8b800cc 	ldm	r8!, {r2, r3, r6, r7}
 800c54c:	e24b4064 	sub	r4, fp, #100	@ 0x64
 800c550:	e1a00004 	mov	r0, r4
 800c554:	e8a000cc 	stmia	r0!, {r2, r3, r6, r7}
 800c558:	e89800ec 	ldm	r8, {r2, r3, r5, r6, r7}
 800c55c:	e88000ec 	stm	r0, {r2, r3, r5, r6, r7}
 800c560:	e59d104c 	ldr	r1, [sp, #76]	@ 0x4c
 800c564:	e151000c 	cmp	r1, ip
 800c568:	3a000569 	bcc	0x800db14
 800c56c:	e35c001e 	cmp	ip, #30
 800c570:	e1a0000c 	mov	r0, ip
 800c574:	e59d3014 	ldr	r3, [sp, #20]
 800c578:	e59d8044 	ldr	r8, [sp, #68]	@ 0x44
 800c57c:	e3a0901d 	mov	r9, #29
 800c580:	e3a0e000 	mov	lr, #0
 800c584:	23a0001e 	movcs	r0, #30
 800c588:	e58d0038 	str	r0, [sp, #56]	@ 0x38
 800c58c:	e59d0058 	ldr	r0, [sp, #88]	@ 0x58
 800c590:	e2800001 	add	r0, r0, #1
 800c594:	e58d003c 	str	r0, [sp, #60]	@ 0x3c
 800c598:	e2840004 	add	r0, r4, #4
 800c59c:	e58d0034 	str	r0, [sp, #52]	@ 0x34
 800c5a0:	e51b0064 	ldr	r0, [fp, #-100]	@ 0xffffff9c
 800c5a4:	e58d0010 	str	r0, [sp, #16]
 800c5a8:	e59d0018 	ldr	r0, [sp, #24]
 800c5ac:	e58d0050 	str	r0, [sp, #80]	@ 0x50
 800c5b0:	e59d0020 	ldr	r0, [sp, #32]
 800c5b4:	e15e0000 	cmp	lr, r0
 800c5b8:	e59d0048 	ldr	r0, [sp, #72]	@ 0x48
 800c5bc:	22800001 	addcs	r0, r0, #1
 800c5c0:	e1530000 	cmp	r3, r0
 800c5c4:	e58d0054 	str	r0, [sp, #84]	@ 0x54
 800c5c8:	3a000515 	bcc	0x800da24
 800c5cc:	e59d0010 	ldr	r0, [sp, #16]
 800c5d0:	e50bc070 	str	ip, [fp, #-112]	@ 0xffffff90
 800c5d4:	e150000c 	cmp	r0, ip
 800c5d8:	1a000515 	bne	0x800da34
 800c5dc:	e59d0058 	ldr	r0, [sp, #88]	@ 0x58
 800c5e0:	e1a0100c 	mov	r1, ip
 800c5e4:	e58de028 	str	lr, [sp, #40]	@ 0x28
 800c5e8:	e58d3024 	str	r3, [sp, #36]	@ 0x24
 800c5ec:	eb001553 	bl	0x8011b40
 800c5f0:	e59d0054 	ldr	r0, [sp, #84]	@ 0x54
 800c5f4:	e59d2050 	ldr	r2, [sp, #80]	@ 0x50
 800c5f8:	e0821000 	add	r1, r2, r0
 800c5fc:	e3500000 	cmp	r0, #0
 800c600:	e58d104c 	str	r1, [sp, #76]	@ 0x4c
 800c604:	1a00000a 	bne	0x800c634
 800c608:	e59b6008 	ldr	r6, [fp, #8]
 800c60c:	e59da02c 	ldr	sl, [sp, #44]	@ 0x2c
 800c610:	e59d1018 	ldr	r1, [sp, #24]
 800c614:	e59dc030 	ldr	ip, [sp, #48]	@ 0x30
 800c618:	e59d501c 	ldr	r5, [sp, #28]
 800c61c:	ea0000ad 	b	0x800c8d8
 800c620:	e59d004c 	ldr	r0, [sp, #76]	@ 0x4c
 800c624:	e59d205c 	ldr	r2, [sp, #92]	@ 0x5c
 800c628:	e59d8044 	ldr	r8, [sp, #68]	@ 0x44
 800c62c:	e1520000 	cmp	r2, r0
 800c630:	0a00008f 	beq	0x800c874
 800c634:	e59d7058 	ldr	r7, [sp, #88]	@ 0x58
 800c638:	e4d25001 	ldrb	r5, [r2], #1
 800c63c:	e59d103c 	ldr	r1, [sp, #60]	@ 0x3c
 800c640:	e5d76000 	ldrb	r6, [r7]
 800c644:	e58d205c 	str	r2, [sp, #92]	@ 0x5c
 800c648:	e1a00007 	mov	r0, r7
 800c64c:	e1a02008 	mov	r2, r8
 800c650:	eb001536 	bl	0x8011b30
 800c654:	e3a00000 	mov	r0, #0
 800c658:	e7c70008 	strb	r0, [r7, r8]
 800c65c:	e59d0040 	ldr	r0, [sp, #64]	@ 0x40
 800c660:	e3500000 	cmp	r0, #0
 800c664:	0affffed 	beq	0x800c620
 800c668:	e0250006 	eor	r0, r5, r6
 800c66c:	e59da034 	ldr	sl, [sp, #52]	@ 0x34
 800c670:	e59d2038 	ldr	r2, [sp, #56]	@ 0x38
 800c674:	e2001008 	and	r1, r0, #8
 800c678:	e2004002 	and	r4, r0, #2
 800c67c:	e200c004 	and	ip, r0, #4
 800c680:	e2008040 	and	r8, r0, #64	@ 0x40
 800c684:	e58d1068 	str	r1, [sp, #104]	@ 0x68
 800c688:	e2001010 	and	r1, r0, #16
 800c68c:	e58d1064 	str	r1, [sp, #100]	@ 0x64
 800c690:	e2001020 	and	r1, r0, #32
 800c694:	e1a00c00 	lsl	r0, r0, #24
 800c698:	e1b0ec40 	asrs	lr, r0, #24
 800c69c:	e59d0058 	ldr	r0, [sp, #88]	@ 0x58
 800c6a0:	e58d1060 	str	r1, [sp, #96]	@ 0x60
 800c6a4:	4a000035 	bmi	0x800c780
 800c6a8:	e4da3001 	ldrb	r3, [sl], #1
 800c6ac:	e59d1060 	ldr	r1, [sp, #96]	@ 0x60
 800c6b0:	e3580000 	cmp	r8, #0
 800c6b4:	e1a07008 	mov	r7, r8
 800c6b8:	11a07003 	movne	r7, r3
 800c6bc:	e3510000 	cmp	r1, #0
 800c6c0:	e59d1064 	ldr	r1, [sp, #100]	@ 0x64
 800c6c4:	e0236087 	eor	r6, r3, r7, lsl #1
 800c6c8:	01a06087 	lsleq	r6, r7, #1
 800c6cc:	e1a07c07 	lsl	r7, r7, #24
 800c6d0:	e1a07c47 	asr	r7, r7, #24
 800c6d4:	e00973a7 	and	r7, r9, r7, lsr #7
 800c6d8:	e3510000 	cmp	r1, #0
 800c6dc:	e59d1068 	ldr	r1, [sp, #104]	@ 0x68
 800c6e0:	e0267007 	eor	r7, r6, r7
 800c6e4:	e0235087 	eor	r5, r3, r7, lsl #1
 800c6e8:	01a05087 	lsleq	r5, r7, #1
 800c6ec:	e1a07c06 	lsl	r7, r6, #24
 800c6f0:	e1a07c47 	asr	r7, r7, #24
 800c6f4:	e3510000 	cmp	r1, #0
 800c6f8:	e00973a7 	and	r7, r9, r7, lsr #7
 800c6fc:	e0257007 	eor	r7, r5, r7
 800c700:	e0236087 	eor	r6, r3, r7, lsl #1
 800c704:	01a06087 	lsleq	r6, r7, #1
 800c708:	e1a07c05 	lsl	r7, r5, #24
 800c70c:	e35c0000 	cmp	ip, #0
 800c710:	e1a07c47 	asr	r7, r7, #24
 800c714:	e00973a7 	and	r7, r9, r7, lsr #7
 800c718:	e0267007 	eor	r7, r6, r7
 800c71c:	e0235087 	eor	r5, r3, r7, lsl #1
 800c720:	01a05087 	lsleq	r5, r7, #1
 800c724:	e1a07c06 	lsl	r7, r6, #24
 800c728:	e3540000 	cmp	r4, #0
 800c72c:	e1a07c47 	asr	r7, r7, #24
 800c730:	e00973a7 	and	r7, r9, r7, lsr #7
 800c734:	e0257007 	eor	r7, r5, r7
 800c738:	e0236087 	eor	r6, r3, r7, lsl #1
 800c73c:	01a06087 	lsleq	r6, r7, #1
 800c740:	e1a07c05 	lsl	r7, r5, #24
 800c744:	e5d05000 	ldrb	r5, [r0]
 800c748:	e31e0001 	tst	lr, #1
 800c74c:	e1a07c47 	asr	r7, r7, #24
 800c750:	e00973a7 	and	r7, r9, r7, lsr #7
 800c754:	e0267007 	eor	r7, r6, r7
 800c758:	10255003 	eorne	r5, r5, r3
 800c75c:	e2522001 	subs	r2, r2, #1
 800c760:	e0253087 	eor	r3, r5, r7, lsl #1
 800c764:	e1a07c06 	lsl	r7, r6, #24
 800c768:	e1a07c47 	asr	r7, r7, #24
 800c76c:	e00973a7 	and	r7, r9, r7, lsr #7
 800c770:	e0233007 	eor	r3, r3, r7
 800c774:	e4c03001 	strb	r3, [r0], #1
 800c778:	1affffca 	bne	0x800c6a8
 800c77c:	eaffffa7 	b	0x800c620
 800c780:	e59d0058 	ldr	r0, [sp, #88]	@ 0x58
 800c784:	e59d1034 	ldr	r1, [sp, #52]	@ 0x34
 800c788:	e59da038 	ldr	sl, [sp, #56]	@ 0x38
 800c78c:	e0d120d1 	ldrsb	r2, [r1], #1
 800c790:	e59d7060 	ldr	r7, [sp, #96]	@ 0x60
 800c794:	e3580000 	cmp	r8, #0
 800c798:	e1a0600c 	mov	r6, ip
 800c79c:	e0223082 	eor	r3, r2, r2, lsl #1
 800c7a0:	e009c3a2 	and	ip, r9, r2, lsr #7
 800c7a4:	01a03082 	lsleq	r3, r2, #1
 800c7a8:	e3570000 	cmp	r7, #0
 800c7ac:	e59d7064 	ldr	r7, [sp, #100]	@ 0x64
 800c7b0:	e023500c 	eor	r5, r3, ip
 800c7b4:	e1a03c03 	lsl	r3, r3, #24
 800c7b8:	e1a0c006 	mov	ip, r6
 800c7bc:	e0226085 	eor	r6, r2, r5, lsl #1
 800c7c0:	e1a03c43 	asr	r3, r3, #24
 800c7c4:	01a06085 	lsleq	r6, r5, #1
 800c7c8:	e00933a3 	and	r3, r9, r3, lsr #7
 800c7cc:	e0263003 	eor	r3, r6, r3
 800c7d0:	e3570000 	cmp	r7, #0
 800c7d4:	e59d7068 	ldr	r7, [sp, #104]	@ 0x68
 800c7d8:	e0225083 	eor	r5, r2, r3, lsl #1
 800c7dc:	01a05083 	lsleq	r5, r3, #1
 800c7e0:	e1a03c06 	lsl	r3, r6, #24
 800c7e4:	e1a03c43 	asr	r3, r3, #24
 800c7e8:	e00933a3 	and	r3, r9, r3, lsr #7
 800c7ec:	e3570000 	cmp	r7, #0
 800c7f0:	e0253003 	eor	r3, r5, r3
 800c7f4:	e0226083 	eor	r6, r2, r3, lsl #1
 800c7f8:	01a06083 	lsleq	r6, r3, #1
 800c7fc:	e1a03c05 	lsl	r3, r5, #24
 800c800:	e35c0000 	cmp	ip, #0
 800c804:	e1a03c43 	asr	r3, r3, #24
 800c808:	e00933a3 	and	r3, r9, r3, lsr #7
 800c80c:	e0263003 	eor	r3, r6, r3
 800c810:	e0225083 	eor	r5, r2, r3, lsl #1
 800c814:	01a05083 	lsleq	r5, r3, #1
 800c818:	e1a03c06 	lsl	r3, r6, #24
 800c81c:	e3540000 	cmp	r4, #0
 800c820:	e1a03c43 	asr	r3, r3, #24
 800c824:	e00933a3 	and	r3, r9, r3, lsr #7
 800c828:	e0253003 	eor	r3, r5, r3
 800c82c:	e0226083 	eor	r6, r2, r3, lsl #1
 800c830:	01a06083 	lsleq	r6, r3, #1
 800c834:	e1a03c05 	lsl	r3, r5, #24
 800c838:	e5d05000 	ldrb	r5, [r0]
 800c83c:	e31e0001 	tst	lr, #1
 800c840:	e1a03c43 	asr	r3, r3, #24
 800c844:	e00933a3 	and	r3, r9, r3, lsr #7
 800c848:	e0263003 	eor	r3, r6, r3
 800c84c:	10255002 	eorne	r5, r5, r2
 800c850:	e25aa001 	subs	sl, sl, #1
 800c854:	e0252083 	eor	r2, r5, r3, lsl #1
 800c858:	e1a03c06 	lsl	r3, r6, #24
 800c85c:	e1a03c43 	asr	r3, r3, #24
 800c860:	e00933a3 	and	r3, r9, r3, lsr #7
 800c864:	e0222003 	eor	r2, r2, r3
 800c868:	e4c02001 	strb	r2, [r0], #1
 800c86c:	1affffc6 	bne	0x800c78c
 800c870:	eaffff6a 	b	0x800c620
 800c874:	e28de018 	add	lr, sp, #24
 800c878:	e59d0028 	ldr	r0, [sp, #40]	@ 0x28
 800c87c:	e59b6008 	ldr	r6, [fp, #8]
 800c880:	e59da02c 	ldr	sl, [sp, #44]	@ 0x2c
 800c884:	e59dc030 	ldr	ip, [sp, #48]	@ 0x30
 800c888:	e3a03000 	mov	r3, #0
 800c88c:	e89e40a2 	ldm	lr, {r1, r5, r7, lr}
 800c890:	e59d2048 	ldr	r2, [sp, #72]	@ 0x48
 800c894:	e1520003 	cmp	r2, r3
 800c898:	00400007 	subeq	r0, r0, r7
 800c89c:	e15e0003 	cmp	lr, r3
 800c8a0:	0a000470 	beq	0x800da68
 800c8a4:	e150000a 	cmp	r0, sl
 800c8a8:	2a00046b 	bcs	0x800da5c
 800c8ac:	e1a0400a 	mov	r4, sl
 800c8b0:	e59da050 	ldr	sl, [sp, #80]	@ 0x50
 800c8b4:	e2832001 	add	r2, r3, #1
 800c8b8:	e7da3003 	ldrb	r3, [sl, r3]
 800c8bc:	e1a0a004 	mov	sl, r4
 800c8c0:	e7c63000 	strb	r3, [r6, r0]
 800c8c4:	e59d3054 	ldr	r3, [sp, #84]	@ 0x54
 800c8c8:	e0800005 	add	r0, r0, r5
 800c8cc:	e1520003 	cmp	r2, r3
 800c8d0:	e1a03002 	mov	r3, r2
 800c8d4:	3affffed 	bcc	0x800c890
 800c8d8:	e59d0028 	ldr	r0, [sp, #40]	@ 0x28
 800c8dc:	e59d3014 	ldr	r3, [sp, #20]
 800c8e0:	e1a0200c 	mov	r2, ip
 800c8e4:	e280e001 	add	lr, r0, #1
 800c8e8:	e0800003 	add	r0, r0, r3
 800c8ec:	e150000a 	cmp	r0, sl
 800c8f0:	2a000456 	bcs	0x800da50
 800c8f4:	e7d17003 	ldrb	r7, [r1, r3]
 800c8f8:	e2522001 	subs	r2, r2, #1
 800c8fc:	e2833001 	add	r3, r3, #1
 800c900:	e7c67000 	strb	r7, [r6, r0]
 800c904:	e0800005 	add	r0, r0, r5
 800c908:	1afffff7 	bne	0x800c8ec
 800c90c:	e59d3024 	ldr	r3, [sp, #36]	@ 0x24
 800c910:	e59d0054 	ldr	r0, [sp, #84]	@ 0x54
 800c914:	e15e0005 	cmp	lr, r5
 800c918:	e0433000 	sub	r3, r3, r0
 800c91c:	e59d004c 	ldr	r0, [sp, #76]	@ 0x4c
 800c920:	e58d0050 	str	r0, [sp, #80]	@ 0x50
 800c924:	1affff21 	bne	0x800c5b0
 800c928:	e59d200c 	ldr	r2, [sp, #12]
 800c92c:	e59b3014 	ldr	r3, [fp, #20]
 800c930:	e28d006c 	add	r0, sp, #108	@ 0x6c
 800c934:	eb00060d 	bl	0x800e170
 800c938:	e59d006c 	ldr	r0, [sp, #108]	@ 0x6c
 800c93c:	e50ba070 	str	sl, [fp, #-112]	@ 0xffffff90
 800c940:	e3e01000 	mvn	r1, #0
 800c944:	e5d0e000 	ldrb	lr, [r0]
 800c948:	e58d0060 	str	r0, [sp, #96]	@ 0x60
 800c94c:	e24e0011 	sub	r0, lr, #17
 800c950:	e20000ff 	and	r0, r0, #255	@ 0xff
 800c954:	e0811120 	add	r1, r1, r0, lsr #2
 800c958:	e3510028 	cmp	r1, #40	@ 0x28
 800c95c:	2a000586 	bcs	0x800df7c
 800c960:	e1a02120 	lsr	r2, r0, #2
 800c964:	e3a01080 	mov	r1, #128	@ 0x80
 800c968:	e3500007 	cmp	r0, #7
 800c96c:	e0811202 	add	r1, r1, r2, lsl #4
 800c970:	e0030291 	mul	r3, r1, r2
 800c974:	e2831040 	add	r1, r3, #64	@ 0x40
 800c978:	9a00000b 	bls	0x800c9ac
 800c97c:	e3a03025 	mov	r3, #37	@ 0x25
 800c980:	e350001b 	cmp	r0, #27
 800c984:	e0070392 	mul	r7, r2, r3
 800c988:	e3a02002 	mov	r2, #2
 800c98c:	e0822427 	add	r2, r2, r7, lsr #8
 800c990:	e1a03427 	lsr	r3, r7, #8
 800c994:	e3e07018 	mvn	r7, #24
 800c998:	e0060793 	mul	r6, r3, r7
 800c99c:	e2463028 	sub	r3, r6, #40	@ 0x28
 800c9a0:	e0271293 	mla	r7, r3, r2, r1
 800c9a4:	e2871037 	add	r1, r7, #55	@ 0x37
 800c9a8:	82871013 	addhi	r1, r7, #19
 800c9ac:	e1a001a1 	lsr	r0, r1, #3
 800c9b0:	e15a01a1 	cmp	sl, r1, lsr #3
 800c9b4:	e50b0064 	str	r0, [fp, #-100]	@ 0xffffff9c
 800c9b8:	1a000458 	bne	0x800db20
 800c9bc:	e59d0070 	ldr	r0, [sp, #112]	@ 0x70
 800c9c0:	e35e0002 	cmp	lr, #2
 800c9c4:	e58d0068 	str	r0, [sp, #104]	@ 0x68
 800c9c8:	e59d0074 	ldr	r0, [sp, #116]	@ 0x74
 800c9cc:	e58d0064 	str	r0, [sp, #100]	@ 0x64
 800c9d0:	3a000065 	bcc	0x800cb6c
 800c9d4:	e59d0008 	ldr	r0, [sp, #8]
 800c9d8:	e24e1001 	sub	r1, lr, #1
 800c9dc:	e3a09000 	mov	r9, #0
 800c9e0:	e3a07001 	mov	r7, #1
 800c9e4:	e58d104c 	str	r1, [sp, #76]	@ 0x4c
 800c9e8:	e3c06007 	bic	r6, r0, #7
 800c9ec:	e3510006 	cmp	r1, #6
 800c9f0:	e59d504c 	ldr	r5, [sp, #76]	@ 0x4c
 800c9f4:	e3a0c000 	mov	ip, #0
 800c9f8:	03a01005 	moveq	r1, #5
 800c9fc:	e20100ff 	and	r0, r1, #255	@ 0xff
 800ca00:	e58d1050 	str	r1, [sp, #80]	@ 0x50
 800ca04:	e58d005c 	str	r0, [sp, #92]	@ 0x5c
 800ca08:	e2410001 	sub	r0, r1, #1
 800ca0c:	e20000ff 	and	r0, r0, #255	@ 0xff
 800ca10:	e58d0058 	str	r0, [sp, #88]	@ 0x58
 800ca14:	e2810001 	add	r0, r1, #1
 800ca18:	e2000002 	and	r0, r0, #2
 800ca1c:	e58d0054 	str	r0, [sp, #84]	@ 0x54
 800ca20:	e59d1060 	ldr	r1, [sp, #96]	@ 0x60
 800ca24:	e59d0054 	ldr	r0, [sp, #84]	@ 0x54
 800ca28:	e59d205c 	ldr	r2, [sp, #92]	@ 0x5c
 800ca2c:	e5d11000 	ldrb	r1, [r1]
 800ca30:	e3500000 	cmp	r0, #0
 800ca34:	e1a0000c 	mov	r0, ip
 800ca38:	01a00005 	moveq	r0, r5
 800ca3c:	e1510002 	cmp	r1, r2
 800ca40:	8200e0ff 	andhi	lr, r0, #255	@ 0xff
 800ca44:	8151000e 	cmphi	r1, lr
 800ca48:	9a0003f1 	bls	0x800da14
 800ca4c:	e59d005c 	ldr	r0, [sp, #92]	@ 0x5c
 800ca50:	e59d2064 	ldr	r2, [sp, #100]	@ 0x64
 800ca54:	e023019e 	mla	r3, lr, r1, r0
 800ca58:	e1a001a3 	lsr	r0, r3, #3
 800ca5c:	e15201a3 	cmp	r2, r3, lsr #3
 800ca60:	9a00054d 	bls	0x800df9c
 800ca64:	e59d2068 	ldr	r2, [sp, #104]	@ 0x68
 800ca68:	e2033007 	and	r3, r3, #7
 800ca6c:	e7d28000 	ldrb	r8, [r2, r0]
 800ca70:	e1170338 	tst	r7, r8, lsr r3
 800ca74:	1a000011 	bne	0x800cac0
 800ca78:	e1590006 	cmp	r9, r6
 800ca7c:	2a00000f 	bcs	0x800cac0
 800ca80:	e1a011a9 	lsr	r1, r9, #3
 800ca84:	e15a01a9 	cmp	sl, r9, lsr #3
 800ca88:	9a000549 	bls	0x800dfb4
 800ca8c:	e3a02007 	mov	r2, #7
 800ca90:	e1884317 	orr	r4, r8, r7, lsl r3
 800ca94:	e1c2a009 	bic	sl, r2, r9
 800ca98:	e59b2008 	ldr	r2, [fp, #8]
 800ca9c:	e2899001 	add	r9, r9, #1
 800caa0:	e7d21001 	ldrb	r1, [r2, r1]
 800caa4:	e1170a31 	tst	r7, r1, lsr sl
 800caa8:	e59d1068 	ldr	r1, [sp, #104]	@ 0x68
 800caac:	e59da02c 	ldr	sl, [sp, #44]	@ 0x2c
 800cab0:	01c84317 	biceq	r4, r8, r7, lsl r3
 800cab4:	e7c14000 	strb	r4, [r1, r0]
 800cab8:	e59d0060 	ldr	r0, [sp, #96]	@ 0x60
 800cabc:	e5d01000 	ldrb	r1, [r0]
 800cac0:	e59d0058 	ldr	r0, [sp, #88]	@ 0x58
 800cac4:	e1510000 	cmp	r1, r0
 800cac8:	8151000e 	cmphi	r1, lr
 800cacc:	9a0003d0 	bls	0x800da14
 800cad0:	e59d0058 	ldr	r0, [sp, #88]	@ 0x58
 800cad4:	e024019e 	mla	r4, lr, r1, r0
 800cad8:	e59d1064 	ldr	r1, [sp, #100]	@ 0x64
 800cadc:	e1a001a4 	lsr	r0, r4, #3
 800cae0:	e15101a4 	cmp	r1, r4, lsr #3
 800cae4:	9a00052c 	bls	0x800df9c
 800cae8:	e59d1068 	ldr	r1, [sp, #104]	@ 0x68
 800caec:	e2044007 	and	r4, r4, #7
 800caf0:	e7d13000 	ldrb	r3, [r1, r0]
 800caf4:	e1170433 	tst	r7, r3, lsr r4
 800caf8:	1a000012 	bne	0x800cb48
 800cafc:	e1590006 	cmp	r9, r6
 800cb00:	2a000010 	bcs	0x800cb48
 800cb04:	e1a011a9 	lsr	r1, r9, #3
 800cb08:	e15a01a9 	cmp	sl, r9, lsr #3
 800cb0c:	9a000528 	bls	0x800dfb4
 800cb10:	e1a07006 	mov	r7, r6
 800cb14:	e3a06007 	mov	r6, #7
 800cb18:	e3a08001 	mov	r8, #1
 800cb1c:	e1c6e009 	bic	lr, r6, r9
 800cb20:	e59b6008 	ldr	r6, [fp, #8]
 800cb24:	e1832418 	orr	r2, r3, r8, lsl r4
 800cb28:	e2899001 	add	r9, r9, #1
 800cb2c:	e7d61001 	ldrb	r1, [r6, r1]
 800cb30:	e1a06007 	mov	r6, r7
 800cb34:	e3a07001 	mov	r7, #1
 800cb38:	e1180e31 	tst	r8, r1, lsr lr
 800cb3c:	e59d1068 	ldr	r1, [sp, #104]	@ 0x68
 800cb40:	01c32418 	biceq	r2, r3, r8, lsl r4
 800cb44:	e7c12000 	strb	r2, [r1, r0]
 800cb48:	e2455001 	sub	r5, r5, #1
 800cb4c:	e28cc001 	add	ip, ip, #1
 800cb50:	e3750001 	cmn	r5, #1
 800cb54:	1affffb1 	bne	0x800ca20
 800cb58:	e59d1050 	ldr	r1, [sp, #80]	@ 0x50
 800cb5c:	e2511002 	subs	r1, r1, #2
 800cb60:	caffffa1 	bgt	0x800c9ec
 800cb64:	e59d0060 	ldr	r0, [sp, #96]	@ 0x60
 800cb68:	e5d0e000 	ldrb	lr, [r0]
 800cb6c:	e24e3007 	sub	r3, lr, #7
 800cb70:	e20300ff 	and	r0, r3, #255	@ 0xff
 800cb74:	e2500007 	subs	r0, r0, #7
 800cb78:	33a00000 	movcc	r0, #0
 800cb7c:	e04020a0 	sub	r2, r0, r0, lsr #1
 800cb80:	e31200ff 	tst	r2, #255	@ 0xff
 800cb84:	0a000026 	beq	0x800cc24
 800cb88:	e3a01007 	mov	r1, #7
 800cb8c:	e3a0c001 	mov	ip, #1
 800cb90:	e59d0060 	ldr	r0, [sp, #96]	@ 0x60
 800cb94:	e5d00000 	ldrb	r0, [r0]
 800cb98:	e3500007 	cmp	r0, #7
 800cb9c:	220160ff 	andcs	r6, r1, #255	@ 0xff
 800cba0:	21500006 	cmpcs	r0, r6
 800cba4:	9a0004f0 	bls	0x800df6c
 800cba8:	e59d4064 	ldr	r4, [sp, #100]	@ 0x64
 800cbac:	e0050690 	mul	r5, r0, r6
 800cbb0:	e2855006 	add	r5, r5, #6
 800cbb4:	e1a001a5 	lsr	r0, r5, #3
 800cbb8:	e15401a5 	cmp	r4, r5, lsr #3
 800cbbc:	9a0004f3 	bls	0x800df90
 800cbc0:	e59d7068 	ldr	r7, [sp, #104]	@ 0x68
 800cbc4:	e2055007 	and	r5, r5, #7
 800cbc8:	e7d74000 	ldrb	r4, [r7, r0]
 800cbcc:	e1c4551c 	bic	r5, r4, ip, lsl r5
 800cbd0:	e7c75000 	strb	r5, [r7, r0]
 800cbd4:	e59d0060 	ldr	r0, [sp, #96]	@ 0x60
 800cbd8:	e5d00000 	ldrb	r0, [r0]
 800cbdc:	e1500006 	cmp	r0, r6
 800cbe0:	83500006 	cmphi	r0, #6
 800cbe4:	9a0004e0 	bls	0x800df6c
 800cbe8:	e59d5064 	ldr	r5, [sp, #100]	@ 0x64
 800cbec:	e0800080 	add	r0, r0, r0, lsl #1
 800cbf0:	e0866080 	add	r6, r6, r0, lsl #1
 800cbf4:	e1a001a6 	lsr	r0, r6, #3
 800cbf8:	e15501a6 	cmp	r5, r6, lsr #3
 800cbfc:	9a0004e3 	bls	0x800df90
 800cc00:	e59d7068 	ldr	r7, [sp, #104]	@ 0x68
 800cc04:	e2422001 	sub	r2, r2, #1
 800cc08:	e2066007 	and	r6, r6, #7
 800cc0c:	e2811002 	add	r1, r1, #2
 800cc10:	e31200ff 	tst	r2, #255	@ 0xff
 800cc14:	e7d75000 	ldrb	r5, [r7, r0]
 800cc18:	e1c5661c 	bic	r6, r5, ip, lsl r6
 800cc1c:	e7c76000 	strb	r6, [r7, r0]
 800cc20:	1affffda 	bne	0x800cb90
 800cc24:	e24e1008 	sub	r1, lr, #8
 800cc28:	e24e0004 	sub	r0, lr, #4
 800cc2c:	e58de048 	str	lr, [sp, #72]	@ 0x48
 800cc30:	e3e0c003 	mvn	ip, #3
 800cc34:	e3e0e000 	mvn	lr, #0
 800cc38:	e58d0050 	str	r0, [sp, #80]	@ 0x50
 800cc3c:	e20100ff 	and	r0, r1, #255	@ 0xff
 800cc40:	e58d104c 	str	r1, [sp, #76]	@ 0x4c
 800cc44:	e58d105c 	str	r1, [sp, #92]	@ 0x5c
 800cc48:	e58d0044 	str	r0, [sp, #68]	@ 0x44
 800cc4c:	e35c0000 	cmp	ip, #0
 800cc50:	e1a0200c 	mov	r2, ip
 800cc54:	e28c8003 	add	r8, ip, #3
 800cc58:	426c2000 	rsbmi	r2, ip, #0
 800cc5c:	e208a0ff 	and	sl, r8, #255	@ 0xff
 800cc60:	e3520005 	cmp	r2, #5
 800cc64:	2a00001b 	bcs	0x800ccd8
 800cc68:	e59d0048 	ldr	r0, [sp, #72]	@ 0x48
 800cc6c:	e3500008 	cmp	r0, #8
 800cc70:	3a000018 	bcc	0x800ccd8
 800cc74:	e59d0060 	ldr	r0, [sp, #96]	@ 0x60
 800cc78:	e59d104c 	ldr	r1, [sp, #76]	@ 0x4c
 800cc7c:	e5d00000 	ldrb	r0, [r0]
 800cc80:	e1510000 	cmp	r1, r0
 800cc84:	2a000013 	bcs	0x800ccd8
 800cc88:	e37c0003 	cmn	ip, #3
 800cc8c:	ba000011 	blt	0x800ccd8
 800cc90:	e1580000 	cmp	r8, r0
 800cc94:	2a00000f 	bcs	0x800ccd8
 800cc98:	e59d1044 	ldr	r1, [sp, #68]	@ 0x44
 800cc9c:	e1500001 	cmp	r0, r1
 800cca0:	8150000a 	cmphi	r0, sl
 800cca4:	9a0004b0 	bls	0x800df6c
 800cca8:	e59d104c 	ldr	r1, [sp, #76]	@ 0x4c
 800ccac:	e59d6064 	ldr	r6, [sp, #100]	@ 0x64
 800ccb0:	e0251098 	mla	r5, r8, r0, r1
 800ccb4:	e1a001a5 	lsr	r0, r5, #3
 800ccb8:	e15601a5 	cmp	r6, r5, lsr #3
 800ccbc:	9a0004b3 	bls	0x800df90
 800ccc0:	e59d7068 	ldr	r7, [sp, #104]	@ 0x68
 800ccc4:	e2055007 	and	r5, r5, #7
 800ccc8:	e3a01001 	mov	r1, #1
 800cccc:	e7d76000 	ldrb	r6, [r7, r0]
 800ccd0:	e1c65511 	bic	r5, r6, r1, lsl r5
 800ccd4:	e7c75000 	strb	r5, [r7, r0]
 800ccd8:	e59d0050 	ldr	r0, [sp, #80]	@ 0x50
 800ccdc:	e3a07000 	mov	r7, #0
 800cce0:	e08c9000 	add	r9, ip, r0
 800cce4:	e20900ff 	and	r0, r9, #255	@ 0xff
 800cce8:	e58d0058 	str	r0, [sp, #88]	@ 0x58
 800ccec:	e28c0001 	add	r0, ip, #1
 800ccf0:	e58d0054 	str	r0, [sp, #84]	@ 0x54
 800ccf4:	ea000008 	b	0x800cd1c
 800ccf8:	e59d1068 	ldr	r1, [sp, #104]	@ 0x68
 800ccfc:	e2055007 	and	r5, r5, #7
 800cd00:	e3a04001 	mov	r4, #1
 800cd04:	e7d16000 	ldrb	r6, [r1, r0]
 800cd08:	e1c65514 	bic	r5, r6, r4, lsl r5
 800cd0c:	e7c15000 	strb	r5, [r1, r0]
 800cd10:	e2877001 	add	r7, r7, #1
 800cd14:	e3570008 	cmp	r7, #8
 800cd18:	0a000049 	beq	0x800ce44
 800cd1c:	e2570003 	subs	r0, r7, #3
 800cd20:	42600000 	rsbmi	r0, r0, #0
 800cd24:	e1500002 	cmp	r0, r2
 800cd28:	d1a00002 	movle	r0, r2
 800cd2c:	e3500004 	cmp	r0, #4
 800cd30:	13500002 	cmpne	r0, #2
 800cd34:	1afffff5 	bne	0x800cd10
 800cd38:	e59d0060 	ldr	r0, [sp, #96]	@ 0x60
 800cd3c:	e37c0003 	cmn	ip, #3
 800cd40:	e5d00000 	ldrb	r0, [r0]
 800cd44:	ba000013 	blt	0x800cd98
 800cd48:	e1580000 	cmp	r8, r0
 800cd4c:	31570000 	cmpcc	r7, r0
 800cd50:	2a000010 	bcs	0x800cd98
 800cd54:	e150000a 	cmp	r0, sl
 800cd58:	9a000483 	bls	0x800df6c
 800cd5c:	e59d6064 	ldr	r6, [sp, #100]	@ 0x64
 800cd60:	e025709e 	mla	r5, lr, r0, r7
 800cd64:	e1a001a5 	lsr	r0, r5, #3
 800cd68:	e15601a5 	cmp	r6, r5, lsr #3
 800cd6c:	9a000487 	bls	0x800df90
 800cd70:	e1a0400a 	mov	r4, sl
 800cd74:	e59da068 	ldr	sl, [sp, #104]	@ 0x68
 800cd78:	e2055007 	and	r5, r5, #7
 800cd7c:	e3a01001 	mov	r1, #1
 800cd80:	e7da6000 	ldrb	r6, [sl, r0]
 800cd84:	e1c65511 	bic	r5, r6, r1, lsl r5
 800cd88:	e7ca5000 	strb	r5, [sl, r0]
 800cd8c:	e59d0060 	ldr	r0, [sp, #96]	@ 0x60
 800cd90:	e1a0a004 	mov	sl, r4
 800cd94:	e5d00000 	ldrb	r0, [r0]
 800cd98:	e0935007 	adds	r5, r3, r7
 800cd9c:	4a000016 	bmi	0x800cdfc
 800cda0:	e1550000 	cmp	r5, r0
 800cda4:	2a000014 	bcs	0x800cdfc
 800cda8:	e37c0003 	cmn	ip, #3
 800cdac:	ba000012 	blt	0x800cdfc
 800cdb0:	e1580000 	cmp	r8, r0
 800cdb4:	2a000010 	bcs	0x800cdfc
 800cdb8:	e20560ff 	and	r6, r5, #255	@ 0xff
 800cdbc:	e1500006 	cmp	r0, r6
 800cdc0:	8150000a 	cmphi	r0, sl
 800cdc4:	9a000468 	bls	0x800df6c
 800cdc8:	e026509e 	mla	r6, lr, r0, r5
 800cdcc:	e59d5064 	ldr	r5, [sp, #100]	@ 0x64
 800cdd0:	e1a001a6 	lsr	r0, r6, #3
 800cdd4:	e15501a6 	cmp	r5, r6, lsr #3
 800cdd8:	9a00046c 	bls	0x800df90
 800cddc:	e59d1068 	ldr	r1, [sp, #104]	@ 0x68
 800cde0:	e2066007 	and	r6, r6, #7
 800cde4:	e3a04001 	mov	r4, #1
 800cde8:	e7d15000 	ldrb	r5, [r1, r0]
 800cdec:	e1c55614 	bic	r5, r5, r4, lsl r6
 800cdf0:	e7c15000 	strb	r5, [r1, r0]
 800cdf4:	e59d0060 	ldr	r0, [sp, #96]	@ 0x60
 800cdf8:	e5d00000 	ldrb	r0, [r0]
 800cdfc:	e1570000 	cmp	r7, r0
 800ce00:	2affffc2 	bcs	0x800cd10
 800ce04:	e3590000 	cmp	r9, #0
 800ce08:	4affffc0 	bmi	0x800cd10
 800ce0c:	e1590000 	cmp	r9, r0
 800ce10:	2affffbe 	bcs	0x800cd10
 800ce14:	e20750ff 	and	r5, r7, #255	@ 0xff
 800ce18:	e1500005 	cmp	r0, r5
 800ce1c:	859d1058 	ldrhi	r1, [sp, #88]	@ 0x58
 800ce20:	81500001 	cmphi	r0, r1
 800ce24:	9a000450 	bls	0x800df6c
 800ce28:	e59d105c 	ldr	r1, [sp, #92]	@ 0x5c
 800ce2c:	e59d6064 	ldr	r6, [sp, #100]	@ 0x64
 800ce30:	e0257091 	mla	r5, r1, r0, r7
 800ce34:	e1a001a5 	lsr	r0, r5, #3
 800ce38:	e15601a5 	cmp	r6, r5, lsr #3
 800ce3c:	8affffad 	bhi	0x800ccf8
 800ce40:	ea000452 	b	0x800df90
 800ce44:	e59d005c 	ldr	r0, [sp, #92]	@ 0x5c
 800ce48:	e59dc054 	ldr	ip, [sp, #84]	@ 0x54
 800ce4c:	e28ee001 	add	lr, lr, #1
 800ce50:	e2800001 	add	r0, r0, #1
 800ce54:	e35c0005 	cmp	ip, #5
 800ce58:	e58d005c 	str	r0, [sp, #92]	@ 0x5c
 800ce5c:	1affff7a 	bne	0x800cc4c
 800ce60:	e3a00000 	mov	r0, #0
 800ce64:	e3e01000 	mvn	r1, #0
 800ce68:	e54b003a 	strb	r0, [fp, #-58]	@ 0xffffffc6
 800ce6c:	e14b03bc 	strh	r0, [fp, #-60]	@ 0xffffffc4
 800ce70:	e50b0040 	str	r0, [fp, #-64]	@ 0xffffffc0
 800ce74:	e59d0060 	ldr	r0, [sp, #96]	@ 0x60
 800ce78:	e5d06000 	ldrb	r6, [r0]
 800ce7c:	e2460011 	sub	r0, r6, #17
 800ce80:	e20040ff 	and	r4, r0, #255	@ 0xff
 800ce84:	e0811124 	add	r1, r1, r4, lsr #2
 800ce88:	e3510028 	cmp	r1, #40	@ 0x28
 800ce8c:	2a00043a 	bcs	0x800df7c
 800ce90:	e1a02124 	lsr	r2, r4, #2
 800ce94:	e3a01001 	mov	r1, #1
 800ce98:	e3520001 	cmp	r2, #1
 800ce9c:	1a00032d 	bne	0x800db58
 800cea0:	e20000ff 	and	r0, r0, #255	@ 0xff
 800cea4:	e24b4064 	sub	r4, fp, #100	@ 0x64
 800cea8:	e350001c 	cmp	r0, #28
 800ceac:	3a000055 	bcc	0x800d008
 800ceb0:	e3a02025 	mov	r2, #37	@ 0x25
 800ceb4:	e1a002a1 	lsr	r0, r1, #5
 800ceb8:	e3a09001 	mov	r9, #1
 800cebc:	e3a0c0ab 	mov	ip, #171	@ 0xab
 800cec0:	e3822c1f 	orr	r2, r2, #7936	@ 0x1f00
 800cec4:	e0030290 	mul	r3, r0, r2
 800cec8:	e0230381 	eor	r0, r3, r1, lsl #7
 800cecc:	e1a035a0 	lsr	r3, r0, #11
 800ced0:	e0070293 	mul	r7, r3, r2
 800ced4:	e0270080 	eor	r0, r7, r0, lsl #1
 800ced8:	e1a035a0 	lsr	r3, r0, #11
 800cedc:	e0070293 	mul	r7, r3, r2
 800cee0:	e0270080 	eor	r0, r7, r0, lsl #1
 800cee4:	e1a035a0 	lsr	r3, r0, #11
 800cee8:	e0070293 	mul	r7, r3, r2
 800ceec:	e0270080 	eor	r0, r7, r0, lsl #1
 800cef0:	e1a035a0 	lsr	r3, r0, #11
 800cef4:	e0070293 	mul	r7, r3, r2
 800cef8:	e0270080 	eor	r0, r7, r0, lsl #1
 800cefc:	e1a035a0 	lsr	r3, r0, #11
 800cf00:	e0070293 	mul	r7, r3, r2
 800cf04:	e3a03000 	mov	r3, #0
 800cf08:	e0270080 	eor	r0, r7, r0, lsl #1
 800cf0c:	e180e601 	orr	lr, r0, r1, lsl #12
 800cf10:	e59d0048 	ldr	r0, [sp, #72]	@ 0x48
 800cf14:	e240800b 	sub	r8, r0, #11
 800cf18:	e20300ff 	and	r0, r3, #255	@ 0xff
 800cf1c:	e0010c90 	mul	r1, r0, ip
 800cf20:	e59d0060 	ldr	r0, [sp, #96]	@ 0x60
 800cf24:	e5d00000 	ldrb	r0, [r0]
 800cf28:	e15004a1 	cmp	r0, r1, lsr #9
 800cf2c:	81a054a1 	lsrhi	r5, r1, #9
 800cf30:	80851085 	addhi	r1, r5, r5, lsl #1
 800cf34:	80431001 	subhi	r1, r3, r1
 800cf38:	80881001 	addhi	r1, r8, r1
 800cf3c:	820140ff 	andhi	r4, r1, #255	@ 0xff
 800cf40:	81500004 	cmphi	r0, r4
 800cf44:	9a000408 	bls	0x800df6c
 800cf48:	e0224095 	mla	r2, r5, r0, r4
 800cf4c:	e01e6319 	ands	r6, lr, r9, lsl r3
 800cf50:	e2021007 	and	r1, r2, #7
 800cf54:	e1a001a2 	lsr	r0, r2, #3
 800cf58:	0a000006 	beq	0x800cf78
 800cf5c:	e59d2064 	ldr	r2, [sp, #100]	@ 0x64
 800cf60:	e1500002 	cmp	r0, r2
 800cf64:	2a00041e 	bcs	0x800dfe4
 800cf68:	e59d7068 	ldr	r7, [sp, #104]	@ 0x68
 800cf6c:	e7d72000 	ldrb	r2, [r7, r0]
 800cf70:	e1821119 	orr	r1, r2, r9, lsl r1
 800cf74:	ea000005 	b	0x800cf90
 800cf78:	e59d2064 	ldr	r2, [sp, #100]	@ 0x64
 800cf7c:	e1500002 	cmp	r0, r2
 800cf80:	2a000402 	bcs	0x800df90
 800cf84:	e59d7068 	ldr	r7, [sp, #104]	@ 0x68
 800cf88:	e7d72000 	ldrb	r2, [r7, r0]
 800cf8c:	e1c21119 	bic	r1, r2, r9, lsl r1
 800cf90:	e7c71000 	strb	r1, [r7, r0]
 800cf94:	e59d0060 	ldr	r0, [sp, #96]	@ 0x60
 800cf98:	e5d00000 	ldrb	r0, [r0]
 800cf9c:	e1500005 	cmp	r0, r5
 800cfa0:	81500004 	cmphi	r0, r4
 800cfa4:	9a0003f0 	bls	0x800df6c
 800cfa8:	e0215490 	mla	r1, r0, r4, r5
 800cfac:	e3560000 	cmp	r6, #0
 800cfb0:	e2015007 	and	r5, r1, #7
 800cfb4:	e1a001a1 	lsr	r0, r1, #3
 800cfb8:	0a000007 	beq	0x800cfdc
 800cfbc:	e59d1064 	ldr	r1, [sp, #100]	@ 0x64
 800cfc0:	e24b4064 	sub	r4, fp, #100	@ 0x64
 800cfc4:	e1500001 	cmp	r0, r1
 800cfc8:	2a000405 	bcs	0x800dfe4
 800cfcc:	e59d2068 	ldr	r2, [sp, #104]	@ 0x68
 800cfd0:	e7d21000 	ldrb	r1, [r2, r0]
 800cfd4:	e1811519 	orr	r1, r1, r9, lsl r5
 800cfd8:	ea000006 	b	0x800cff8
 800cfdc:	e59d1064 	ldr	r1, [sp, #100]	@ 0x64
 800cfe0:	e24b4064 	sub	r4, fp, #100	@ 0x64
 800cfe4:	e1500001 	cmp	r0, r1
 800cfe8:	2a0003e8 	bcs	0x800df90
 800cfec:	e59d2068 	ldr	r2, [sp, #104]	@ 0x68
 800cff0:	e7d21000 	ldrb	r1, [r2, r0]
 800cff4:	e1c11519 	bic	r1, r1, r9, lsl r5
 800cff8:	e2833001 	add	r3, r3, #1
 800cffc:	e7c21000 	strb	r1, [r2, r0]
 800d000:	e3530012 	cmp	r3, #18
 800d004:	1affffc3 	bne	0x800cf18
 800d008:	e59b1008 	ldr	r1, [fp, #8]
 800d00c:	e59d200c 	ldr	r2, [sp, #12]
 800d010:	e59b3014 	ldr	r3, [fp, #20]
 800d014:	e24b6070 	sub	r6, fp, #112	@ 0x70
 800d018:	e1a00006 	mov	r0, r6
 800d01c:	eb000453 	bl	0x800e170
 800d020:	e24b0040 	sub	r0, fp, #64	@ 0x40
 800d024:	e3a01000 	mov	r1, #0
 800d028:	e3e05102 	mvn	r5, #-2147483648	@ 0x80000000
 800d02c:	e3a07000 	mov	r7, #0
 800d030:	e2800004 	add	r0, r0, #4
 800d034:	e58d0040 	str	r0, [sp, #64]	@ 0x40
 800d038:	e2840004 	add	r0, r4, #4
 800d03c:	e28d406c 	add	r4, sp, #108	@ 0x6c
 800d040:	e58d0050 	str	r0, [sp, #80]	@ 0x50
 800d044:	e58d1034 	str	r1, [sp, #52]	@ 0x34
 800d048:	e1a00004 	mov	r0, r4
 800d04c:	e1a01006 	mov	r1, r6
 800d050:	e1a02007 	mov	r2, r7
 800d054:	e58d5030 	str	r5, [sp, #48]	@ 0x30
 800d058:	eb000875 	bl	0x800f234
 800d05c:	e59b1010 	ldr	r1, [fp, #16]
 800d060:	e1a00004 	mov	r0, r4
 800d064:	e1a02007 	mov	r2, r7
 800d068:	eb000925 	bl	0x800f504
 800d06c:	e59d0060 	ldr	r0, [sp, #96]	@ 0x60
 800d070:	e58d7038 	str	r7, [sp, #56]	@ 0x38
 800d074:	e5d0c000 	ldrb	ip, [r0]
 800d078:	e35c0000 	cmp	ip, #0
 800d07c:	e58dc05c 	str	ip, [sp, #92]	@ 0x5c
 800d080:	0a0000d9 	beq	0x800d3ec
 800d084:	e3a03000 	mov	r3, #0
 800d088:	e3a04000 	mov	r4, #0
 800d08c:	e3a02000 	mov	r2, #0
 800d090:	e3a0e001 	mov	lr, #1
 800d094:	e58dc03c 	str	ip, [sp, #60]	@ 0x3c
 800d098:	ea000012 	b	0x800d0e8
 800d09c:	e59d4044 	ldr	r4, [sp, #68]	@ 0x44
 800d0a0:	e3a03000 	mov	r3, #0
 800d0a4:	e3a0e001 	mov	lr, #1
 800d0a8:	e51b7028 	ldr	r7, [fp, #-40]	@ 0xffffffd8
 800d0ac:	e1500001 	cmp	r0, r1
 800d0b0:	e3a00000 	mov	r0, #0
 800d0b4:	a3a00001 	movge	r0, #1
 800d0b8:	e1570101 	cmp	r7, r1, lsl #2
 800d0bc:	e3a01000 	mov	r1, #0
 800d0c0:	a3a01001 	movge	r1, #1
 800d0c4:	e154000c 	cmp	r4, ip
 800d0c8:	e0031001 	and	r1, r3, r1
 800d0cc:	e59d304c 	ldr	r3, [sp, #76]	@ 0x4c
 800d0d0:	e0000001 	and	r0, r0, r1
 800d0d4:	e0820000 	add	r0, r2, r0
 800d0d8:	e1800100 	orr	r0, r0, r0, lsl #2
 800d0dc:	e0892180 	add	r2, r9, r0, lsl #3
 800d0e0:	e083300c 	add	r3, r3, ip
 800d0e4:	0a00012d 	beq	0x800d5a0
 800d0e8:	e3a00000 	mov	r0, #0
 800d0ec:	e3a05000 	mov	r5, #0
 800d0f0:	e3a0a000 	mov	sl, #0
 800d0f4:	e3a08000 	mov	r8, #0
 800d0f8:	e58d304c 	str	r3, [sp, #76]	@ 0x4c
 800d0fc:	e58d4048 	str	r4, [sp, #72]	@ 0x48
 800d100:	e50b004c 	str	r0, [fp, #-76]	@ 0xffffffb4
 800d104:	e50b0050 	str	r0, [fp, #-80]	@ 0xffffffb0
 800d108:	e50b0054 	str	r0, [fp, #-84]	@ 0xffffffac
 800d10c:	e50b0058 	str	r0, [fp, #-88]	@ 0xffffffa8
 800d110:	e50b005c 	str	r0, [fp, #-92]	@ 0xffffffa4
 800d114:	e50b0060 	str	r0, [fp, #-96]	@ 0xffffffa0
 800d118:	e50b0064 	str	r0, [fp, #-100]	@ 0xffffff9c
 800d11c:	e2840001 	add	r0, r4, #1
 800d120:	e58d0044 	str	r0, [sp, #68]	@ 0x44
 800d124:	e3a00000 	mov	r0, #0
 800d128:	e58d0054 	str	r0, [sp, #84]	@ 0x54
 800d12c:	ea000007 	b	0x800d150
 800d130:	082fe300 	stmdaeq	pc!, {r8, r9, sp, lr, pc}	@ <UNPREDICTABLE>
 800d134:	082fe3a4 	stmdaeq	pc!, {r2, r5, r7, r8, r9, sp, lr, pc}	@ <UNPREDICTABLE>
 800d138:	e59dc05c 	ldr	ip, [sp, #92]	@ 0x5c
 800d13c:	e2822003 	add	r2, r2, #3
 800d140:	e3a08005 	mov	r8, #5
 800d144:	e2855001 	add	r5, r5, #1
 800d148:	e15c0005 	cmp	ip, r5
 800d14c:	0a000061 	beq	0x800d2d8
 800d150:	e155000c 	cmp	r5, ip
 800d154:	3154000c 	cmpcc	r4, ip
 800d158:	2a00022d 	bcs	0x800da14
 800d15c:	e59d0064 	ldr	r0, [sp, #100]	@ 0x64
 800d160:	e0837005 	add	r7, r3, r5
 800d164:	e1a061a7 	lsr	r6, r7, #3
 800d168:	e15001a7 	cmp	r0, r7, lsr #3
 800d16c:	9a000394 	bls	0x800dfc4
 800d170:	e59d0068 	ldr	r0, [sp, #104]	@ 0x68
 800d174:	e2079007 	and	r9, r7, #7
 800d178:	e20a1001 	and	r1, sl, #1
 800d17c:	e7d00006 	ldrb	r0, [r0, r6]
 800d180:	e00e0930 	and	r0, lr, r0, lsr r9
 800d184:	e1510000 	cmp	r1, r0
 800d188:	0a00000e 	beq	0x800d1c8
 800d18c:	e59d0050 	ldr	r0, [sp, #80]	@ 0x50
 800d190:	e58d2058 	str	r2, [sp, #88]	@ 0x58
 800d194:	e24b1064 	sub	r1, fp, #100	@ 0x64
 800d198:	e3a02018 	mov	r2, #24
 800d19c:	eb000e88 	bl	0x8010bc4
 800d1a0:	e59d0054 	ldr	r0, [sp, #84]	@ 0x54
 800d1a4:	e59dc05c 	ldr	ip, [sp, #92]	@ 0x5c
 800d1a8:	e3500000 	cmp	r0, #0
 800d1ac:	0088800c 	addeq	r8, r8, ip
 800d1b0:	e31a0001 	tst	sl, #1
 800d1b4:	e50b8064 	str	r8, [fp, #-100]	@ 0xffffff9c
 800d1b8:	0a000008 	beq	0x800d1e0
 800d1bc:	e59d2058 	ldr	r2, [sp, #88]	@ 0x58
 800d1c0:	e3a0e001 	mov	lr, #1
 800d1c4:	ea000037 	b	0x800d2a8
 800d1c8:	e2888001 	add	r8, r8, #1
 800d1cc:	e3580005 	cmp	r8, #5
 800d1d0:	0affffd8 	beq	0x800d138
 800d1d4:	e59dc05c 	ldr	ip, [sp, #92]	@ 0x5c
 800d1d8:	c2822001 	addgt	r2, r2, #1
 800d1dc:	eaffffd8 	b	0x800d144
 800d1e0:	e51b0060 	ldr	r0, [fp, #-96]	@ 0xffffffa0
 800d1e4:	e3a01000 	mov	r1, #0
 800d1e8:	e3500001 	cmp	r0, #1
 800d1ec:	ba00001c 	blt	0x800d264
 800d1f0:	e51b205c 	ldr	r2, [fp, #-92]	@ 0xffffffa4
 800d1f4:	e3a0e001 	mov	lr, #1
 800d1f8:	e1520000 	cmp	r2, r0
 800d1fc:	e3a02000 	mov	r2, #0
 800d200:	1a00001b 	bne	0x800d274
 800d204:	e51b3058 	ldr	r3, [fp, #-88]	@ 0xffffffa8
 800d208:	e0802080 	add	r2, r0, r0, lsl #1
 800d20c:	e1530002 	cmp	r3, r2
 800d210:	1a000016 	bne	0x800d270
 800d214:	e51b2054 	ldr	r2, [fp, #-84]	@ 0xffffffac
 800d218:	e1520000 	cmp	r2, r0
 800d21c:	e3a02000 	mov	r2, #0
 800d220:	1a000013 	bne	0x800d274
 800d224:	e51b3050 	ldr	r3, [fp, #-80]	@ 0xffffffb0
 800d228:	e0431000 	sub	r1, r3, r0
 800d22c:	e2712000 	rsbs	r2, r1, #0
 800d230:	e0a12002 	adc	r2, r1, r2
 800d234:	e3a01000 	mov	r1, #0
 800d238:	e1530000 	cmp	r3, r0
 800d23c:	1a00000c 	bne	0x800d274
 800d240:	e1a03100 	lsl	r3, r0, #2
 800d244:	e1580003 	cmp	r8, r3
 800d248:	ba000009 	blt	0x800d274
 800d24c:	e51b104c 	ldr	r1, [fp, #-76]	@ 0xffffffb4
 800d250:	e3a02001 	mov	r2, #1
 800d254:	e1510000 	cmp	r1, r0
 800d258:	e3a01000 	mov	r1, #0
 800d25c:	a3a01001 	movge	r1, #1
 800d260:	ea000003 	b	0x800d274
 800d264:	e3a02000 	mov	r2, #0
 800d268:	e3a0e001 	mov	lr, #1
 800d26c:	ea000000 	b	0x800d274
 800d270:	e3a02000 	mov	r2, #0
 800d274:	e51b404c 	ldr	r4, [fp, #-76]	@ 0xffffffb4
 800d278:	e1580000 	cmp	r8, r0
 800d27c:	e3a03000 	mov	r3, #0
 800d280:	a3a03001 	movge	r3, #1
 800d284:	e1540100 	cmp	r4, r0, lsl #2
 800d288:	e3a00000 	mov	r0, #0
 800d28c:	a3a00001 	movge	r0, #1
 800d290:	e0020000 	and	r0, r2, r0
 800d294:	e59d2058 	ldr	r2, [sp, #88]	@ 0x58
 800d298:	e0000003 	and	r0, r0, r3
 800d29c:	e0810000 	add	r0, r1, r0
 800d2a0:	e1800100 	orr	r0, r0, r0, lsl #2
 800d2a4:	e0822180 	add	r2, r2, r0, lsl #3
 800d2a8:	e59d0064 	ldr	r0, [sp, #100]	@ 0x64
 800d2ac:	e59d304c 	ldr	r3, [sp, #76]	@ 0x4c
 800d2b0:	e59d4048 	ldr	r4, [sp, #72]	@ 0x48
 800d2b4:	e15001a7 	cmp	r0, r7, lsr #3
 800d2b8:	9a000341 	bls	0x800dfc4
 800d2bc:	e59d0068 	ldr	r0, [sp, #104]	@ 0x68
 800d2c0:	e3a01001 	mov	r1, #1
 800d2c4:	e58d8054 	str	r8, [sp, #84]	@ 0x54
 800d2c8:	e3a08001 	mov	r8, #1
 800d2cc:	e7d00006 	ldrb	r0, [r0, r6]
 800d2d0:	e001a930 	and	sl, r1, r0, lsr r9
 800d2d4:	eaffff9a 	b	0x800d144
 800d2d8:	e24b1064 	sub	r1, fp, #100	@ 0x64
 800d2dc:	e1a09002 	mov	r9, r2
 800d2e0:	e24b5040 	sub	r5, fp, #64	@ 0x40
 800d2e4:	e31a0001 	tst	sl, #1
 800d2e8:	e8b1008c 	ldm	r1!, {r2, r3, r7}
 800d2ec:	e1a00005 	mov	r0, r5
 800d2f0:	e8a0008c 	stmia	r0!, {r2, r3, r7}
 800d2f4:	e89100cc 	ldm	r1, {r2, r3, r6, r7}
 800d2f8:	e88000cc 	stm	r0, {r2, r3, r6, r7}
 800d2fc:	e51b6040 	ldr	r6, [fp, #-64]	@ 0xffffffc0
 800d300:	0a00000b 	beq	0x800d334
 800d304:	e59d4040 	ldr	r4, [sp, #64]	@ 0x40
 800d308:	e1a01005 	mov	r1, r5
 800d30c:	e3a02018 	mov	r2, #24
 800d310:	e1a0700c 	mov	r7, ip
 800d314:	e1a00004 	mov	r0, r4
 800d318:	eb000e29 	bl	0x8010bc4
 800d31c:	e3560000 	cmp	r6, #0
 800d320:	e3a0a000 	mov	sl, #0
 800d324:	00888007 	addeq	r8, r8, r7
 800d328:	e50b8040 	str	r8, [fp, #-64]	@ 0xffffffc0
 800d32c:	e1a06008 	mov	r6, r8
 800d330:	ea000002 	b	0x800d340
 800d334:	e59d4040 	ldr	r4, [sp, #64]	@ 0x40
 800d338:	e1a0a008 	mov	sl, r8
 800d33c:	e1a0700c 	mov	r7, ip
 800d340:	e1a00004 	mov	r0, r4
 800d344:	e1a01005 	mov	r1, r5
 800d348:	e3a02018 	mov	r2, #24
 800d34c:	eb000e1c 	bl	0x8010bc4
 800d350:	e51b103c 	ldr	r1, [fp, #-60]	@ 0xffffffc4
 800d354:	e08a0007 	add	r0, sl, r7
 800d358:	e3560000 	cmp	r6, #0
 800d35c:	e3a02000 	mov	r2, #0
 800d360:	e1a0c007 	mov	ip, r7
 800d364:	00800007 	addeq	r0, r0, r7
 800d368:	e3510001 	cmp	r1, #1
 800d36c:	baffff4a 	blt	0x800d09c
 800d370:	e51b3038 	ldr	r3, [fp, #-56]	@ 0xffffffc8
 800d374:	e59d4044 	ldr	r4, [sp, #68]	@ 0x44
 800d378:	e3a0e001 	mov	lr, #1
 800d37c:	e1530001 	cmp	r3, r1
 800d380:	e3a03000 	mov	r3, #0
 800d384:	1affff47 	bne	0x800d0a8
 800d388:	e51b7034 	ldr	r7, [fp, #-52]	@ 0xffffffcc
 800d38c:	e0813081 	add	r3, r1, r1, lsl #1
 800d390:	e1570003 	cmp	r7, r3
 800d394:	1a000012 	bne	0x800d3e4
 800d398:	e51b3030 	ldr	r3, [fp, #-48]	@ 0xffffffd0
 800d39c:	e1530001 	cmp	r3, r1
 800d3a0:	e3a03000 	mov	r3, #0
 800d3a4:	1affff3f 	bne	0x800d0a8
 800d3a8:	e51b702c 	ldr	r7, [fp, #-44]	@ 0xffffffd4
 800d3ac:	e0472001 	sub	r2, r7, r1
 800d3b0:	e2723000 	rsbs	r3, r2, #0
 800d3b4:	e0a23003 	adc	r3, r2, r3
 800d3b8:	e3a02000 	mov	r2, #0
 800d3bc:	e1500101 	cmp	r0, r1, lsl #2
 800d3c0:	baffff38 	blt	0x800d0a8
 800d3c4:	e1570001 	cmp	r7, r1
 800d3c8:	1affff36 	bne	0x800d0a8
 800d3cc:	e51b2028 	ldr	r2, [fp, #-40]	@ 0xffffffd8
 800d3d0:	e3a03001 	mov	r3, #1
 800d3d4:	e1520001 	cmp	r2, r1
 800d3d8:	e3a02000 	mov	r2, #0
 800d3dc:	a3a02001 	movge	r2, #1
 800d3e0:	eaffff30 	b	0x800d0a8
 800d3e4:	e3a03000 	mov	r3, #0
 800d3e8:	eaffff2e 	b	0x800d0a8
 800d3ec:	e3a000ff 	mov	r0, #255	@ 0xff
 800d3f0:	e3a01000 	mov	r1, #0
 800d3f4:	e3a08000 	mov	r8, #0
 800d3f8:	e3a0e001 	mov	lr, #1
 800d3fc:	e20000ff 	and	r0, r0, #255	@ 0xff
 800d400:	e3a0a000 	mov	sl, #0
 800d404:	e1a09001 	mov	r9, r1
 800d408:	e3a0c000 	mov	ip, #0
 800d40c:	e58d103c 	str	r1, [sp, #60]	@ 0x3c
 800d410:	e58d0058 	str	r0, [sp, #88]	@ 0x58
 800d414:	e2410001 	sub	r0, r1, #1
 800d418:	e20030ff 	and	r3, r0, #255	@ 0xff
 800d41c:	ea000005 	b	0x800d438
 800d420:	e59d103c 	ldr	r1, [sp, #60]	@ 0x3c
 800d424:	e59d0058 	ldr	r0, [sp, #88]	@ 0x58
 800d428:	e0899001 	add	r9, r9, r1
 800d42c:	e08aa001 	add	sl, sl, r1
 800d430:	e15c0000 	cmp	ip, r0
 800d434:	0a00012c 	beq	0x800d8ec
 800d438:	e15c0001 	cmp	ip, r1
 800d43c:	0a000174 	beq	0x800da14
 800d440:	e28cc001 	add	ip, ip, #1
 800d444:	e1a0400a 	mov	r4, sl
 800d448:	e1a02003 	mov	r2, r3
 800d44c:	e15c0001 	cmp	ip, r1
 800d450:	2a000037 	bcs	0x800d534
 800d454:	e3a04000 	mov	r4, #0
 800d458:	ea00000a 	b	0x800d488
 800d45c:	e59d2068 	ldr	r2, [sp, #104]	@ 0x68
 800d460:	e3570000 	cmp	r7, #0
 800d464:	e2011007 	and	r1, r1, #7
 800d468:	13a07001 	movne	r7, #1
 800d46c:	e7d20000 	ldrb	r0, [r2, r0]
 800d470:	e0270130 	eor	r0, r7, r0, lsr r1
 800d474:	e3100001 	tst	r0, #1
 800d478:	02888003 	addeq	r8, r8, #3
 800d47c:	e2844001 	add	r4, r4, #1
 800d480:	e1530004 	cmp	r3, r4
 800d484:	0affffe5 	beq	0x800d420
 800d488:	e59d1064 	ldr	r1, [sp, #100]	@ 0x64
 800d48c:	e08a2004 	add	r2, sl, r4
 800d490:	e1a001a2 	lsr	r0, r2, #3
 800d494:	e15101a2 	cmp	r1, r2, lsr #3
 800d498:	9a0002bf 	bls	0x800df9c
 800d49c:	e1530004 	cmp	r3, r4
 800d4a0:	0a00015b 	beq	0x800da14
 800d4a4:	e59d7064 	ldr	r7, [sp, #100]	@ 0x64
 800d4a8:	e2825001 	add	r5, r2, #1
 800d4ac:	e1a011a5 	lsr	r1, r5, #3
 800d4b0:	e15701a5 	cmp	r7, r5, lsr #3
 800d4b4:	9a0002c6 	bls	0x800dfd4
 800d4b8:	e59d6068 	ldr	r6, [sp, #104]	@ 0x68
 800d4bc:	e2022007 	and	r2, r2, #7
 800d4c0:	e7d60000 	ldrb	r0, [r6, r0]
 800d4c4:	e010721e 	ands	r7, r0, lr, lsl r2
 800d4c8:	e7d60001 	ldrb	r0, [r6, r1]
 800d4cc:	e2051007 	and	r1, r5, #7
 800d4d0:	e1a02007 	mov	r2, r7
 800d4d4:	13a02001 	movne	r2, #1
 800d4d8:	e0220130 	eor	r0, r2, r0, lsr r1
 800d4dc:	e3100001 	tst	r0, #1
 800d4e0:	1affffe5 	bne	0x800d47c
 800d4e4:	e59d2064 	ldr	r2, [sp, #100]	@ 0x64
 800d4e8:	e0891004 	add	r1, r9, r4
 800d4ec:	e1a001a1 	lsr	r0, r1, #3
 800d4f0:	e15201a1 	cmp	r2, r1, lsr #3
 800d4f4:	9a0002a8 	bls	0x800df9c
 800d4f8:	e59d2068 	ldr	r2, [sp, #104]	@ 0x68
 800d4fc:	e3570000 	cmp	r7, #0
 800d500:	e1a06007 	mov	r6, r7
 800d504:	13a06001 	movne	r6, #1
 800d508:	e7d20000 	ldrb	r0, [r2, r0]
 800d50c:	e2012007 	and	r2, r1, #7
 800d510:	e0260230 	eor	r0, r6, r0, lsr r2
 800d514:	e3100001 	tst	r0, #1
 800d518:	1affffd7 	bne	0x800d47c
 800d51c:	e59d2064 	ldr	r2, [sp, #100]	@ 0x64
 800d520:	e2811001 	add	r1, r1, #1
 800d524:	e1a001a1 	lsr	r0, r1, #3
 800d528:	e15201a1 	cmp	r2, r1, lsr #3
 800d52c:	8affffca 	bhi	0x800d45c
 800d530:	ea000299 	b	0x800df9c
 800d534:	e59d1064 	ldr	r1, [sp, #100]	@ 0x64
 800d538:	e1a001a4 	lsr	r0, r4, #3
 800d53c:	e15101a4 	cmp	r1, r4, lsr #3
 800d540:	9a000295 	bls	0x800df9c
 800d544:	e3520000 	cmp	r2, #0
 800d548:	0a000131 	beq	0x800da14
 800d54c:	e59d5064 	ldr	r5, [sp, #100]	@ 0x64
 800d550:	e284e001 	add	lr, r4, #1
 800d554:	e3a06001 	mov	r6, #1
 800d558:	e1a011ae 	lsr	r1, lr, #3
 800d55c:	e15501ae 	cmp	r5, lr, lsr #3
 800d560:	9a00029b 	bls	0x800dfd4
 800d564:	e59d5068 	ldr	r5, [sp, #104]	@ 0x68
 800d568:	e2044007 	and	r4, r4, #7
 800d56c:	e7d50000 	ldrb	r0, [r5, r0]
 800d570:	e7d51001 	ldrb	r1, [r5, r1]
 800d574:	e0100416 	ands	r0, r0, r6, lsl r4
 800d578:	e20e4007 	and	r4, lr, #7
 800d57c:	13a00001 	movne	r0, #1
 800d580:	e0200431 	eor	r0, r0, r1, lsr r4
 800d584:	e3100001 	tst	r0, #1
 800d588:	0a000121 	beq	0x800da14
 800d58c:	e1a0400e 	mov	r4, lr
 800d590:	e2522001 	subs	r2, r2, #1
 800d594:	e3a0e001 	mov	lr, #1
 800d598:	1affffe5 	bne	0x800d534
 800d59c:	eaffff9f 	b	0x800d420
 800d5a0:	e3a04000 	mov	r4, #0
 800d5a4:	e3a00000 	mov	r0, #0
 800d5a8:	e1a03004 	mov	r3, r4
 800d5ac:	e1a08004 	mov	r8, r4
 800d5b0:	e3a0a000 	mov	sl, #0
 800d5b4:	e3a05000 	mov	r5, #0
 800d5b8:	e3a09000 	mov	r9, #0
 800d5bc:	e50b004c 	str	r0, [fp, #-76]	@ 0xffffffb4
 800d5c0:	e50b0050 	str	r0, [fp, #-80]	@ 0xffffffb0
 800d5c4:	e50b0054 	str	r0, [fp, #-84]	@ 0xffffffac
 800d5c8:	e50b0058 	str	r0, [fp, #-88]	@ 0xffffffa8
 800d5cc:	e50b005c 	str	r0, [fp, #-92]	@ 0xffffffa4
 800d5d0:	e50b0060 	str	r0, [fp, #-96]	@ 0xffffffa0
 800d5d4:	e50b0064 	str	r0, [fp, #-100]	@ 0xffffff9c
 800d5d8:	e2840001 	add	r0, r4, #1
 800d5dc:	e3a04000 	mov	r4, #0
 800d5e0:	e58d3054 	str	r3, [sp, #84]	@ 0x54
 800d5e4:	e58d004c 	str	r0, [sp, #76]	@ 0x4c
 800d5e8:	e153000c 	cmp	r3, ip
 800d5ec:	3155000c 	cmpcc	r5, ip
 800d5f0:	2a000107 	bcs	0x800da14
 800d5f4:	e59d0064 	ldr	r0, [sp, #100]	@ 0x64
 800d5f8:	e1a061a8 	lsr	r6, r8, #3
 800d5fc:	e15001a8 	cmp	r0, r8, lsr #3
 800d600:	9a00026f 	bls	0x800dfc4
 800d604:	e59d0068 	ldr	r0, [sp, #104]	@ 0x68
 800d608:	e2087007 	and	r7, r8, #7
 800d60c:	e2041001 	and	r1, r4, #1
 800d610:	e7d00006 	ldrb	r0, [r0, r6]
 800d614:	e00e0730 	and	r0, lr, r0, lsr r7
 800d618:	e1510000 	cmp	r1, r0
 800d61c:	0a00000d 	beq	0x800d658
 800d620:	e59d0050 	ldr	r0, [sp, #80]	@ 0x50
 800d624:	e58d2058 	str	r2, [sp, #88]	@ 0x58
 800d628:	e24b1064 	sub	r1, fp, #100	@ 0x64
 800d62c:	e3a02018 	mov	r2, #24
 800d630:	eb000d63 	bl	0x8010bc4
 800d634:	e59dc05c 	ldr	ip, [sp, #92]	@ 0x5c
 800d638:	e35a0000 	cmp	sl, #0
 800d63c:	0089900c 	addeq	r9, r9, ip
 800d640:	e3140001 	tst	r4, #1
 800d644:	e50b9064 	str	r9, [fp, #-100]	@ 0xffffff9c
 800d648:	0a000008 	beq	0x800d670
 800d64c:	e59d2058 	ldr	r2, [sp, #88]	@ 0x58
 800d650:	e3a0e001 	mov	lr, #1
 800d654:	ea00003b 	b	0x800d748
 800d658:	e2899001 	add	r9, r9, #1
 800d65c:	e3590005 	cmp	r9, #5
 800d660:	0a000023 	beq	0x800d6f4
 800d664:	e59dc05c 	ldr	ip, [sp, #92]	@ 0x5c
 800d668:	c2822001 	addgt	r2, r2, #1
 800d66c:	ea00003f 	b	0x800d770
 800d670:	e51b0060 	ldr	r0, [fp, #-96]	@ 0xffffffa0
 800d674:	e3a01000 	mov	r1, #0
 800d678:	e3500001 	cmp	r0, #1
 800d67c:	ba000020 	blt	0x800d704
 800d680:	e51b205c 	ldr	r2, [fp, #-92]	@ 0xffffffa4
 800d684:	e3a0e001 	mov	lr, #1
 800d688:	e1520000 	cmp	r2, r0
 800d68c:	e3a02000 	mov	r2, #0
 800d690:	1a00001f 	bne	0x800d714
 800d694:	e51b3058 	ldr	r3, [fp, #-88]	@ 0xffffffa8
 800d698:	e0802080 	add	r2, r0, r0, lsl #1
 800d69c:	e1530002 	cmp	r3, r2
 800d6a0:	1a00001a 	bne	0x800d710
 800d6a4:	e51b2054 	ldr	r2, [fp, #-84]	@ 0xffffffac
 800d6a8:	e1520000 	cmp	r2, r0
 800d6ac:	e3a02000 	mov	r2, #0
 800d6b0:	1a000017 	bne	0x800d714
 800d6b4:	e51b3050 	ldr	r3, [fp, #-80]	@ 0xffffffb0
 800d6b8:	e0431000 	sub	r1, r3, r0
 800d6bc:	e2712000 	rsbs	r2, r1, #0
 800d6c0:	e0a12002 	adc	r2, r1, r2
 800d6c4:	e3a01000 	mov	r1, #0
 800d6c8:	e1530000 	cmp	r3, r0
 800d6cc:	1a000010 	bne	0x800d714
 800d6d0:	e1a03100 	lsl	r3, r0, #2
 800d6d4:	e1590003 	cmp	r9, r3
 800d6d8:	ba00000d 	blt	0x800d714
 800d6dc:	e51b104c 	ldr	r1, [fp, #-76]	@ 0xffffffb4
 800d6e0:	e3a02001 	mov	r2, #1
 800d6e4:	e1510000 	cmp	r1, r0
 800d6e8:	e3a01000 	mov	r1, #0
 800d6ec:	a3a01001 	movge	r1, #1
 800d6f0:	ea000007 	b	0x800d714
 800d6f4:	e59dc05c 	ldr	ip, [sp, #92]	@ 0x5c
 800d6f8:	e2822003 	add	r2, r2, #3
 800d6fc:	e3a09005 	mov	r9, #5
 800d700:	ea00001a 	b	0x800d770
 800d704:	e3a02000 	mov	r2, #0
 800d708:	e3a0e001 	mov	lr, #1
 800d70c:	ea000000 	b	0x800d714
 800d710:	e3a02000 	mov	r2, #0
 800d714:	e51b404c 	ldr	r4, [fp, #-76]	@ 0xffffffb4
 800d718:	e1590000 	cmp	r9, r0
 800d71c:	e3a03000 	mov	r3, #0
 800d720:	a3a03001 	movge	r3, #1
 800d724:	e1540100 	cmp	r4, r0, lsl #2
 800d728:	e3a00000 	mov	r0, #0
 800d72c:	a3a00001 	movge	r0, #1
 800d730:	e0020000 	and	r0, r2, r0
 800d734:	e59d2058 	ldr	r2, [sp, #88]	@ 0x58
 800d738:	e0000003 	and	r0, r0, r3
 800d73c:	e0810000 	add	r0, r1, r0
 800d740:	e1800100 	orr	r0, r0, r0, lsl #2
 800d744:	e0822180 	add	r2, r2, r0, lsl #3
 800d748:	e59d0064 	ldr	r0, [sp, #100]	@ 0x64
 800d74c:	e59d3054 	ldr	r3, [sp, #84]	@ 0x54
 800d750:	e15001a8 	cmp	r0, r8, lsr #3
 800d754:	9a00021a 	bls	0x800dfc4
 800d758:	e59d0068 	ldr	r0, [sp, #104]	@ 0x68
 800d75c:	e3a01001 	mov	r1, #1
 800d760:	e1a0a009 	mov	sl, r9
 800d764:	e3a09001 	mov	r9, #1
 800d768:	e7d00006 	ldrb	r0, [r0, r6]
 800d76c:	e0014730 	and	r4, r1, r0, lsr r7
 800d770:	e2855001 	add	r5, r5, #1
 800d774:	e088800c 	add	r8, r8, ip
 800d778:	e15c0005 	cmp	ip, r5
 800d77c:	1affff99 	bne	0x800d5e8
 800d780:	e24b1064 	sub	r1, fp, #100	@ 0x64
 800d784:	e1a08002 	mov	r8, r2
 800d788:	e24b5040 	sub	r5, fp, #64	@ 0x40
 800d78c:	e3140001 	tst	r4, #1
 800d790:	e8b1008c 	ldm	r1!, {r2, r3, r7}
 800d794:	e1a00005 	mov	r0, r5
 800d798:	e8a0008c 	stmia	r0!, {r2, r3, r7}
 800d79c:	e89100cc 	ldm	r1, {r2, r3, r6, r7}
 800d7a0:	e88000cc 	stm	r0, {r2, r3, r6, r7}
 800d7a4:	e51b6040 	ldr	r6, [fp, #-64]	@ 0xffffffc0
 800d7a8:	0a00000b 	beq	0x800d7dc
 800d7ac:	e59d4040 	ldr	r4, [sp, #64]	@ 0x40
 800d7b0:	e1a01005 	mov	r1, r5
 800d7b4:	e3a02018 	mov	r2, #24
 800d7b8:	e1a0700c 	mov	r7, ip
 800d7bc:	e1a00004 	mov	r0, r4
 800d7c0:	eb000cff 	bl	0x8010bc4
 800d7c4:	e3560000 	cmp	r6, #0
 800d7c8:	e3a0a000 	mov	sl, #0
 800d7cc:	00899007 	addeq	r9, r9, r7
 800d7d0:	e50b9040 	str	r9, [fp, #-64]	@ 0xffffffc0
 800d7d4:	e1a06009 	mov	r6, r9
 800d7d8:	ea000002 	b	0x800d7e8
 800d7dc:	e59d4040 	ldr	r4, [sp, #64]	@ 0x40
 800d7e0:	e1a0a009 	mov	sl, r9
 800d7e4:	e1a0700c 	mov	r7, ip
 800d7e8:	e1a00004 	mov	r0, r4
 800d7ec:	e1a01005 	mov	r1, r5
 800d7f0:	e3a02018 	mov	r2, #24
 800d7f4:	eb000cf2 	bl	0x8010bc4
 800d7f8:	e51b103c 	ldr	r1, [fp, #-60]	@ 0xffffffc4
 800d7fc:	e08a0007 	add	r0, sl, r7
 800d800:	e3560000 	cmp	r6, #0
 800d804:	e3a02000 	mov	r2, #0
 800d808:	e1a0c007 	mov	ip, r7
 800d80c:	00800007 	addeq	r0, r0, r7
 800d810:	e3510001 	cmp	r1, #1
 800d814:	ba00001c 	blt	0x800d88c
 800d818:	e51b3038 	ldr	r3, [fp, #-56]	@ 0xffffffc8
 800d81c:	e59d404c 	ldr	r4, [sp, #76]	@ 0x4c
 800d820:	e3a0e001 	mov	lr, #1
 800d824:	e1530001 	cmp	r3, r1
 800d828:	e3a03000 	mov	r3, #0
 800d82c:	1a00001b 	bne	0x800d8a0
 800d830:	e51b7034 	ldr	r7, [fp, #-52]	@ 0xffffffcc
 800d834:	e0813081 	add	r3, r1, r1, lsl #1
 800d838:	e1570003 	cmp	r7, r3
 800d83c:	1a000016 	bne	0x800d89c
 800d840:	e51b3030 	ldr	r3, [fp, #-48]	@ 0xffffffd0
 800d844:	e1530001 	cmp	r3, r1
 800d848:	e3a03000 	mov	r3, #0
 800d84c:	1a000013 	bne	0x800d8a0
 800d850:	e51b702c 	ldr	r7, [fp, #-44]	@ 0xffffffd4
 800d854:	e0472001 	sub	r2, r7, r1
 800d858:	e2723000 	rsbs	r3, r2, #0
 800d85c:	e0a23003 	adc	r3, r2, r3
 800d860:	e3a02000 	mov	r2, #0
 800d864:	e1500101 	cmp	r0, r1, lsl #2
 800d868:	ba00000c 	blt	0x800d8a0
 800d86c:	e1570001 	cmp	r7, r1
 800d870:	1a00000a 	bne	0x800d8a0
 800d874:	e51b2028 	ldr	r2, [fp, #-40]	@ 0xffffffd8
 800d878:	e3a03001 	mov	r3, #1
 800d87c:	e1520001 	cmp	r2, r1
 800d880:	e3a02000 	mov	r2, #0
 800d884:	a3a02001 	movge	r2, #1
 800d888:	ea000004 	b	0x800d8a0
 800d88c:	e59d404c 	ldr	r4, [sp, #76]	@ 0x4c
 800d890:	e3a03000 	mov	r3, #0
 800d894:	e3a0e001 	mov	lr, #1
 800d898:	ea000000 	b	0x800d8a0
 800d89c:	e3a03000 	mov	r3, #0
 800d8a0:	e51b7028 	ldr	r7, [fp, #-40]	@ 0xffffffd8
 800d8a4:	e1500001 	cmp	r0, r1
 800d8a8:	e3a00000 	mov	r0, #0
 800d8ac:	a3a00001 	movge	r0, #1
 800d8b0:	e1570101 	cmp	r7, r1, lsl #2
 800d8b4:	e3a01000 	mov	r1, #0
 800d8b8:	a3a01001 	movge	r1, #1
 800d8bc:	e154000c 	cmp	r4, ip
 800d8c0:	e0031001 	and	r1, r3, r1
 800d8c4:	e0000001 	and	r0, r0, r1
 800d8c8:	e0820000 	add	r0, r2, r0
 800d8cc:	e1800100 	orr	r0, r0, r0, lsl #2
 800d8d0:	e0882180 	add	r2, r8, r0, lsl #3
 800d8d4:	1affff32 	bne	0x800d5a4
 800d8d8:	e59d103c 	ldr	r1, [sp, #60]	@ 0x3c
 800d8dc:	e24c0001 	sub	r0, ip, #1
 800d8e0:	e1a08002 	mov	r8, r2
 800d8e4:	e31000ff 	tst	r0, #255	@ 0xff
 800d8e8:	1afffec3 	bne	0x800d3fc
 800d8ec:	e59d4038 	ldr	r4, [sp, #56]	@ 0x38
 800d8f0:	e59d0068 	ldr	r0, [sp, #104]	@ 0x68
 800d8f4:	e59d1064 	ldr	r1, [sp, #100]	@ 0x64
 800d8f8:	e3a05000 	mov	r5, #0
 800d8fc:	e3a07055 	mov	r7, #85	@ 0x55
 800d900:	e3a06033 	mov	r6, #51	@ 0x33
 800d904:	e2849001 	add	r9, r4, #1
 800d908:	e4d02001 	ldrb	r2, [r0], #1
 800d90c:	e2511001 	subs	r1, r1, #1
 800d910:	e00730a2 	and	r3, r7, r2, lsr #1
 800d914:	e0422003 	sub	r2, r2, r3
 800d918:	e0063122 	and	r3, r6, r2, lsr #2
 800d91c:	e2022033 	and	r2, r2, #51	@ 0x33
 800d920:	e0822003 	add	r2, r2, r3
 800d924:	e0822222 	add	r2, r2, r2, lsr #4
 800d928:	e202200f 	and	r2, r2, #15
 800d92c:	e0855002 	add	r5, r5, r2
 800d930:	1afffff4 	bne	0x800d908
 800d934:	e59d705c 	ldr	r7, [sp, #92]	@ 0x5c
 800d938:	e24b6070 	sub	r6, fp, #112	@ 0x70
 800d93c:	e3570000 	cmp	r7, #0
 800d940:	0a0001aa 	beq	0x800dff0
 800d944:	e28d006c 	add	r0, sp, #108	@ 0x6c
 800d948:	e1a01006 	mov	r1, r6
 800d94c:	e1a02004 	mov	r2, r4
 800d950:	eb000637 	bl	0x800f234
 800d954:	e0010797 	mul	r1, r7, r7
 800d958:	e0850105 	add	r0, r5, r5, lsl #2
 800d95c:	e59d5030 	ldr	r5, [sp, #48]	@ 0x30
 800d960:	e0812101 	add	r2, r1, r1, lsl #2
 800d964:	e1a00100 	lsl	r0, r0, #2
 800d968:	e2622000 	rsb	r2, r2, #0
 800d96c:	e0800082 	add	r0, r0, r2, lsl #1
 800d970:	e3500000 	cmp	r0, #0
 800d974:	42600000 	rsbmi	r0, r0, #0
 800d978:	e0220797 	mla	r2, r7, r7, r0
 800d97c:	e2420001 	sub	r0, r2, #1
 800d980:	eb000dbc 	bl	0x8011078
 800d984:	e0800100 	add	r0, r0, r0, lsl #2
 800d988:	e59d102c 	ldr	r1, [sp, #44]	@ 0x2c
 800d98c:	e1a07009 	mov	r7, r9
 800d990:	e0880080 	add	r0, r8, r0, lsl #1
 800d994:	e240000a 	sub	r0, r0, #10
 800d998:	e1500005 	cmp	r0, r5
 800d99c:	b1a01004 	movlt	r1, r4
 800d9a0:	b1a05000 	movlt	r5, r0
 800d9a4:	e3a00000 	mov	r0, #0
 800d9a8:	e58d102c 	str	r1, [sp, #44]	@ 0x2c
 800d9ac:	e59d1034 	ldr	r1, [sp, #52]	@ 0x34
 800d9b0:	b3a00001 	movlt	r0, #1
 800d9b4:	e1801001 	orr	r1, r0, r1
 800d9b8:	e20400ff 	and	r0, r4, #255	@ 0xff
 800d9bc:	e28d406c 	add	r4, sp, #108	@ 0x6c
 800d9c0:	e3500007 	cmp	r0, #7
 800d9c4:	3afffd9e 	bcc	0x800d044
 800d9c8:	e3110001 	tst	r1, #1
 800d9cc:	0a000189 	beq	0x800dff8
 800d9d0:	e59d502c 	ldr	r5, [sp, #44]	@ 0x2c
 800d9d4:	e28d406c 	add	r4, sp, #108	@ 0x6c
 800d9d8:	e24b1070 	sub	r1, fp, #112	@ 0x70
 800d9dc:	e1a00004 	mov	r0, r4
 800d9e0:	e1a02005 	mov	r2, r5
 800d9e4:	eb000612 	bl	0x800f234
 800d9e8:	e59b1010 	ldr	r1, [fp, #16]
 800d9ec:	e1a00004 	mov	r0, r4
 800d9f0:	e1a02005 	mov	r2, r5
 800d9f4:	eb0006c2 	bl	0x800f504
 800d9f8:	e28d206c 	add	r2, sp, #108	@ 0x6c
 800d9fc:	e59d3004 	ldr	r3, [sp, #4]
 800da00:	e8920007 	ldm	r2, {r0, r1, r2}
 800da04:	e8830007 	stm	r3, {r0, r1, r2}
 800da08:	e24bd01c 	sub	sp, fp, #28
 800da0c:	e8bd4ff0 	pop	{r4, r5, r6, r7, r8, r9, sl, fp, lr}
 800da10:	e12fff1e 	bx	lr
 800da14:	e59f061c 	ldr	r0, [pc, #1564]	@ 0x800e038
 800da18:	e59f261c 	ldr	r2, [pc, #1564]	@ 0x800e03c
 800da1c:	e3a0103a 	mov	r1, #58	@ 0x3a
 800da20:	ebffe3f4 	bl	0x80069f8
 800da24:	e59f2634 	ldr	r2, [pc, #1588]	@ 0x800e060
 800da28:	e59d0054 	ldr	r0, [sp, #84]	@ 0x54
 800da2c:	e1a01003 	mov	r1, r3
 800da30:	ebffe020 	bl	0x8005ab8
 800da34:	e59f35dc 	ldr	r3, [pc, #1500]	@ 0x800e018
 800da38:	e3a00000 	mov	r0, #0
 800da3c:	e24b1064 	sub	r1, fp, #100	@ 0x64
 800da40:	e24b2040 	sub	r2, fp, #64	@ 0x40
 800da44:	e50b0040 	str	r0, [fp, #-64]	@ 0xffffffc0
 800da48:	e24b0070 	sub	r0, fp, #112	@ 0x70
 800da4c:	ebffe417 	bl	0x8006ab0
 800da50:	e59f25cc 	ldr	r2, [pc, #1484]	@ 0x800e024
 800da54:	e1a0100a 	mov	r1, sl
 800da58:	ebffe3fb 	bl	0x8006a4c
 800da5c:	e59f25b8 	ldr	r2, [pc, #1464]	@ 0x800e01c
 800da60:	e1a0100a 	mov	r1, sl
 800da64:	ebffe3f8 	bl	0x8006a4c
 800da68:	e59f25b0 	ldr	r2, [pc, #1456]	@ 0x800e020
 800da6c:	e1a0000e 	mov	r0, lr
 800da70:	e1a0100e 	mov	r1, lr
 800da74:	ebffe3f4 	bl	0x8006a4c
 800da78:	e59f3580 	ldr	r3, [pc, #1408]	@ 0x800e000
 800da7c:	e59d000c 	ldr	r0, [sp, #12]
 800da80:	e1a01002 	mov	r1, r2
 800da84:	e1a02003 	mov	r2, r3
 800da88:	ebffe00a 	bl	0x8005ab8
 800da8c:	e59f2570 	ldr	r2, [pc, #1392]	@ 0x800e004
 800da90:	e59d000c 	ldr	r0, [sp, #12]
 800da94:	ebffe007 	bl	0x8005ab8
 800da98:	e59f05d4 	ldr	r0, [pc, #1492]	@ 0x800e074
 800da9c:	e59f25d4 	ldr	r2, [pc, #1492]	@ 0x800e078
 800daa0:	e3a01032 	mov	r1, #50	@ 0x32
 800daa4:	ebffe3d3 	bl	0x80069f8
 800daa8:	e3a01001 	mov	r1, #1
 800daac:	e3a00000 	mov	r0, #0
 800dab0:	e50b103c 	str	r1, [fp, #-60]	@ 0xffffffc4
 800dab4:	e59f15b0 	ldr	r1, [pc, #1456]	@ 0x800e06c
 800dab8:	e50b0030 	str	r0, [fp, #-48]	@ 0xffffffd0
 800dabc:	e50b0034 	str	r0, [fp, #-52]	@ 0xffffffcc
 800dac0:	e3a00004 	mov	r0, #4
 800dac4:	e50b0038 	str	r0, [fp, #-56]	@ 0xffffffc8
 800dac8:	e24b0040 	sub	r0, fp, #64	@ 0x40
 800dacc:	e50b1040 	str	r1, [fp, #-64]	@ 0xffffffc0
 800dad0:	e59f1598 	ldr	r1, [pc, #1432]	@ 0x800e070
 800dad4:	ebffe24b 	bl	0x8006408
 800dad8:	e59f352c 	ldr	r3, [pc, #1324]	@ 0x800e00c
 800dadc:	e3a00000 	mov	r0, #0
 800dae0:	e24b1064 	sub	r1, fp, #100	@ 0x64
 800dae4:	e24b2040 	sub	r2, fp, #64	@ 0x40
 800dae8:	e50b0040 	str	r0, [fp, #-64]	@ 0xffffffc0
 800daec:	e28d006c 	add	r0, sp, #108	@ 0x6c
 800daf0:	ebffe3ee 	bl	0x8006ab0
 800daf4:	e59f256c 	ldr	r2, [pc, #1388]	@ 0x800e068
 800daf8:	e59d100c 	ldr	r1, [sp, #12]
 800dafc:	e1a00005 	mov	r0, r5
 800db00:	ebffdfec 	bl	0x8005ab8
 800db04:	e59f0504 	ldr	r0, [pc, #1284]	@ 0x800e010
 800db08:	e59f2504 	ldr	r2, [pc, #1284]	@ 0x800e014
 800db0c:	e3a01013 	mov	r1, #19
 800db10:	ebffe3b8 	bl	0x80069f8
 800db14:	e59f2548 	ldr	r2, [pc, #1352]	@ 0x800e064
 800db18:	e1a0000c 	mov	r0, ip
 800db1c:	ebffdfe5 	bl	0x8005ab8
 800db20:	e3a00000 	mov	r0, #0
 800db24:	e59f3508 	ldr	r3, [pc, #1288]	@ 0x800e034
 800db28:	e24b1064 	sub	r1, fp, #100	@ 0x64
 800db2c:	e24b2040 	sub	r2, fp, #64	@ 0x40
 800db30:	e50b0030 	str	r0, [fp, #-48]	@ 0xffffffd0
 800db34:	e50b0034 	str	r0, [fp, #-52]	@ 0xffffffcc
 800db38:	e3a00004 	mov	r0, #4
 800db3c:	e50b0038 	str	r0, [fp, #-56]	@ 0xffffffc8
 800db40:	e3a00001 	mov	r0, #1
 800db44:	e50b003c 	str	r0, [fp, #-60]	@ 0xffffffc4
 800db48:	e59f04e0 	ldr	r0, [pc, #1248]	@ 0x800e030
 800db4c:	e50b0040 	str	r0, [fp, #-64]	@ 0xffffffc0
 800db50:	e24b0070 	sub	r0, fp, #112	@ 0x70
 800db54:	ebffe3d5 	bl	0x8006ab0
 800db58:	e3a01025 	mov	r1, #37	@ 0x25
 800db5c:	e3520020 	cmp	r2, #32
 800db60:	e0030192 	mul	r3, r2, r1
 800db64:	e3a01002 	mov	r1, #2
 800db68:	e0815423 	add	r5, r1, r3, lsr #8
 800db6c:	e1a07423 	lsr	r7, r3, #8
 800db70:	e3a010e6 	mov	r1, #230	@ 0xe6
 800db74:	0a000009 	beq	0x800dba0
 800db78:	e20000fc 	and	r0, r0, #252	@ 0xfc
 800db7c:	e3e01001 	mvn	r1, #1
 800db80:	e0800085 	add	r0, r0, r5, lsl #1
 800db84:	e0811085 	add	r1, r1, r5, lsl #1
 800db88:	e3800001 	orr	r0, r0, #1
 800db8c:	e20110ff 	and	r1, r1, #255	@ 0xff
 800db90:	e20000ff 	and	r0, r0, #255	@ 0xff
 800db94:	eb000d38 	bl	0x801107c
 800db98:	e3a01000 	mov	r1, #0
 800db9c:	e0411080 	sub	r1, r1, r0, lsl #1
 800dba0:	e2462007 	sub	r2, r6, #7
 800dba4:	e2870001 	add	r0, r7, #1
 800dba8:	e3a03000 	mov	r3, #0
 800dbac:	e24b6040 	sub	r6, fp, #64	@ 0x40
 800dbb0:	e0272391 	mla	r7, r1, r3, r2
 800dbb4:	e7c67003 	strb	r7, [r6, r3]
 800dbb8:	e2833001 	add	r3, r3, #1
 800dbbc:	e1500003 	cmp	r0, r3
 800dbc0:	1afffffa 	bne	0x800dbb0
 800dbc4:	e2451001 	sub	r1, r5, #1
 800dbc8:	e3a00006 	mov	r0, #6
 800dbcc:	e55b3040 	ldrb	r3, [fp, #-64]	@ 0xffffffc0
 800dbd0:	e7c60001 	strb	r0, [r6, r1]
 800dbd4:	e3e00000 	mvn	r0, #0
 800dbd8:	e58d105c 	str	r1, [sp, #92]	@ 0x5c
 800dbdc:	e08010a5 	add	r1, r0, r5, lsr #1
 800dbe0:	e0860005 	add	r0, r6, r5
 800dbe4:	e58d004c 	str	r0, [sp, #76]	@ 0x4c
 800dbe8:	e04000a5 	sub	r0, r0, r5, lsr #1
 800dbec:	e3510000 	cmp	r1, #0
 800dbf0:	e7d02001 	ldrb	r2, [r0, r1]
 800dbf4:	e7c03001 	strb	r3, [r0, r1]
 800dbf8:	e54b2040 	strb	r2, [fp, #-64]	@ 0xffffffc0
 800dbfc:	0a000016 	beq	0x800dc5c
 800dc00:	e1a020a5 	lsr	r2, r5, #1
 800dc04:	e55b703f 	ldrb	r7, [fp, #-63]	@ 0xffffffc1
 800dc08:	e2521002 	subs	r1, r2, #2
 800dc0c:	e7d03001 	ldrb	r3, [r0, r1]
 800dc10:	e7c07001 	strb	r7, [r0, r1]
 800dc14:	e54b303f 	strb	r3, [fp, #-63]	@ 0xffffffc1
 800dc18:	0a00000f 	beq	0x800dc5c
 800dc1c:	e2521003 	subs	r1, r2, #3
 800dc20:	e55b703e 	ldrb	r7, [fp, #-62]	@ 0xffffffc2
 800dc24:	e7d03001 	ldrb	r3, [r0, r1]
 800dc28:	e7c07001 	strb	r7, [r0, r1]
 800dc2c:	e54b303e 	strb	r3, [fp, #-62]	@ 0xffffffc2
 800dc30:	0a000009 	beq	0x800dc5c
 800dc34:	e2521004 	subs	r1, r2, #4
 800dc38:	e55b703d 	ldrb	r7, [fp, #-61]	@ 0xffffffc3
 800dc3c:	e7d03001 	ldrb	r3, [r0, r1]
 800dc40:	e7c07001 	strb	r7, [r0, r1]
 800dc44:	10820000 	addne	r0, r2, r0
 800dc48:	e54b303d 	strb	r3, [fp, #-61]	@ 0xffffffc3
 800dc4c:	155b203c 	ldrbne	r2, [fp, #-60]	@ 0xffffffc4
 800dc50:	15501005 	ldrbne	r1, [r0, #-5]
 800dc54:	15402005 	strbne	r2, [r0, #-5]
 800dc58:	154b103c 	strbne	r1, [fp, #-60]	@ 0xffffffc4
 800dc5c:	e59f03ec 	ldr	r0, [pc, #1004]	@ 0x800e050
 800dc60:	e0821094 	umull	r1, r2, r4, r0
 800dc64:	e2820001 	add	r0, r2, #1
 800dc68:	e282a002 	add	sl, r2, #2
 800dc6c:	e3a02000 	mov	r2, #0
 800dc70:	e1a01006 	mov	r1, r6
 800dc74:	e58d0058 	str	r0, [sp, #88]	@ 0x58
 800dc78:	e4d1c001 	ldrb	ip, [r1], #1
 800dc7c:	e2820001 	add	r0, r2, #1
 800dc80:	e3a09000 	mov	r9, #0
 800dc84:	e58d0054 	str	r0, [sp, #84]	@ 0x54
 800dc88:	e28c0001 	add	r0, ip, #1
 800dc8c:	e58d1050 	str	r1, [sp, #80]	@ 0x50
 800dc90:	e20060ff 	and	r6, r0, #255	@ 0xff
 800dc94:	e24c0001 	sub	r0, ip, #1
 800dc98:	e200e0ff 	and	lr, r0, #255	@ 0xff
 800dc9c:	e24b0040 	sub	r0, fp, #64	@ 0x40
 800dca0:	e3520000 	cmp	r2, #0
 800dca4:	e7d05009 	ldrb	r5, [r0, r9]
 800dca8:	0a000004 	beq	0x800dcc0
 800dcac:	e59d005c 	ldr	r0, [sp, #92]	@ 0x5c
 800dcb0:	e1520000 	cmp	r2, r0
 800dcb4:	03590000 	cmpeq	r9, #0
 800dcb8:	1a000008 	bne	0x800dce0
 800dcbc:	ea000003 	b	0x800dcd0
 800dcc0:	e3590000 	cmp	r9, #0
 800dcc4:	159d0058 	ldrne	r0, [sp, #88]	@ 0x58
 800dcc8:	11500009 	cmpne	r0, r9
 800dccc:	1a000003 	bne	0x800dce0
 800dcd0:	e2899001 	add	r9, r9, #1
 800dcd4:	e15a0009 	cmp	sl, r9
 800dcd8:	1affffef 	bne	0x800dc9c
 800dcdc:	ea00008f 	b	0x800df20
 800dce0:	e59d0060 	ldr	r0, [sp, #96]	@ 0x60
 800dce4:	e5d00000 	ldrb	r0, [r0]
 800dce8:	e150000e 	cmp	r0, lr
 800dcec:	82451001 	subhi	r1, r5, #1
 800dcf0:	820170ff 	andhi	r7, r1, #255	@ 0xff
 800dcf4:	81500007 	cmphi	r0, r7
 800dcf8:	9a00009b 	bls	0x800df6c
 800dcfc:	e59d3064 	ldr	r3, [sp, #100]	@ 0x64
 800dd00:	e021e790 	mla	r1, r0, r7, lr
 800dd04:	e1a001a1 	lsr	r0, r1, #3
 800dd08:	e15301a1 	cmp	r3, r1, lsr #3
 800dd0c:	9a00009f 	bls	0x800df90
 800dd10:	e59d3068 	ldr	r3, [sp, #104]	@ 0x68
 800dd14:	e2011007 	and	r1, r1, #7
 800dd18:	e3a04001 	mov	r4, #1
 800dd1c:	e7d38000 	ldrb	r8, [r3, r0]
 800dd20:	e1c81114 	bic	r1, r8, r4, lsl r1
 800dd24:	e3a08001 	mov	r8, #1
 800dd28:	e7c31000 	strb	r1, [r3, r0]
 800dd2c:	e59d0060 	ldr	r0, [sp, #96]	@ 0x60
 800dd30:	e5d00000 	ldrb	r0, [r0]
 800dd34:	e150000c 	cmp	r0, ip
 800dd38:	81500007 	cmphi	r0, r7
 800dd3c:	9a00008a 	bls	0x800df6c
 800dd40:	e59d3064 	ldr	r3, [sp, #100]	@ 0x64
 800dd44:	e021c790 	mla	r1, r0, r7, ip
 800dd48:	e1a001a1 	lsr	r0, r1, #3
 800dd4c:	e15301a1 	cmp	r3, r1, lsr #3
 800dd50:	9a00008e 	bls	0x800df90
 800dd54:	e59d4068 	ldr	r4, [sp, #104]	@ 0x68
 800dd58:	e2011007 	and	r1, r1, #7
 800dd5c:	e7d43000 	ldrb	r3, [r4, r0]
 800dd60:	e1c31118 	bic	r1, r3, r8, lsl r1
 800dd64:	e7c41000 	strb	r1, [r4, r0]
 800dd68:	e59d0060 	ldr	r0, [sp, #96]	@ 0x60
 800dd6c:	e5d00000 	ldrb	r0, [r0]
 800dd70:	e1500006 	cmp	r0, r6
 800dd74:	81500007 	cmphi	r0, r7
 800dd78:	9a00007b 	bls	0x800df6c
 800dd7c:	e59d3064 	ldr	r3, [sp, #100]	@ 0x64
 800dd80:	e0216790 	mla	r1, r0, r7, r6
 800dd84:	e1a001a1 	lsr	r0, r1, #3
 800dd88:	e15301a1 	cmp	r3, r1, lsr #3
 800dd8c:	9a00007f 	bls	0x800df90
 800dd90:	e59d3068 	ldr	r3, [sp, #104]	@ 0x68
 800dd94:	e2011007 	and	r1, r1, #7
 800dd98:	e7d37000 	ldrb	r7, [r3, r0]
 800dd9c:	e1c71118 	bic	r1, r7, r8, lsl r1
 800dda0:	e7c31000 	strb	r1, [r3, r0]
 800dda4:	e59d0060 	ldr	r0, [sp, #96]	@ 0x60
 800dda8:	e5d00000 	ldrb	r0, [r0]
 800ddac:	e150000e 	cmp	r0, lr
 800ddb0:	81500005 	cmphi	r0, r5
 800ddb4:	9a00006c 	bls	0x800df6c
 800ddb8:	e59d3064 	ldr	r3, [sp, #100]	@ 0x64
 800ddbc:	e021e590 	mla	r1, r0, r5, lr
 800ddc0:	e1a001a1 	lsr	r0, r1, #3
 800ddc4:	e15301a1 	cmp	r3, r1, lsr #3
 800ddc8:	9a000070 	bls	0x800df90
 800ddcc:	e59d3068 	ldr	r3, [sp, #104]	@ 0x68
 800ddd0:	e2011007 	and	r1, r1, #7
 800ddd4:	e7d37000 	ldrb	r7, [r3, r0]
 800ddd8:	e1c71118 	bic	r1, r7, r8, lsl r1
 800dddc:	e7c31000 	strb	r1, [r3, r0]
 800dde0:	e59d0060 	ldr	r0, [sp, #96]	@ 0x60
 800dde4:	e5d00000 	ldrb	r0, [r0]
 800dde8:	e150000c 	cmp	r0, ip
 800ddec:	81500005 	cmphi	r0, r5
 800ddf0:	9a00005d 	bls	0x800df6c
 800ddf4:	e59d1064 	ldr	r1, [sp, #100]	@ 0x64
 800ddf8:	e027c590 	mla	r7, r0, r5, ip
 800ddfc:	e1a001a7 	lsr	r0, r7, #3
 800de00:	e15101a7 	cmp	r1, r7, lsr #3
 800de04:	9a000076 	bls	0x800dfe4
 800de08:	e59d3068 	ldr	r3, [sp, #104]	@ 0x68
 800de0c:	e2077007 	and	r7, r7, #7
 800de10:	e7d31000 	ldrb	r1, [r3, r0]
 800de14:	e1811718 	orr	r1, r1, r8, lsl r7
 800de18:	e7c31000 	strb	r1, [r3, r0]
 800de1c:	e59d0060 	ldr	r0, [sp, #96]	@ 0x60
 800de20:	e5d00000 	ldrb	r0, [r0]
 800de24:	e1500006 	cmp	r0, r6
 800de28:	81500005 	cmphi	r0, r5
 800de2c:	9a00004e 	bls	0x800df6c
 800de30:	e59d3064 	ldr	r3, [sp, #100]	@ 0x64
 800de34:	e0216590 	mla	r1, r0, r5, r6
 800de38:	e1a001a1 	lsr	r0, r1, #3
 800de3c:	e15301a1 	cmp	r3, r1, lsr #3
 800de40:	9a000052 	bls	0x800df90
 800de44:	e59d3068 	ldr	r3, [sp, #104]	@ 0x68
 800de48:	e2011007 	and	r1, r1, #7
 800de4c:	e7d37000 	ldrb	r7, [r3, r0]
 800de50:	e1c71118 	bic	r1, r7, r8, lsl r1
 800de54:	e7c31000 	strb	r1, [r3, r0]
 800de58:	e59d0060 	ldr	r0, [sp, #96]	@ 0x60
 800de5c:	e5d00000 	ldrb	r0, [r0]
 800de60:	e150000e 	cmp	r0, lr
 800de64:	82851001 	addhi	r1, r5, #1
 800de68:	820150ff 	andhi	r5, r1, #255	@ 0xff
 800de6c:	81500005 	cmphi	r0, r5
 800de70:	9a00003d 	bls	0x800df6c
 800de74:	e59d3064 	ldr	r3, [sp, #100]	@ 0x64
 800de78:	e021e590 	mla	r1, r0, r5, lr
 800de7c:	e1a001a1 	lsr	r0, r1, #3
 800de80:	e15301a1 	cmp	r3, r1, lsr #3
 800de84:	9a000041 	bls	0x800df90
 800de88:	e59d3068 	ldr	r3, [sp, #104]	@ 0x68
 800de8c:	e2011007 	and	r1, r1, #7
 800de90:	e7d37000 	ldrb	r7, [r3, r0]
 800de94:	e1c71118 	bic	r1, r7, r8, lsl r1
 800de98:	e7c31000 	strb	r1, [r3, r0]
 800de9c:	e59d0060 	ldr	r0, [sp, #96]	@ 0x60
 800dea0:	e5d00000 	ldrb	r0, [r0]
 800dea4:	e150000c 	cmp	r0, ip
 800dea8:	81500005 	cmphi	r0, r5
 800deac:	9a00002e 	bls	0x800df6c
 800deb0:	e59d3064 	ldr	r3, [sp, #100]	@ 0x64
 800deb4:	e021c590 	mla	r1, r0, r5, ip
 800deb8:	e1a001a1 	lsr	r0, r1, #3
 800debc:	e15301a1 	cmp	r3, r1, lsr #3
 800dec0:	9a000032 	bls	0x800df90
 800dec4:	e59d3068 	ldr	r3, [sp, #104]	@ 0x68
 800dec8:	e2011007 	and	r1, r1, #7
 800decc:	e7d37000 	ldrb	r7, [r3, r0]
 800ded0:	e1c71118 	bic	r1, r7, r8, lsl r1
 800ded4:	e7c31000 	strb	r1, [r3, r0]
 800ded8:	e59d0060 	ldr	r0, [sp, #96]	@ 0x60
 800dedc:	e5d00000 	ldrb	r0, [r0]
 800dee0:	e1500006 	cmp	r0, r6
 800dee4:	81500005 	cmphi	r0, r5
 800dee8:	9a00001f 	bls	0x800df6c
 800deec:	e59d3064 	ldr	r3, [sp, #100]	@ 0x64
 800def0:	e0216590 	mla	r1, r0, r5, r6
 800def4:	e1a001a1 	lsr	r0, r1, #3
 800def8:	e15301a1 	cmp	r3, r1, lsr #3
 800defc:	9a000023 	bls	0x800df90
 800df00:	e59d3068 	ldr	r3, [sp, #104]	@ 0x68
 800df04:	e2011007 	and	r1, r1, #7
 800df08:	e7d35000 	ldrb	r5, [r3, r0]
 800df0c:	e1c51118 	bic	r1, r5, r8, lsl r1
 800df10:	e7c31000 	strb	r1, [r3, r0]
 800df14:	e2899001 	add	r9, r9, #1
 800df18:	e15a0009 	cmp	sl, r9
 800df1c:	1affff5e 	bne	0x800dc9c
 800df20:	e59d004c 	ldr	r0, [sp, #76]	@ 0x4c
 800df24:	e59d1050 	ldr	r1, [sp, #80]	@ 0x50
 800df28:	e59d2054 	ldr	r2, [sp, #84]	@ 0x54
 800df2c:	e1510000 	cmp	r1, r0
 800df30:	1affff50 	bne	0x800dc78
 800df34:	e59d0060 	ldr	r0, [sp, #96]	@ 0x60
 800df38:	e3e02000 	mvn	r2, #0
 800df3c:	e5d00000 	ldrb	r0, [r0]
 800df40:	e2400011 	sub	r0, r0, #17
 800df44:	e20010ff 	and	r1, r0, #255	@ 0xff
 800df48:	e0822121 	add	r2, r2, r1, lsr #2
 800df4c:	e3520028 	cmp	r2, #40	@ 0x28
 800df50:	2a000009 	bcs	0x800df7c
 800df54:	e1a01121 	lsr	r1, r1, #2
 800df58:	e20000ff 	and	r0, r0, #255	@ 0xff
 800df5c:	e24b4064 	sub	r4, fp, #100	@ 0x64
 800df60:	e350001c 	cmp	r0, #28
 800df64:	2afffbd1 	bcs	0x800ceb0
 800df68:	eafffc26 	b	0x800d008
 800df6c:	e59f00c4 	ldr	r0, [pc, #196]	@ 0x800e038
 800df70:	e59f20d0 	ldr	r2, [pc, #208]	@ 0x800e048
 800df74:	e3a0103a 	mov	r1, #58	@ 0x3a
 800df78:	ebffe29e 	bl	0x80069f8
 800df7c:	e59f00a4 	ldr	r0, [pc, #164]	@ 0x800e028
 800df80:	e59f20a4 	ldr	r2, [pc, #164]	@ 0x800e02c
 800df84:	e3a0101b 	mov	r1, #27
 800df88:	ebffe29a 	bl	0x80069f8
 800df8c:	ebfff3ad 	bl	0x800ae48
 800df90:	e59f20b4 	ldr	r2, [pc, #180]	@ 0x800e04c
 800df94:	e59d1064 	ldr	r1, [sp, #100]	@ 0x64
 800df98:	ebffe2ab 	bl	0x8006a4c
 800df9c:	e59f209c 	ldr	r2, [pc, #156]	@ 0x800e040
 800dfa0:	e59d1064 	ldr	r1, [sp, #100]	@ 0x64
 800dfa4:	ebffe2a8 	bl	0x8006a4c
 800dfa8:	e59f2058 	ldr	r2, [pc, #88]	@ 0x800e008
 800dfac:	e3a01029 	mov	r1, #41	@ 0x29
 800dfb0:	ebffe2a5 	bl	0x8006a4c
 800dfb4:	e59f2088 	ldr	r2, [pc, #136]	@ 0x800e044
 800dfb8:	e1a00001 	mov	r0, r1
 800dfbc:	e1a0100a 	mov	r1, sl
 800dfc0:	ebffe2a1 	bl	0x8006a4c
 800dfc4:	e59f2074 	ldr	r2, [pc, #116]	@ 0x800e040
 800dfc8:	e59d1064 	ldr	r1, [sp, #100]	@ 0x64
 800dfcc:	e1a00006 	mov	r0, r6
 800dfd0:	ebffe29d 	bl	0x8006a4c
 800dfd4:	e1a00001 	mov	r0, r1
 800dfd8:	e59f2060 	ldr	r2, [pc, #96]	@ 0x800e040
 800dfdc:	e59d1064 	ldr	r1, [sp, #100]	@ 0x64
 800dfe0:	ebffe299 	bl	0x8006a4c
 800dfe4:	e59f2068 	ldr	r2, [pc, #104]	@ 0x800e054
 800dfe8:	e59d1064 	ldr	r1, [sp, #100]	@ 0x64
 800dfec:	ebffe296 	bl	0x8006a4c
 800dff0:	e59f0064 	ldr	r0, [pc, #100]	@ 0x800e05c
 800dff4:	ebfff383 	bl	0x800ae08
 800dff8:	e59f0058 	ldr	r0, [pc, #88]	@ 0x800e058
 800dffc:	ebfff35f 	bl	0x800ad80
 800e000:	082fe098 	stmdaeq	pc!, {r3, r4, r7, sp, lr, pc}	@ <UNPREDICTABLE>
 800e004:	082fe0a8 	stmdaeq	pc!, {r3, r5, r7, sp, lr, pc}	@ <UNPREDICTABLE>
 800e008:	082fe2bc 	stmdaeq	pc!, {r2, r3, r4, r5, r7, r9, sp, lr, pc}	@ <UNPREDICTABLE>
 800e00c:	082fe1bc 	stmdaeq	pc!, {r2, r3, r4, r5, r7, r8, sp, lr, pc}	@ <UNPREDICTABLE>
 800e010:	082fe2cc 	stmdaeq	pc!, {r2, r3, r6, r7, r9, sp, lr, pc}	@ <UNPREDICTABLE>
 800e014:	082fe2e0 	stmdaeq	pc!, {r5, r6, r7, r9, sp, lr, pc}	@ <UNPREDICTABLE>
 800e018:	082fe2f0 	stmdaeq	pc!, {r4, r5, r6, r7, r9, sp, lr, pc}	@ <UNPREDICTABLE>
 800e01c:	082fe22c 	stmdaeq	pc!, {r2, r3, r5, r9, sp, lr, pc}	@ <UNPREDICTABLE>
 800e020:	082fe21c 	stmdaeq	pc!, {r2, r3, r4, r9, sp, lr, pc}	@ <UNPREDICTABLE>
 800e024:	082fe20c 	stmdaeq	pc!, {r2, r3, r9, sp, lr, pc}	@ <UNPREDICTABLE>
 800e028:	082fe610 	stmdaeq	pc!, {r4, r9, sl, sp, lr, pc}	@ <UNPREDICTABLE>
 800e02c:	082fe62c 	stmdaeq	pc!, {r2, r3, r5, r9, sl, sp, lr, pc}	@ <UNPREDICTABLE>
 800e030:	082fe24c 	stmdaeq	pc!, {r2, r3, r6, r9, sp, lr, pc}	@ <UNPREDICTABLE>
 800e034:	082fe254 	stmdaeq	pc!, {r2, r4, r6, r9, sp, lr, pc}	@ <UNPREDICTABLE>
 800e038:	082fe130 	stmdaeq	pc!, {r4, r5, r8, sp, lr, pc}	@ <UNPREDICTABLE>
 800e03c:	082fe16c 	stmdaeq	pc!, {r2, r3, r5, r6, r8, sp, lr, pc}	@ <UNPREDICTABLE>
 800e040:	082fe17c 	stmdaeq	pc!, {r2, r3, r4, r5, r6, r8, sp, lr, pc}	@ <UNPREDICTABLE>
 800e044:	082fe264 	stmdaeq	pc!, {r2, r5, r6, r9, sp, lr, pc}	@ <UNPREDICTABLE>
 800e048:	082fe18c 	stmdaeq	pc!, {r2, r3, r7, r8, sp, lr, pc}	@ <UNPREDICTABLE>
 800e04c:	082fe19c 	stmdaeq	pc!, {r2, r3, r4, r7, r8, sp, lr, pc}	@ <UNPREDICTABLE>
 800e050:	0924924a 	stmdbeq	r4!, {r1, r3, r6, r9, ip, pc}
 800e054:	082fe1ac 	stmdaeq	pc!, {r2, r3, r5, r7, r8, sp, lr, pc}	@ <UNPREDICTABLE>
 800e058:	082fe120 	stmdaeq	pc!, {r5, r8, sp, lr, pc}	@ <UNPREDICTABLE>
 800e05c:	082fe2ac 	stmdaeq	pc!, {r2, r3, r5, r7, r9, sp, lr, pc}	@ <UNPREDICTABLE>
 800e060:	082fe1fc 	stmdaeq	pc!, {r2, r3, r4, r5, r6, r7, r8, sp, lr, pc}	@ <UNPREDICTABLE>
 800e064:	082fe1ec 	stmdaeq	pc!, {r2, r3, r5, r6, r7, r8, sp, lr, pc}	@ <UNPREDICTABLE>
 800e068:	082fe1dc 	stmdaeq	pc!, {r2, r3, r4, r6, r7, r8, sp, lr, pc}	@ <UNPREDICTABLE>
 800e06c:	082fe108 	stmdaeq	pc!, {r3, r8, sp, lr, pc}	@ <UNPREDICTABLE>
 800e070:	082fe110 	stmdaeq	pc!, {r4, r8, sp, lr, pc}	@ <UNPREDICTABLE>
 800e074:	082fe0b8 	stmdaeq	pc!, {r3, r4, r5, r7, sp, lr, pc}	@ <UNPREDICTABLE>
 800e078:	082fe0ec 	stmdaeq	pc!, {r2, r3, r5, r6, r7, sp, lr, pc}	@ <UNPREDICTABLE>
 800e07c:	e92d4df0 	push	{r4, r5, r6, r7, r8, sl, fp, lr}
 800e080:	e28db018 	add	fp, sp, #24
 800e084:	e20250ff 	and	r5, r2, #255	@ 0xff
 800e088:	e3550020 	cmp	r5, #32
 800e08c:	2a000021 	bcs	0x800e118
 800e090:	e1b03531 	lsrs	r3, r1, r5
 800e094:	1a00001f 	bne	0x800e118
 800e098:	e5903008 	ldr	r3, [r0, #8]
 800e09c:	e0937005 	adds	r7, r3, r5
 800e0a0:	2a000020 	bcs	0x800e128
 800e0a4:	e31200ff 	tst	r2, #255	@ 0xff
 800e0a8:	0a000018 	beq	0x800e110
 800e0ac:	e8901010 	ldm	r0, {r4, ip}
 800e0b0:	e2452001 	sub	r2, r5, #1
 800e0b4:	e3a08001 	mov	r8, #1
 800e0b8:	ea000004 	b	0x800e0d0
 800e0bc:	e2422001 	sub	r2, r2, #1
 800e0c0:	e2833001 	add	r3, r3, #1
 800e0c4:	e3720001 	cmn	r2, #1
 800e0c8:	e5803008 	str	r3, [r0, #8]
 800e0cc:	0a00000f 	beq	0x800e110
 800e0d0:	e0086231 	and	r6, r8, r1, lsr r2
 800e0d4:	e2137007 	ands	r7, r3, #7
 800e0d8:	e1a0e1a3 	lsr	lr, r3, #3
 800e0dc:	0a000006 	beq	0x800e0fc
 800e0e0:	e15e000c 	cmp	lr, ip
 800e0e4:	2a000013 	bcs	0x800e138
 800e0e8:	e7d4500e 	ldrb	r5, [r4, lr]
 800e0ec:	e2277007 	eor	r7, r7, #7
 800e0f0:	e1855716 	orr	r5, r5, r6, lsl r7
 800e0f4:	e7c4500e 	strb	r5, [r4, lr]
 800e0f8:	eaffffef 	b	0x800e0bc
 800e0fc:	e15e000c 	cmp	lr, ip
 800e100:	2a000010 	bcs	0x800e148
 800e104:	e1a06386 	lsl	r6, r6, #7
 800e108:	e7c4600e 	strb	r6, [r4, lr]
 800e10c:	eaffffea 	b	0x800e0bc
 800e110:	e8bd4df0 	pop	{r4, r5, r6, r7, r8, sl, fp, lr}
 800e114:	e12fff1e 	bx	lr
 800e118:	e59f0038 	ldr	r0, [pc, #56]	@ 0x800e158
 800e11c:	e59f2038 	ldr	r2, [pc, #56]	@ 0x800e15c
 800e120:	e3a0102e 	mov	r1, #46	@ 0x2e
 800e124:	ebffe233 	bl	0x80069f8
 800e128:	e59f0038 	ldr	r0, [pc, #56]	@ 0x800e168
 800e12c:	e59f2038 	ldr	r2, [pc, #56]	@ 0x800e16c
 800e130:	e3a0103e 	mov	r1, #62	@ 0x3e
 800e134:	ebffe22f 	bl	0x80069f8
 800e138:	e59f2020 	ldr	r2, [pc, #32]	@ 0x800e160
 800e13c:	e1a0000e 	mov	r0, lr
 800e140:	e1a0100c 	mov	r1, ip
 800e144:	ebffe240 	bl	0x8006a4c
 800e148:	e59f2014 	ldr	r2, [pc, #20]	@ 0x800e164
 800e14c:	e1a0000e 	mov	r0, lr
 800e150:	e1a0100c 	mov	r1, ip
 800e154:	ebffe23c 	bl	0x8006a4c
 800e158:	082fe5d0 	stmdaeq	pc!, {r4, r6, r7, r8, sl, sp, lr, pc}	@ <UNPREDICTABLE>
 800e15c:	082fe600 	stmdaeq	pc!, {r9, sl, sp, lr, pc}	@ <UNPREDICTABLE>
 800e160:	082fe5c0 	stmdaeq	pc!, {r6, r7, r8, sl, sp, lr, pc}	@ <UNPREDICTABLE>
 800e164:	082fe5b0 	stmdaeq	pc!, {r4, r5, r7, r8, sl, sp, lr, pc}	@ <UNPREDICTABLE>
 800e168:	082fe560 	stmdaeq	pc!, {r5, r6, r8, sl, sp, lr, pc}	@ <UNPREDICTABLE>
 800e16c:	082fe5a0 	stmdaeq	pc!, {r5, r7, r8, sl, sp, lr, pc}	@ <UNPREDICTABLE>
 800e170:	e92d4ff0 	push	{r4, r5, r6, r7, r8, r9, sl, fp, lr}
 800e174:	e28db01c 	add	fp, sp, #28
 800e178:	e24dd064 	sub	sp, sp, #100	@ 0x64
 800e17c:	e20350ff 	and	r5, r3, #255	@ 0xff
 800e180:	e3a07011 	mov	r7, #17
 800e184:	e1a09003 	mov	r9, r3
 800e188:	e50b203c 	str	r2, [fp, #-60]	@ 0xffffffc4
 800e18c:	e0876105 	add	r6, r7, r5, lsl #2
 800e190:	e0030696 	mul	r3, r6, r6
 800e194:	e3a06001 	mov	r6, #1
 800e198:	e2833007 	add	r3, r3, #7
 800e19c:	e08631a3 	add	r3, r6, r3, lsr #3
 800e1a0:	e1530002 	cmp	r3, r2
 800e1a4:	e50b3038 	str	r3, [fp, #-56]	@ 0xffffffc8
 800e1a8:	1a0002df 	bne	0x800ed2c
 800e1ac:	e0878109 	add	r8, r7, r9, lsl #2
 800e1b0:	e1a0a001 	mov	sl, r1
 800e1b4:	e58d1038 	str	r1, [sp, #56]	@ 0x38
 800e1b8:	e2421001 	sub	r1, r2, #1
 800e1bc:	e58d003c 	str	r0, [sp, #60]	@ 0x3c
 800e1c0:	e4ca8001 	strb	r8, [sl], #1
 800e1c4:	e58d1040 	str	r1, [sp, #64]	@ 0x40
 800e1c8:	e1a0000a 	mov	r0, sl
 800e1cc:	eb000e5b 	bl	0x8011b40
 800e1d0:	e20870ff 	and	r7, r8, #255	@ 0xff
 800e1d4:	e1a0e109 	lsl	lr, r9, #2
 800e1d8:	e3a01006 	mov	r1, #6
 800e1dc:	e1a02007 	mov	r2, r7
 800e1e0:	e3570007 	cmp	r7, #7
 800e1e4:	3a0002cc 	bcc	0x800ed1c
 800e1e8:	e59d3040 	ldr	r3, [sp, #64]	@ 0x40
 800e1ec:	e1a001a1 	lsr	r0, r1, #3
 800e1f0:	e15301a1 	cmp	r3, r1, lsr #3
 800e1f4:	9a0003f4 	bls	0x800f1cc
 800e1f8:	e7da3000 	ldrb	r3, [sl, r0]
 800e1fc:	e2014007 	and	r4, r1, #7
 800e200:	e0811007 	add	r1, r1, r7
 800e204:	e2522001 	subs	r2, r2, #1
 800e208:	e1833416 	orr	r3, r3, r6, lsl r4
 800e20c:	e7ca3000 	strb	r3, [sl, r0]
 800e210:	1afffff2 	bne	0x800e1e0
 800e214:	e59d1040 	ldr	r1, [sp, #64]	@ 0x40
 800e218:	e0870087 	add	r0, r7, r7, lsl #1
 800e21c:	e58d5010 	str	r5, [sp, #16]
 800e220:	e3a02001 	mov	r2, #1
 800e224:	e1a03007 	mov	r3, r7
 800e228:	e1a05080 	lsl	r5, r0, #1
 800e22c:	e58d0014 	str	r0, [sp, #20]
 800e230:	e1a001a5 	lsr	r0, r5, #3
 800e234:	e15101a5 	cmp	r1, r5, lsr #3
 800e238:	9a0002c2 	bls	0x800ed48
 800e23c:	e7da6000 	ldrb	r6, [sl, r0]
 800e240:	e2054007 	and	r4, r5, #7
 800e244:	e2533001 	subs	r3, r3, #1
 800e248:	e2855001 	add	r5, r5, #1
 800e24c:	e1866412 	orr	r6, r6, r2, lsl r4
 800e250:	e7ca6000 	strb	r6, [sl, r0]
 800e254:	1afffff5 	bne	0x800e230
 800e258:	e3a03000 	mov	r3, #0
 800e25c:	e3a02008 	mov	r2, #8
 800e260:	e3a0c001 	mov	ip, #1
 800e264:	e1570003 	cmp	r7, r3
 800e268:	0a0002ab 	beq	0x800ed1c
 800e26c:	e2426008 	sub	r6, r2, #8
 800e270:	e1a001a6 	lsr	r0, r6, #3
 800e274:	e15101a6 	cmp	r1, r6, lsr #3
 800e278:	9a0003d3 	bls	0x800f1cc
 800e27c:	e7da4000 	ldrb	r4, [sl, r0]
 800e280:	e2066007 	and	r6, r6, #7
 800e284:	e184461c 	orr	r4, r4, ip, lsl r6
 800e288:	e7ca4000 	strb	r4, [sl, r0]
 800e28c:	e2424007 	sub	r4, r2, #7
 800e290:	e1a001a4 	lsr	r0, r4, #3
 800e294:	e15101a4 	cmp	r1, r4, lsr #3
 800e298:	87da5000 	ldrbhi	r5, [sl, r0]
 800e29c:	82044007 	andhi	r4, r4, #7
 800e2a0:	8185541c 	orrhi	r5, r5, ip, lsl r4
 800e2a4:	82424006 	subhi	r4, r2, #6
 800e2a8:	87ca5000 	strbhi	r5, [sl, r0]
 800e2ac:	81a001a4 	lsrhi	r0, r4, #3
 800e2b0:	815101a4 	cmphi	r1, r4, lsr #3
 800e2b4:	9a0003c4 	bls	0x800f1cc
 800e2b8:	e7da5000 	ldrb	r5, [sl, r0]
 800e2bc:	e2044007 	and	r4, r4, #7
 800e2c0:	e185541c 	orr	r5, r5, ip, lsl r4
 800e2c4:	e2424005 	sub	r4, r2, #5
 800e2c8:	e7ca5000 	strb	r5, [sl, r0]
 800e2cc:	e1a001a4 	lsr	r0, r4, #3
 800e2d0:	e15101a4 	cmp	r1, r4, lsr #3
 800e2d4:	87da5000 	ldrbhi	r5, [sl, r0]
 800e2d8:	82044007 	andhi	r4, r4, #7
 800e2dc:	8185541c 	orrhi	r5, r5, ip, lsl r4
 800e2e0:	82424004 	subhi	r4, r2, #4
 800e2e4:	87ca5000 	strbhi	r5, [sl, r0]
 800e2e8:	81a001a4 	lsrhi	r0, r4, #3
 800e2ec:	815101a4 	cmphi	r1, r4, lsr #3
 800e2f0:	9a0003b5 	bls	0x800f1cc
 800e2f4:	e7da5000 	ldrb	r5, [sl, r0]
 800e2f8:	e2044007 	and	r4, r4, #7
 800e2fc:	e185541c 	orr	r5, r5, ip, lsl r4
 800e300:	e2424003 	sub	r4, r2, #3
 800e304:	e7ca5000 	strb	r5, [sl, r0]
 800e308:	e1a001a4 	lsr	r0, r4, #3
 800e30c:	e15101a4 	cmp	r1, r4, lsr #3
 800e310:	87da5000 	ldrbhi	r5, [sl, r0]
 800e314:	82044007 	andhi	r4, r4, #7
 800e318:	8185541c 	orrhi	r5, r5, ip, lsl r4
 800e31c:	82424002 	subhi	r4, r2, #2
 800e320:	87ca5000 	strbhi	r5, [sl, r0]
 800e324:	81a001a4 	lsrhi	r0, r4, #3
 800e328:	815101a4 	cmphi	r1, r4, lsr #3
 800e32c:	9a0003a6 	bls	0x800f1cc
 800e330:	e7da5000 	ldrb	r5, [sl, r0]
 800e334:	e2044007 	and	r4, r4, #7
 800e338:	e185541c 	orr	r5, r5, ip, lsl r4
 800e33c:	e2424001 	sub	r4, r2, #1
 800e340:	e7ca5000 	strb	r5, [sl, r0]
 800e344:	e1a001a4 	lsr	r0, r4, #3
 800e348:	e15101a4 	cmp	r1, r4, lsr #3
 800e34c:	87da5000 	ldrbhi	r5, [sl, r0]
 800e350:	82044007 	andhi	r4, r4, #7
 800e354:	8185541c 	orrhi	r5, r5, ip, lsl r4
 800e358:	87ca5000 	strbhi	r5, [sl, r0]
 800e35c:	81a001a2 	lsrhi	r0, r2, #3
 800e360:	815101a2 	cmphi	r1, r2, lsr #3
 800e364:	9a000398 	bls	0x800f1cc
 800e368:	e7da5000 	ldrb	r5, [sl, r0]
 800e36c:	e1a0661c 	lsl	r6, ip, r6
 800e370:	e2833001 	add	r3, r3, #1
 800e374:	e0822007 	add	r2, r2, r7
 800e378:	e3530009 	cmp	r3, #9
 800e37c:	e1856006 	orr	r6, r5, r6
 800e380:	e7ca6000 	strb	r6, [sl, r0]
 800e384:	1affffb6 	bne	0x800e264
 800e388:	e28e0009 	add	r0, lr, #9
 800e38c:	e58de018 	str	lr, [sp, #24]
 800e390:	e3a0c000 	mov	ip, #0
 800e394:	e3a01001 	mov	r1, #1
 800e398:	e58d7034 	str	r7, [sp, #52]	@ 0x34
 800e39c:	e200e0ff 	and	lr, r0, #255	@ 0xff
 800e3a0:	e28e0006 	add	r0, lr, #6
 800e3a4:	e28e3007 	add	r3, lr, #7
 800e3a8:	e58d001c 	str	r0, [sp, #28]
 800e3ac:	e28e0005 	add	r0, lr, #5
 800e3b0:	e1a02003 	mov	r2, r3
 800e3b4:	e58d0020 	str	r0, [sp, #32]
 800e3b8:	e28e0004 	add	r0, lr, #4
 800e3bc:	e58d0024 	str	r0, [sp, #36]	@ 0x24
 800e3c0:	e28e0003 	add	r0, lr, #3
 800e3c4:	e58d0028 	str	r0, [sp, #40]	@ 0x28
 800e3c8:	e38e0002 	orr	r0, lr, #2
 800e3cc:	e58d002c 	str	r0, [sp, #44]	@ 0x2c
 800e3d0:	e28e0001 	add	r0, lr, #1
 800e3d4:	e58d0030 	str	r0, [sp, #48]	@ 0x30
 800e3d8:	e157000c 	cmp	r7, ip
 800e3dc:	0a00024e 	beq	0x800ed1c
 800e3e0:	e20860ff 	and	r6, r8, #255	@ 0xff
 800e3e4:	e15e0006 	cmp	lr, r6
 800e3e8:	2a00024b 	bcs	0x800ed1c
 800e3ec:	e59d5040 	ldr	r5, [sp, #64]	@ 0x40
 800e3f0:	e2424007 	sub	r4, r2, #7
 800e3f4:	e1a001a4 	lsr	r0, r4, #3
 800e3f8:	e15501a4 	cmp	r5, r4, lsr #3
 800e3fc:	9a000372 	bls	0x800f1cc
 800e400:	e7da5000 	ldrb	r5, [sl, r0]
 800e404:	e2044007 	and	r4, r4, #7
 800e408:	e1854411 	orr	r4, r5, r1, lsl r4
 800e40c:	e7ca4000 	strb	r4, [sl, r0]
 800e410:	e59d0034 	ldr	r0, [sp, #52]	@ 0x34
 800e414:	e59d4030 	ldr	r4, [sp, #48]	@ 0x30
 800e418:	e1540000 	cmp	r4, r0
 800e41c:	2a00023e 	bcs	0x800ed1c
 800e420:	e59d5040 	ldr	r5, [sp, #64]	@ 0x40
 800e424:	e2424006 	sub	r4, r2, #6
 800e428:	e1a001a4 	lsr	r0, r4, #3
 800e42c:	e15501a4 	cmp	r5, r4, lsr #3
 800e430:	9a000365 	bls	0x800f1cc
 800e434:	e7da5000 	ldrb	r5, [sl, r0]
 800e438:	e2044007 	and	r4, r4, #7
 800e43c:	e1854411 	orr	r4, r5, r1, lsl r4
 800e440:	e7ca4000 	strb	r4, [sl, r0]
 800e444:	e59d0034 	ldr	r0, [sp, #52]	@ 0x34
 800e448:	e59d402c 	ldr	r4, [sp, #44]	@ 0x2c
 800e44c:	e1540000 	cmp	r4, r0
 800e450:	2a000231 	bcs	0x800ed1c
 800e454:	e59d5040 	ldr	r5, [sp, #64]	@ 0x40
 800e458:	e2424005 	sub	r4, r2, #5
 800e45c:	e1a001a4 	lsr	r0, r4, #3
 800e460:	e15501a4 	cmp	r5, r4, lsr #3
 800e464:	9a000358 	bls	0x800f1cc
 800e468:	e7da5000 	ldrb	r5, [sl, r0]
 800e46c:	e2044007 	and	r4, r4, #7
 800e470:	e1854411 	orr	r4, r5, r1, lsl r4
 800e474:	e7ca4000 	strb	r4, [sl, r0]
 800e478:	e59d0034 	ldr	r0, [sp, #52]	@ 0x34
 800e47c:	e59d4028 	ldr	r4, [sp, #40]	@ 0x28
 800e480:	e1540000 	cmp	r4, r0
 800e484:	2a000224 	bcs	0x800ed1c
 800e488:	e59d5040 	ldr	r5, [sp, #64]	@ 0x40
 800e48c:	e2424004 	sub	r4, r2, #4
 800e490:	e1a001a4 	lsr	r0, r4, #3
 800e494:	e15501a4 	cmp	r5, r4, lsr #3
 800e498:	9a00034b 	bls	0x800f1cc
 800e49c:	e7da5000 	ldrb	r5, [sl, r0]
 800e4a0:	e2044007 	and	r4, r4, #7
 800e4a4:	e1854411 	orr	r4, r5, r1, lsl r4
 800e4a8:	e7ca4000 	strb	r4, [sl, r0]
 800e4ac:	e59d0034 	ldr	r0, [sp, #52]	@ 0x34
 800e4b0:	e59d4024 	ldr	r4, [sp, #36]	@ 0x24
 800e4b4:	e1540000 	cmp	r4, r0
 800e4b8:	2a000217 	bcs	0x800ed1c
 800e4bc:	e59d5040 	ldr	r5, [sp, #64]	@ 0x40
 800e4c0:	e2424003 	sub	r4, r2, #3
 800e4c4:	e1a001a4 	lsr	r0, r4, #3
 800e4c8:	e15501a4 	cmp	r5, r4, lsr #3
 800e4cc:	9a00033e 	bls	0x800f1cc
 800e4d0:	e7da5000 	ldrb	r5, [sl, r0]
 800e4d4:	e2044007 	and	r4, r4, #7
 800e4d8:	e1854411 	orr	r4, r5, r1, lsl r4
 800e4dc:	e7ca4000 	strb	r4, [sl, r0]
 800e4e0:	e59d0034 	ldr	r0, [sp, #52]	@ 0x34
 800e4e4:	e59d4020 	ldr	r4, [sp, #32]
 800e4e8:	e1540000 	cmp	r4, r0
 800e4ec:	2a00020a 	bcs	0x800ed1c
 800e4f0:	e59d5040 	ldr	r5, [sp, #64]	@ 0x40
 800e4f4:	e2424002 	sub	r4, r2, #2
 800e4f8:	e1a001a4 	lsr	r0, r4, #3
 800e4fc:	e15501a4 	cmp	r5, r4, lsr #3
 800e500:	9a000331 	bls	0x800f1cc
 800e504:	e7da5000 	ldrb	r5, [sl, r0]
 800e508:	e2044007 	and	r4, r4, #7
 800e50c:	e1854411 	orr	r4, r5, r1, lsl r4
 800e510:	e7ca4000 	strb	r4, [sl, r0]
 800e514:	e59d0034 	ldr	r0, [sp, #52]	@ 0x34
 800e518:	e59d401c 	ldr	r4, [sp, #28]
 800e51c:	e1540000 	cmp	r4, r0
 800e520:	2a0001fd 	bcs	0x800ed1c
 800e524:	e59d5040 	ldr	r5, [sp, #64]	@ 0x40
 800e528:	e2424001 	sub	r4, r2, #1
 800e52c:	e1a001a4 	lsr	r0, r4, #3
 800e530:	e15501a4 	cmp	r5, r4, lsr #3
 800e534:	9a000324 	bls	0x800f1cc
 800e538:	e7da5000 	ldrb	r5, [sl, r0]
 800e53c:	e2044007 	and	r4, r4, #7
 800e540:	e1854411 	orr	r4, r5, r1, lsl r4
 800e544:	e7ca4000 	strb	r4, [sl, r0]
 800e548:	e59d0034 	ldr	r0, [sp, #52]	@ 0x34
 800e54c:	e1530000 	cmp	r3, r0
 800e550:	2a0001f1 	bcs	0x800ed1c
 800e554:	e59d4040 	ldr	r4, [sp, #64]	@ 0x40
 800e558:	e1a001a2 	lsr	r0, r2, #3
 800e55c:	e15401a2 	cmp	r4, r2, lsr #3
 800e560:	9a000319 	bls	0x800f1cc
 800e564:	e7da4000 	ldrb	r4, [sl, r0]
 800e568:	e59d7034 	ldr	r7, [sp, #52]	@ 0x34
 800e56c:	e2025007 	and	r5, r2, #7
 800e570:	e28cc001 	add	ip, ip, #1
 800e574:	e35c0009 	cmp	ip, #9
 800e578:	e1844511 	orr	r4, r4, r1, lsl r5
 800e57c:	e0822007 	add	r2, r2, r7
 800e580:	e7ca4000 	strb	r4, [sl, r0]
 800e584:	1affff93 	bne	0x800e3d8
 800e588:	e59d1040 	ldr	r1, [sp, #64]	@ 0x40
 800e58c:	e0000e97 	mul	r0, r7, lr
 800e590:	e3a03000 	mov	r3, #0
 800e594:	e3a0c001 	mov	ip, #1
 800e598:	e58d6028 	str	r6, [sp, #40]	@ 0x28
 800e59c:	e2802008 	add	r2, r0, #8
 800e5a0:	e08e0003 	add	r0, lr, r3
 800e5a4:	e1500007 	cmp	r0, r7
 800e5a8:	2a0001db 	bcs	0x800ed1c
 800e5ac:	e2426008 	sub	r6, r2, #8
 800e5b0:	e1a001a6 	lsr	r0, r6, #3
 800e5b4:	e15101a6 	cmp	r1, r6, lsr #3
 800e5b8:	9a000303 	bls	0x800f1cc
 800e5bc:	e7da5000 	ldrb	r5, [sl, r0]
 800e5c0:	e2066007 	and	r6, r6, #7
 800e5c4:	e2424007 	sub	r4, r2, #7
 800e5c8:	e15101a4 	cmp	r1, r4, lsr #3
 800e5cc:	e185561c 	orr	r5, r5, ip, lsl r6
 800e5d0:	e7ca5000 	strb	r5, [sl, r0]
 800e5d4:	e1a001a4 	lsr	r0, r4, #3
 800e5d8:	82044007 	andhi	r4, r4, #7
 800e5dc:	87da5000 	ldrbhi	r5, [sl, r0]
 800e5e0:	8185541c 	orrhi	r5, r5, ip, lsl r4
 800e5e4:	82424006 	subhi	r4, r2, #6
 800e5e8:	87ca5000 	strbhi	r5, [sl, r0]
 800e5ec:	81a001a4 	lsrhi	r0, r4, #3
 800e5f0:	815101a4 	cmphi	r1, r4, lsr #3
 800e5f4:	9a0002f4 	bls	0x800f1cc
 800e5f8:	e7da5000 	ldrb	r5, [sl, r0]
 800e5fc:	e2044007 	and	r4, r4, #7
 800e600:	e185541c 	orr	r5, r5, ip, lsl r4
 800e604:	e2424005 	sub	r4, r2, #5
 800e608:	e7ca5000 	strb	r5, [sl, r0]
 800e60c:	e1a001a4 	lsr	r0, r4, #3
 800e610:	e15101a4 	cmp	r1, r4, lsr #3
 800e614:	87da5000 	ldrbhi	r5, [sl, r0]
 800e618:	82044007 	andhi	r4, r4, #7
 800e61c:	8185541c 	orrhi	r5, r5, ip, lsl r4
 800e620:	82424004 	subhi	r4, r2, #4
 800e624:	87ca5000 	strbhi	r5, [sl, r0]
 800e628:	81a001a4 	lsrhi	r0, r4, #3
 800e62c:	815101a4 	cmphi	r1, r4, lsr #3
 800e630:	9a0002e5 	bls	0x800f1cc
 800e634:	e7da5000 	ldrb	r5, [sl, r0]
 800e638:	e2044007 	and	r4, r4, #7
 800e63c:	e185541c 	orr	r5, r5, ip, lsl r4
 800e640:	e2424003 	sub	r4, r2, #3
 800e644:	e7ca5000 	strb	r5, [sl, r0]
 800e648:	e1a001a4 	lsr	r0, r4, #3
 800e64c:	e15101a4 	cmp	r1, r4, lsr #3
 800e650:	87da5000 	ldrbhi	r5, [sl, r0]
 800e654:	82044007 	andhi	r4, r4, #7
 800e658:	8185541c 	orrhi	r5, r5, ip, lsl r4
 800e65c:	82424002 	subhi	r4, r2, #2
 800e660:	87ca5000 	strbhi	r5, [sl, r0]
 800e664:	81a001a4 	lsrhi	r0, r4, #3
 800e668:	815101a4 	cmphi	r1, r4, lsr #3
 800e66c:	9a0002d6 	bls	0x800f1cc
 800e670:	e7da5000 	ldrb	r5, [sl, r0]
 800e674:	e2044007 	and	r4, r4, #7
 800e678:	e185541c 	orr	r5, r5, ip, lsl r4
 800e67c:	e2424001 	sub	r4, r2, #1
 800e680:	e7ca5000 	strb	r5, [sl, r0]
 800e684:	e1a001a4 	lsr	r0, r4, #3
 800e688:	e15101a4 	cmp	r1, r4, lsr #3
 800e68c:	87da5000 	ldrbhi	r5, [sl, r0]
 800e690:	82044007 	andhi	r4, r4, #7
 800e694:	8185541c 	orrhi	r5, r5, ip, lsl r4
 800e698:	87ca5000 	strbhi	r5, [sl, r0]
 800e69c:	81a001a2 	lsrhi	r0, r2, #3
 800e6a0:	815101a2 	cmphi	r1, r2, lsr #3
 800e6a4:	9a0002c8 	bls	0x800f1cc
 800e6a8:	e7da5000 	ldrb	r5, [sl, r0]
 800e6ac:	e1a0661c 	lsl	r6, ip, r6
 800e6b0:	e2833001 	add	r3, r3, #1
 800e6b4:	e0822007 	add	r2, r2, r7
 800e6b8:	e3530008 	cmp	r3, #8
 800e6bc:	e1856006 	orr	r6, r5, r6
 800e6c0:	e7ca6000 	strb	r6, [sl, r0]
 800e6c4:	1affffb5 	bne	0x800e5a0
 800e6c8:	e209103f 	and	r1, r9, #63	@ 0x3f
 800e6cc:	e3a04000 	mov	r4, #0
 800e6d0:	e2410001 	sub	r0, r1, #1
 800e6d4:	e54b402e 	strb	r4, [fp, #-46]	@ 0xffffffd2
 800e6d8:	e14b43b0 	strh	r4, [fp, #-48]	@ 0xffffffd0
 800e6dc:	e50b4034 	str	r4, [fp, #-52]	@ 0xffffffcc
 800e6e0:	e3500028 	cmp	r0, #40	@ 0x28
 800e6e4:	2a0002bb 	bcs	0x800f1d8
 800e6e8:	e59d7018 	ldr	r7, [sp, #24]
 800e6ec:	e3510001 	cmp	r1, #1
 800e6f0:	0a00003f 	beq	0x800e7f4
 800e6f4:	e20700ff 	and	r0, r7, #255	@ 0xff
 800e6f8:	e3a02025 	mov	r2, #37	@ 0x25
 800e6fc:	e3510020 	cmp	r1, #32
 800e700:	e1a00120 	lsr	r0, r0, #2
 800e704:	e0030290 	mul	r3, r0, r2
 800e708:	e3a00002 	mov	r0, #2
 800e70c:	e0804423 	add	r4, r0, r3, lsr #8
 800e710:	e1a05423 	lsr	r5, r3, #8
 800e714:	e3a000e6 	mov	r0, #230	@ 0xe6
 800e718:	0a000009 	beq	0x800e744
 800e71c:	e3e00001 	mvn	r0, #1
 800e720:	e0800084 	add	r0, r0, r4, lsl #1
 800e724:	e20010ff 	and	r1, r0, #255	@ 0xff
 800e728:	e0870084 	add	r0, r7, r4, lsl #1
 800e72c:	e3800001 	orr	r0, r0, #1
 800e730:	e20000ff 	and	r0, r0, #255	@ 0xff
 800e734:	eb000a50 	bl	0x801107c
 800e738:	e59d7018 	ldr	r7, [sp, #24]
 800e73c:	e3a01000 	mov	r1, #0
 800e740:	e0410080 	sub	r0, r1, r0, lsl #1
 800e744:	e2851001 	add	r1, r5, #1
 800e748:	e287200a 	add	r2, r7, #10
 800e74c:	e3a06000 	mov	r6, #0
 800e750:	e24b3034 	sub	r3, fp, #52	@ 0x34
 800e754:	e0252690 	mla	r5, r0, r6, r2
 800e758:	e7c35006 	strb	r5, [r3, r6]
 800e75c:	e2866001 	add	r6, r6, #1
 800e760:	e1510006 	cmp	r1, r6
 800e764:	1afffffa 	bne	0x800e754
 800e768:	e0830004 	add	r0, r3, r4
 800e76c:	e3a01006 	mov	r1, #6
 800e770:	e55b3034 	ldrb	r3, [fp, #-52]	@ 0xffffffcc
 800e774:	e5401001 	strb	r1, [r0, #-1]
 800e778:	e3e01000 	mvn	r1, #0
 800e77c:	e04000a4 	sub	r0, r0, r4, lsr #1
 800e780:	e08110a4 	add	r1, r1, r4, lsr #1
 800e784:	e7d02001 	ldrb	r2, [r0, r1]
 800e788:	e3510000 	cmp	r1, #0
 800e78c:	e7c03001 	strb	r3, [r0, r1]
 800e790:	e54b2034 	strb	r2, [fp, #-52]	@ 0xffffffcc
 800e794:	0a000016 	beq	0x800e7f4
 800e798:	e1a010a4 	lsr	r1, r4, #1
 800e79c:	e55b6033 	ldrb	r6, [fp, #-51]	@ 0xffffffcd
 800e7a0:	e2512002 	subs	r2, r1, #2
 800e7a4:	e7d03002 	ldrb	r3, [r0, r2]
 800e7a8:	e7c06002 	strb	r6, [r0, r2]
 800e7ac:	e54b3033 	strb	r3, [fp, #-51]	@ 0xffffffcd
 800e7b0:	0a00000f 	beq	0x800e7f4
 800e7b4:	e2512003 	subs	r2, r1, #3
 800e7b8:	e55b6032 	ldrb	r6, [fp, #-50]	@ 0xffffffce
 800e7bc:	e7d03002 	ldrb	r3, [r0, r2]
 800e7c0:	e7c06002 	strb	r6, [r0, r2]
 800e7c4:	e54b3032 	strb	r3, [fp, #-50]	@ 0xffffffce
 800e7c8:	0a000009 	beq	0x800e7f4
 800e7cc:	e2512004 	subs	r2, r1, #4
 800e7d0:	e55b6031 	ldrb	r6, [fp, #-49]	@ 0xffffffcf
 800e7d4:	e7d03002 	ldrb	r3, [r0, r2]
 800e7d8:	e7c06002 	strb	r6, [r0, r2]
 800e7dc:	10810000 	addne	r0, r1, r0
 800e7e0:	e54b3031 	strb	r3, [fp, #-49]	@ 0xffffffcf
 800e7e4:	155b2030 	ldrbne	r2, [fp, #-48]	@ 0xffffffd0
 800e7e8:	15501005 	ldrbne	r1, [r0, #-5]
 800e7ec:	15402005 	strbne	r2, [r0, #-5]
 800e7f0:	154b1030 	strbne	r1, [fp, #-48]	@ 0xffffffd0
 800e7f4:	e24b1034 	sub	r1, fp, #52	@ 0x34
 800e7f8:	e2442001 	sub	r2, r4, #1
 800e7fc:	e3a07000 	mov	r7, #0
 800e800:	e3a09001 	mov	r9, #1
 800e804:	e3a03000 	mov	r3, #0
 800e808:	e58d400c 	str	r4, [sp, #12]
 800e80c:	e0810004 	add	r0, r1, r4
 800e810:	e1a06001 	mov	r6, r1
 800e814:	e58d201c 	str	r2, [sp, #28]
 800e818:	e58d0000 	str	r0, [sp]
 800e81c:	e1560000 	cmp	r6, r0
 800e820:	0a000124 	beq	0x800ecb8
 800e824:	e2830001 	add	r0, r3, #1
 800e828:	e3a0e000 	mov	lr, #0
 800e82c:	e58d6024 	str	r6, [sp, #36]	@ 0x24
 800e830:	e58d3020 	str	r3, [sp, #32]
 800e834:	e58d0008 	str	r0, [sp, #8]
 800e838:	e2860001 	add	r0, r6, #1
 800e83c:	e58d0004 	str	r0, [sp, #4]
 800e840:	e094000e 	adds	r0, r4, lr
 800e844:	0a000117 	beq	0x800eca8
 800e848:	e3530000 	cmp	r3, #0
 800e84c:	0a000003 	beq	0x800e860
 800e850:	e1530002 	cmp	r3, r2
 800e854:	035e0000 	cmpeq	lr, #0
 800e858:	1a000004 	bne	0x800e870
 800e85c:	ea00010e 	b	0x800ec9c
 800e860:	e35e0000 	cmp	lr, #0
 800e864:	0a00010c 	beq	0x800ec9c
 800e868:	e3500001 	cmp	r0, #1
 800e86c:	0a00010a 	beq	0x800ec9c
 800e870:	e751000e 	ldrb	r0, [r1, -lr]
 800e874:	e59d1034 	ldr	r1, [sp, #52]	@ 0x34
 800e878:	e2400002 	sub	r0, r0, #2
 800e87c:	e20050ff 	and	r5, r0, #255	@ 0xff
 800e880:	e5d60000 	ldrb	r0, [r6]
 800e884:	e0513005 	subs	r3, r1, r5
 800e888:	31a03007 	movcc	r3, r7
 800e88c:	e2400002 	sub	r0, r0, #2
 800e890:	e20080ff 	and	r8, r0, #255	@ 0xff
 800e894:	e59d0028 	ldr	r0, [sp, #40]	@ 0x28
 800e898:	e0516008 	subs	r6, r1, r8
 800e89c:	31a06007 	movcc	r6, r7
 800e8a0:	e1500005 	cmp	r0, r5
 800e8a4:	859d0028 	ldrhi	r0, [sp, #40]	@ 0x28
 800e8a8:	81500008 	cmphi	r0, r8
 800e8ac:	9a00011a 	bls	0x800ed1c
 800e8b0:	e59d0034 	ldr	r0, [sp, #52]	@ 0x34
 800e8b4:	e59d2040 	ldr	r2, [sp, #64]	@ 0x40
 800e8b8:	e0010095 	mul	r1, r5, r0
 800e8bc:	e0814008 	add	r4, r1, r8
 800e8c0:	e1a001a4 	lsr	r0, r4, #3
 800e8c4:	e15201a4 	cmp	r2, r4, lsr #3
 800e8c8:	9a00023f 	bls	0x800f1cc
 800e8cc:	e7da2000 	ldrb	r2, [sl, r0]
 800e8d0:	e2044007 	and	r4, r4, #7
 800e8d4:	e3560001 	cmp	r6, #1
 800e8d8:	e1822419 	orr	r2, r2, r9, lsl r4
 800e8dc:	e7ca2000 	strb	r2, [sl, r0]
 800e8e0:	0a00010d 	beq	0x800ed1c
 800e8e4:	e59d2040 	ldr	r2, [sp, #64]	@ 0x40
 800e8e8:	e2887001 	add	r7, r8, #1
 800e8ec:	e0874001 	add	r4, r7, r1
 800e8f0:	e1a001a4 	lsr	r0, r4, #3
 800e8f4:	e15201a4 	cmp	r2, r4, lsr #3
 800e8f8:	9a000233 	bls	0x800f1cc
 800e8fc:	e7da2000 	ldrb	r2, [sl, r0]
 800e900:	e2044007 	and	r4, r4, #7
 800e904:	e3560002 	cmp	r6, #2
 800e908:	e1822419 	orr	r2, r2, r9, lsl r4
 800e90c:	e7ca2000 	strb	r2, [sl, r0]
 800e910:	0a000101 	beq	0x800ed1c
 800e914:	e59d2040 	ldr	r2, [sp, #64]	@ 0x40
 800e918:	e2880002 	add	r0, r8, #2
 800e91c:	e0804001 	add	r4, r0, r1
 800e920:	e58d0030 	str	r0, [sp, #48]	@ 0x30
 800e924:	e1a001a4 	lsr	r0, r4, #3
 800e928:	e15201a4 	cmp	r2, r4, lsr #3
 800e92c:	9a000226 	bls	0x800f1cc
 800e930:	e7da2000 	ldrb	r2, [sl, r0]
 800e934:	e2044007 	and	r4, r4, #7
 800e938:	e3560003 	cmp	r6, #3
 800e93c:	e1822419 	orr	r2, r2, r9, lsl r4
 800e940:	e7ca2000 	strb	r2, [sl, r0]
 800e944:	0a0000f4 	beq	0x800ed1c
 800e948:	e59d2040 	ldr	r2, [sp, #64]	@ 0x40
 800e94c:	e2880003 	add	r0, r8, #3
 800e950:	e0804001 	add	r4, r0, r1
 800e954:	e58d002c 	str	r0, [sp, #44]	@ 0x2c
 800e958:	e1a001a4 	lsr	r0, r4, #3
 800e95c:	e15201a4 	cmp	r2, r4, lsr #3
 800e960:	9a000219 	bls	0x800f1cc
 800e964:	e7da2000 	ldrb	r2, [sl, r0]
 800e968:	e2044007 	and	r4, r4, #7
 800e96c:	e3560004 	cmp	r6, #4
 800e970:	e1822419 	orr	r2, r2, r9, lsl r4
 800e974:	e7ca2000 	strb	r2, [sl, r0]
 800e978:	0a0000e7 	beq	0x800ed1c
 800e97c:	e59d2040 	ldr	r2, [sp, #64]	@ 0x40
 800e980:	e288c004 	add	ip, r8, #4
 800e984:	e08c1001 	add	r1, ip, r1
 800e988:	e1a001a1 	lsr	r0, r1, #3
 800e98c:	e15201a1 	cmp	r2, r1, lsr #3
 800e990:	9a00020d 	bls	0x800f1cc
 800e994:	e7da2000 	ldrb	r2, [sl, r0]
 800e998:	e2011007 	and	r1, r1, #7
 800e99c:	e3530001 	cmp	r3, #1
 800e9a0:	e1821119 	orr	r1, r2, r9, lsl r1
 800e9a4:	e7ca1000 	strb	r1, [sl, r0]
 800e9a8:	0a0000db 	beq	0x800ed1c
 800e9ac:	e59d2034 	ldr	r2, [sp, #52]	@ 0x34
 800e9b0:	e59d6040 	ldr	r6, [sp, #64]	@ 0x40
 800e9b4:	e2850001 	add	r0, r5, #1
 800e9b8:	e0010290 	mul	r1, r0, r2
 800e9bc:	e0814008 	add	r4, r1, r8
 800e9c0:	e1a001a4 	lsr	r0, r4, #3
 800e9c4:	e15601a4 	cmp	r6, r4, lsr #3
 800e9c8:	9a0001ff 	bls	0x800f1cc
 800e9cc:	e7da2000 	ldrb	r2, [sl, r0]
 800e9d0:	e2044007 	and	r4, r4, #7
 800e9d4:	e1822419 	orr	r2, r2, r9, lsl r4
 800e9d8:	e0874001 	add	r4, r7, r1
 800e9dc:	e7ca2000 	strb	r2, [sl, r0]
 800e9e0:	e1a001a4 	lsr	r0, r4, #3
 800e9e4:	e15601a4 	cmp	r6, r4, lsr #3
 800e9e8:	87da2000 	ldrbhi	r2, [sl, r0]
 800e9ec:	82044007 	andhi	r4, r4, #7
 800e9f0:	81822419 	orrhi	r2, r2, r9, lsl r4
 800e9f4:	87ca2000 	strbhi	r2, [sl, r0]
 800e9f8:	859d0030 	ldrhi	r0, [sp, #48]	@ 0x30
 800e9fc:	80804001 	addhi	r4, r0, r1
 800ea00:	81a001a4 	lsrhi	r0, r4, #3
 800ea04:	815601a4 	cmphi	r6, r4, lsr #3
 800ea08:	9a0001ef 	bls	0x800f1cc
 800ea0c:	e7da2000 	ldrb	r2, [sl, r0]
 800ea10:	e2044007 	and	r4, r4, #7
 800ea14:	e1822419 	orr	r2, r2, r9, lsl r4
 800ea18:	e7ca2000 	strb	r2, [sl, r0]
 800ea1c:	e59d002c 	ldr	r0, [sp, #44]	@ 0x2c
 800ea20:	e0804001 	add	r4, r0, r1
 800ea24:	e15601a4 	cmp	r6, r4, lsr #3
 800ea28:	e1a001a4 	lsr	r0, r4, #3
 800ea2c:	87da2000 	ldrbhi	r2, [sl, r0]
 800ea30:	82044007 	andhi	r4, r4, #7
 800ea34:	808c1001 	addhi	r1, ip, r1
 800ea38:	81822419 	orrhi	r2, r2, r9, lsl r4
 800ea3c:	87ca2000 	strbhi	r2, [sl, r0]
 800ea40:	81a001a1 	lsrhi	r0, r1, #3
 800ea44:	815601a1 	cmphi	r6, r1, lsr #3
 800ea48:	9a0001df 	bls	0x800f1cc
 800ea4c:	e7da2000 	ldrb	r2, [sl, r0]
 800ea50:	e2011007 	and	r1, r1, #7
 800ea54:	e3530002 	cmp	r3, #2
 800ea58:	e1821119 	orr	r1, r2, r9, lsl r1
 800ea5c:	e7ca1000 	strb	r1, [sl, r0]
 800ea60:	0a0000ad 	beq	0x800ed1c
 800ea64:	e59d2034 	ldr	r2, [sp, #52]	@ 0x34
 800ea68:	e59d6040 	ldr	r6, [sp, #64]	@ 0x40
 800ea6c:	e2850002 	add	r0, r5, #2
 800ea70:	e0010290 	mul	r1, r0, r2
 800ea74:	e0814008 	add	r4, r1, r8
 800ea78:	e1a001a4 	lsr	r0, r4, #3
 800ea7c:	e15601a4 	cmp	r6, r4, lsr #3
 800ea80:	9a0001d1 	bls	0x800f1cc
 800ea84:	e7da2000 	ldrb	r2, [sl, r0]
 800ea88:	e2044007 	and	r4, r4, #7
 800ea8c:	e1822419 	orr	r2, r2, r9, lsl r4
 800ea90:	e0874001 	add	r4, r7, r1
 800ea94:	e7ca2000 	strb	r2, [sl, r0]
 800ea98:	e1a001a4 	lsr	r0, r4, #3
 800ea9c:	e15601a4 	cmp	r6, r4, lsr #3
 800eaa0:	87da2000 	ldrbhi	r2, [sl, r0]
 800eaa4:	82044007 	andhi	r4, r4, #7
 800eaa8:	81822419 	orrhi	r2, r2, r9, lsl r4
 800eaac:	87ca2000 	strbhi	r2, [sl, r0]
 800eab0:	859d0030 	ldrhi	r0, [sp, #48]	@ 0x30
 800eab4:	80804001 	addhi	r4, r0, r1
 800eab8:	81a001a4 	lsrhi	r0, r4, #3
 800eabc:	815601a4 	cmphi	r6, r4, lsr #3
 800eac0:	9a0001c1 	bls	0x800f1cc
 800eac4:	e7da2000 	ldrb	r2, [sl, r0]
 800eac8:	e2044007 	and	r4, r4, #7
 800eacc:	e1822419 	orr	r2, r2, r9, lsl r4
 800ead0:	e7ca2000 	strb	r2, [sl, r0]
 800ead4:	e59d002c 	ldr	r0, [sp, #44]	@ 0x2c
 800ead8:	e0804001 	add	r4, r0, r1
 800eadc:	e15601a4 	cmp	r6, r4, lsr #3
 800eae0:	e1a001a4 	lsr	r0, r4, #3
 800eae4:	87da2000 	ldrbhi	r2, [sl, r0]
 800eae8:	82044007 	andhi	r4, r4, #7
 800eaec:	808c1001 	addhi	r1, ip, r1
 800eaf0:	81822419 	orrhi	r2, r2, r9, lsl r4
 800eaf4:	87ca2000 	strbhi	r2, [sl, r0]
 800eaf8:	81a001a1 	lsrhi	r0, r1, #3
 800eafc:	815601a1 	cmphi	r6, r1, lsr #3
 800eb00:	9a0001b1 	bls	0x800f1cc
 800eb04:	e7da2000 	ldrb	r2, [sl, r0]
 800eb08:	e2011007 	and	r1, r1, #7
 800eb0c:	e3530003 	cmp	r3, #3
 800eb10:	e1821119 	orr	r1, r2, r9, lsl r1
 800eb14:	e7ca1000 	strb	r1, [sl, r0]
 800eb18:	0a00007f 	beq	0x800ed1c
 800eb1c:	e59d2034 	ldr	r2, [sp, #52]	@ 0x34
 800eb20:	e59d6040 	ldr	r6, [sp, #64]	@ 0x40
 800eb24:	e2850003 	add	r0, r5, #3
 800eb28:	e0010290 	mul	r1, r0, r2
 800eb2c:	e0814008 	add	r4, r1, r8
 800eb30:	e1a001a4 	lsr	r0, r4, #3
 800eb34:	e15601a4 	cmp	r6, r4, lsr #3
 800eb38:	9a0001a3 	bls	0x800f1cc
 800eb3c:	e7da2000 	ldrb	r2, [sl, r0]
 800eb40:	e2044007 	and	r4, r4, #7
 800eb44:	e1822419 	orr	r2, r2, r9, lsl r4
 800eb48:	e0874001 	add	r4, r7, r1
 800eb4c:	e7ca2000 	strb	r2, [sl, r0]
 800eb50:	e1a001a4 	lsr	r0, r4, #3
 800eb54:	e15601a4 	cmp	r6, r4, lsr #3
 800eb58:	87da2000 	ldrbhi	r2, [sl, r0]
 800eb5c:	82044007 	andhi	r4, r4, #7
 800eb60:	81822419 	orrhi	r2, r2, r9, lsl r4
 800eb64:	87ca2000 	strbhi	r2, [sl, r0]
 800eb68:	859d0030 	ldrhi	r0, [sp, #48]	@ 0x30
 800eb6c:	80804001 	addhi	r4, r0, r1
 800eb70:	81a001a4 	lsrhi	r0, r4, #3
 800eb74:	815601a4 	cmphi	r6, r4, lsr #3
 800eb78:	9a000193 	bls	0x800f1cc
 800eb7c:	e7da2000 	ldrb	r2, [sl, r0]
 800eb80:	e2044007 	and	r4, r4, #7
 800eb84:	e1822419 	orr	r2, r2, r9, lsl r4
 800eb88:	e7ca2000 	strb	r2, [sl, r0]
 800eb8c:	e59d002c 	ldr	r0, [sp, #44]	@ 0x2c
 800eb90:	e0804001 	add	r4, r0, r1
 800eb94:	e15601a4 	cmp	r6, r4, lsr #3
 800eb98:	e1a001a4 	lsr	r0, r4, #3
 800eb9c:	87da2000 	ldrbhi	r2, [sl, r0]
 800eba0:	82044007 	andhi	r4, r4, #7
 800eba4:	808c1001 	addhi	r1, ip, r1
 800eba8:	81822419 	orrhi	r2, r2, r9, lsl r4
 800ebac:	87ca2000 	strbhi	r2, [sl, r0]
 800ebb0:	81a001a1 	lsrhi	r0, r1, #3
 800ebb4:	815601a1 	cmphi	r6, r1, lsr #3
 800ebb8:	9a000183 	bls	0x800f1cc
 800ebbc:	e7da2000 	ldrb	r2, [sl, r0]
 800ebc0:	e2011007 	and	r1, r1, #7
 800ebc4:	e3530004 	cmp	r3, #4
 800ebc8:	e1821119 	orr	r1, r2, r9, lsl r1
 800ebcc:	e7ca1000 	strb	r1, [sl, r0]
 800ebd0:	0a000051 	beq	0x800ed1c
 800ebd4:	e59d2034 	ldr	r2, [sp, #52]	@ 0x34
 800ebd8:	e59d4040 	ldr	r4, [sp, #64]	@ 0x40
 800ebdc:	e2850004 	add	r0, r5, #4
 800ebe0:	e0010290 	mul	r1, r0, r2
 800ebe4:	e0813008 	add	r3, r1, r8
 800ebe8:	e1a001a3 	lsr	r0, r3, #3
 800ebec:	e15401a3 	cmp	r4, r3, lsr #3
 800ebf0:	9a000175 	bls	0x800f1cc
 800ebf4:	e7da2000 	ldrb	r2, [sl, r0]
 800ebf8:	e2033007 	and	r3, r3, #7
 800ebfc:	e1822319 	orr	r2, r2, r9, lsl r3
 800ec00:	e0873001 	add	r3, r7, r1
 800ec04:	e7ca2000 	strb	r2, [sl, r0]
 800ec08:	e1a001a3 	lsr	r0, r3, #3
 800ec0c:	e15401a3 	cmp	r4, r3, lsr #3
 800ec10:	87da2000 	ldrbhi	r2, [sl, r0]
 800ec14:	82033007 	andhi	r3, r3, #7
 800ec18:	81822319 	orrhi	r2, r2, r9, lsl r3
 800ec1c:	87ca2000 	strbhi	r2, [sl, r0]
 800ec20:	859d0030 	ldrhi	r0, [sp, #48]	@ 0x30
 800ec24:	80803001 	addhi	r3, r0, r1
 800ec28:	81a001a3 	lsrhi	r0, r3, #3
 800ec2c:	815401a3 	cmphi	r4, r3, lsr #3
 800ec30:	9a000165 	bls	0x800f1cc
 800ec34:	e7da2000 	ldrb	r2, [sl, r0]
 800ec38:	e2033007 	and	r3, r3, #7
 800ec3c:	e1822319 	orr	r2, r2, r9, lsl r3
 800ec40:	e7ca2000 	strb	r2, [sl, r0]
 800ec44:	e59d002c 	ldr	r0, [sp, #44]	@ 0x2c
 800ec48:	e0803001 	add	r3, r0, r1
 800ec4c:	e15401a3 	cmp	r4, r3, lsr #3
 800ec50:	e1a001a3 	lsr	r0, r3, #3
 800ec54:	87da2000 	ldrbhi	r2, [sl, r0]
 800ec58:	82033007 	andhi	r3, r3, #7
 800ec5c:	808c1001 	addhi	r1, ip, r1
 800ec60:	81822319 	orrhi	r2, r2, r9, lsl r3
 800ec64:	87ca2000 	strbhi	r2, [sl, r0]
 800ec68:	81a001a1 	lsrhi	r0, r1, #3
 800ec6c:	815401a1 	cmphi	r4, r1, lsr #3
 800ec70:	9a000155 	bls	0x800f1cc
 800ec74:	e7da2000 	ldrb	r2, [sl, r0]
 800ec78:	e2011007 	and	r1, r1, #7
 800ec7c:	e59d400c 	ldr	r4, [sp, #12]
 800ec80:	e59d6024 	ldr	r6, [sp, #36]	@ 0x24
 800ec84:	e59d3020 	ldr	r3, [sp, #32]
 800ec88:	e3a07000 	mov	r7, #0
 800ec8c:	e1821119 	orr	r1, r2, r9, lsl r1
 800ec90:	e59d201c 	ldr	r2, [sp, #28]
 800ec94:	e7ca1000 	strb	r1, [sl, r0]
 800ec98:	e24b1034 	sub	r1, fp, #52	@ 0x34
 800ec9c:	e24ee001 	sub	lr, lr, #1
 800eca0:	e094000e 	adds	r0, r4, lr
 800eca4:	1afffee7 	bne	0x800e848
 800eca8:	e59d3008 	ldr	r3, [sp, #8]
 800ecac:	e89d0041 	ldm	sp, {r0, r6}
 800ecb0:	e1560000 	cmp	r6, r0
 800ecb4:	1afffeda 	bne	0x800e824
 800ecb8:	e59d0010 	ldr	r0, [sp, #16]
 800ecbc:	e3500006 	cmp	r0, #6
 800ecc0:	9a00014d 	bls	0x800f1fc
 800ecc4:	e59d0018 	ldr	r0, [sp, #24]
 800ecc8:	e59d1028 	ldr	r1, [sp, #40]	@ 0x28
 800eccc:	e2800006 	add	r0, r0, #6
 800ecd0:	e20030ff 	and	r3, r0, #255	@ 0xff
 800ecd4:	e1530001 	cmp	r3, r1
 800ecd8:	2a00000f 	bcs	0x800ed1c
 800ecdc:	e7da11a3 	ldrb	r1, [sl, r3, lsr #3]
 800ece0:	e2002006 	and	r2, r0, #6
 800ece4:	e3a00001 	mov	r0, #1
 800ece8:	e383c001 	orr	ip, r3, #1
 800ecec:	e1811210 	orr	r1, r1, r0, lsl r2
 800ecf0:	e59d2034 	ldr	r2, [sp, #52]	@ 0x34
 800ecf4:	e7ca11a3 	strb	r1, [sl, r3, lsr #3]
 800ecf8:	e15c0002 	cmp	ip, r2
 800ecfc:	320c5007 	andcc	r5, ip, #7
 800ed00:	31a061a3 	lsrcc	r6, r3, #3
 800ed04:	31810510 	orrcc	r0, r1, r0, lsl r5
 800ed08:	32831002 	addcc	r1, r3, #2
 800ed0c:	37ca0006 	strbcc	r0, [sl, r6]
 800ed10:	359d0034 	ldrcc	r0, [sp, #52]	@ 0x34
 800ed14:	31510000 	cmpcc	r1, r0
 800ed18:	3a00000c 	bcc	0x800ed50
 800ed1c:	e59f0500 	ldr	r0, [pc, #1280]	@ 0x800f224
 800ed20:	e59f2500 	ldr	r2, [pc, #1280]	@ 0x800f228
 800ed24:	e3a0103a 	mov	r1, #58	@ 0x3a
 800ed28:	ebffdf32 	bl	0x80069f8
 800ed2c:	e59f34e8 	ldr	r3, [pc, #1256]	@ 0x800f21c
 800ed30:	e3a00000 	mov	r0, #0
 800ed34:	e24b1038 	sub	r1, fp, #56	@ 0x38
 800ed38:	e24b2034 	sub	r2, fp, #52	@ 0x34
 800ed3c:	e50b0034 	str	r0, [fp, #-52]	@ 0xffffffcc
 800ed40:	e24b003c 	sub	r0, fp, #60	@ 0x3c
 800ed44:	ebffdf59 	bl	0x8006ab0
 800ed48:	e59f24d0 	ldr	r2, [pc, #1232]	@ 0x800f220
 800ed4c:	ebffdf3e 	bl	0x8006a4c
 800ed50:	e7da01a1 	ldrb	r0, [sl, r1, lsr #3]
 800ed54:	e2015004 	and	r5, r1, #4
 800ed58:	e3a06001 	mov	r6, #1
 800ed5c:	e59d2040 	ldr	r2, [sp, #64]	@ 0x40
 800ed60:	e1800516 	orr	r0, r0, r6, lsl r5
 800ed64:	e7ca01a1 	strb	r0, [sl, r1, lsr #3]
 800ed68:	e59d0034 	ldr	r0, [sp, #52]	@ 0x34
 800ed6c:	e0835000 	add	r5, r3, r0
 800ed70:	e1a001a5 	lsr	r0, r5, #3
 800ed74:	e15201a5 	cmp	r2, r5, lsr #3
 800ed78:	9a000113 	bls	0x800f1cc
 800ed7c:	e7da4000 	ldrb	r4, [sl, r0]
 800ed80:	e2055007 	and	r5, r5, #7
 800ed84:	e59d2040 	ldr	r2, [sp, #64]	@ 0x40
 800ed88:	e1846516 	orr	r6, r4, r6, lsl r5
 800ed8c:	e7ca6000 	strb	r6, [sl, r0]
 800ed90:	e59d0034 	ldr	r0, [sp, #52]	@ 0x34
 800ed94:	e08c6000 	add	r6, ip, r0
 800ed98:	e15201a6 	cmp	r2, r6, lsr #3
 800ed9c:	e1a001a6 	lsr	r0, r6, #3
 800eda0:	87da5000 	ldrbhi	r5, [sl, r0]
 800eda4:	82064006 	andhi	r4, r6, #6
 800eda8:	83a06001 	movhi	r6, #1
 800edac:	859d2040 	ldrhi	r2, [sp, #64]	@ 0x40
 800edb0:	81855416 	orrhi	r5, r5, r6, lsl r4
 800edb4:	87ca5000 	strbhi	r5, [sl, r0]
 800edb8:	859d0034 	ldrhi	r0, [sp, #52]	@ 0x34
 800edbc:	80815000 	addhi	r5, r1, r0
 800edc0:	81a001a5 	lsrhi	r0, r5, #3
 800edc4:	815201a5 	cmphi	r2, r5, lsr #3
 800edc8:	9a0000ff 	bls	0x800f1cc
 800edcc:	e7da4000 	ldrb	r4, [sl, r0]
 800edd0:	e2055007 	and	r5, r5, #7
 800edd4:	e59d2040 	ldr	r2, [sp, #64]	@ 0x40
 800edd8:	e1846516 	orr	r6, r4, r6, lsl r5
 800eddc:	e7ca6000 	strb	r6, [sl, r0]
 800ede0:	e59d0034 	ldr	r0, [sp, #52]	@ 0x34
 800ede4:	e0835080 	add	r5, r3, r0, lsl #1
 800ede8:	e15201a5 	cmp	r2, r5, lsr #3
 800edec:	e1a001a5 	lsr	r0, r5, #3
 800edf0:	859d2034 	ldrhi	r2, [sp, #52]	@ 0x34
 800edf4:	87da4000 	ldrbhi	r4, [sl, r0]
 800edf8:	81a06082 	lslhi	r6, r2, #1
 800edfc:	82052006 	andhi	r2, r5, #6
 800ee00:	83a05001 	movhi	r5, #1
 800ee04:	81842215 	orrhi	r2, r4, r5, lsl r2
 800ee08:	808c4006 	addhi	r4, ip, r6
 800ee0c:	87ca2000 	strbhi	r2, [sl, r0]
 800ee10:	859d2040 	ldrhi	r2, [sp, #64]	@ 0x40
 800ee14:	81a001a4 	lsrhi	r0, r4, #3
 800ee18:	815201a4 	cmphi	r2, r4, lsr #3
 800ee1c:	9a0000ea 	bls	0x800f1cc
 800ee20:	e7da2000 	ldrb	r2, [sl, r0]
 800ee24:	e2044007 	and	r4, r4, #7
 800ee28:	e0816006 	add	r6, r1, r6
 800ee2c:	e1822415 	orr	r2, r2, r5, lsl r4
 800ee30:	e7ca2000 	strb	r2, [sl, r0]
 800ee34:	e59d2040 	ldr	r2, [sp, #64]	@ 0x40
 800ee38:	e1a001a6 	lsr	r0, r6, #3
 800ee3c:	e15201a6 	cmp	r2, r6, lsr #3
 800ee40:	87da2000 	ldrbhi	r2, [sl, r0]
 800ee44:	82065007 	andhi	r5, r6, #7
 800ee48:	83a06001 	movhi	r6, #1
 800ee4c:	81822516 	orrhi	r2, r2, r6, lsl r5
 800ee50:	87ca2000 	strbhi	r2, [sl, r0]
 800ee54:	859d0014 	ldrhi	r0, [sp, #20]
 800ee58:	859d2040 	ldrhi	r2, [sp, #64]	@ 0x40
 800ee5c:	80805003 	addhi	r5, r0, r3
 800ee60:	81a001a5 	lsrhi	r0, r5, #3
 800ee64:	815201a5 	cmphi	r2, r5, lsr #3
 800ee68:	9a0000d7 	bls	0x800f1cc
 800ee6c:	e7da2000 	ldrb	r2, [sl, r0]
 800ee70:	e2055007 	and	r5, r5, #7
 800ee74:	e1822516 	orr	r2, r2, r6, lsl r5
 800ee78:	e7ca2000 	strb	r2, [sl, r0]
 800ee7c:	e59d0014 	ldr	r0, [sp, #20]
 800ee80:	e59d2040 	ldr	r2, [sp, #64]	@ 0x40
 800ee84:	e08c6000 	add	r6, ip, r0
 800ee88:	e15201a6 	cmp	r2, r6, lsr #3
 800ee8c:	e1a001a6 	lsr	r0, r6, #3
 800ee90:	87da2000 	ldrbhi	r2, [sl, r0]
 800ee94:	82065007 	andhi	r5, r6, #7
 800ee98:	83a06001 	movhi	r6, #1
 800ee9c:	81822516 	orrhi	r2, r2, r6, lsl r5
 800eea0:	87ca2000 	strbhi	r2, [sl, r0]
 800eea4:	859d0014 	ldrhi	r0, [sp, #20]
 800eea8:	859d2040 	ldrhi	r2, [sp, #64]	@ 0x40
 800eeac:	80815000 	addhi	r5, r1, r0
 800eeb0:	81a001a5 	lsrhi	r0, r5, #3
 800eeb4:	815201a5 	cmphi	r2, r5, lsr #3
 800eeb8:	9a0000c3 	bls	0x800f1cc
 800eebc:	e7da2000 	ldrb	r2, [sl, r0]
 800eec0:	e2055007 	and	r5, r5, #7
 800eec4:	e1822516 	orr	r2, r2, r6, lsl r5
 800eec8:	e7ca2000 	strb	r2, [sl, r0]
 800eecc:	e59d0034 	ldr	r0, [sp, #52]	@ 0x34
 800eed0:	e59d2040 	ldr	r2, [sp, #64]	@ 0x40
 800eed4:	e0835100 	add	r5, r3, r0, lsl #2
 800eed8:	e15201a5 	cmp	r2, r5, lsr #3
 800eedc:	e1a001a5 	lsr	r0, r5, #3
 800eee0:	859d2034 	ldrhi	r2, [sp, #52]	@ 0x34
 800eee4:	82054006 	andhi	r4, r5, #6
 800eee8:	83a05001 	movhi	r5, #1
 800eeec:	81a06102 	lslhi	r6, r2, #2
 800eef0:	87da2000 	ldrbhi	r2, [sl, r0]
 800eef4:	81822415 	orrhi	r2, r2, r5, lsl r4
 800eef8:	808c4006 	addhi	r4, ip, r6
 800eefc:	87ca2000 	strbhi	r2, [sl, r0]
 800ef00:	859d2040 	ldrhi	r2, [sp, #64]	@ 0x40
 800ef04:	81a001a4 	lsrhi	r0, r4, #3
 800ef08:	815201a4 	cmphi	r2, r4, lsr #3
 800ef0c:	9a0000ae 	bls	0x800f1cc
 800ef10:	e7da2000 	ldrb	r2, [sl, r0]
 800ef14:	e2044007 	and	r4, r4, #7
 800ef18:	e0816006 	add	r6, r1, r6
 800ef1c:	e1822415 	orr	r2, r2, r5, lsl r4
 800ef20:	e7ca2000 	strb	r2, [sl, r0]
 800ef24:	e59d2040 	ldr	r2, [sp, #64]	@ 0x40
 800ef28:	e1a001a6 	lsr	r0, r6, #3
 800ef2c:	e15201a6 	cmp	r2, r6, lsr #3
 800ef30:	87da2000 	ldrbhi	r2, [sl, r0]
 800ef34:	82066007 	andhi	r6, r6, #7
 800ef38:	81822615 	orrhi	r2, r2, r5, lsl r6
 800ef3c:	87ca2000 	strbhi	r2, [sl, r0]
 800ef40:	859d0034 	ldrhi	r0, [sp, #52]	@ 0x34
 800ef44:	859d2040 	ldrhi	r2, [sp, #64]	@ 0x40
 800ef48:	80806100 	addhi	r6, r0, r0, lsl #2
 800ef4c:	80864003 	addhi	r4, r6, r3
 800ef50:	81a001a4 	lsrhi	r0, r4, #3
 800ef54:	815201a4 	cmphi	r2, r4, lsr #3
 800ef58:	9a00009b 	bls	0x800f1cc
 800ef5c:	e7da2000 	ldrb	r2, [sl, r0]
 800ef60:	e2044007 	and	r4, r4, #7
 800ef64:	e1822415 	orr	r2, r2, r5, lsl r4
 800ef68:	e08c5006 	add	r5, ip, r6
 800ef6c:	e7ca2000 	strb	r2, [sl, r0]
 800ef70:	e59d2040 	ldr	r2, [sp, #64]	@ 0x40
 800ef74:	e1a001a5 	lsr	r0, r5, #3
 800ef78:	e15201a5 	cmp	r2, r5, lsr #3
 800ef7c:	87da2000 	ldrbhi	r2, [sl, r0]
 800ef80:	82054007 	andhi	r4, r5, #7
 800ef84:	83a05001 	movhi	r5, #1
 800ef88:	80816006 	addhi	r6, r1, r6
 800ef8c:	81822415 	orrhi	r2, r2, r5, lsl r4
 800ef90:	87ca2000 	strbhi	r2, [sl, r0]
 800ef94:	859d2040 	ldrhi	r2, [sp, #64]	@ 0x40
 800ef98:	81a001a6 	lsrhi	r0, r6, #3
 800ef9c:	815201a6 	cmphi	r2, r6, lsr #3
 800efa0:	9a000089 	bls	0x800f1cc
 800efa4:	e7da2000 	ldrb	r2, [sl, r0]
 800efa8:	e2066007 	and	r6, r6, #7
 800efac:	e1822615 	orr	r2, r2, r5, lsl r6
 800efb0:	e7ca2000 	strb	r2, [sl, r0]
 800efb4:	e59d0034 	ldr	r0, [sp, #52]	@ 0x34
 800efb8:	e59d2040 	ldr	r2, [sp, #64]	@ 0x40
 800efbc:	e0060093 	mul	r6, r3, r0
 800efc0:	e15201a6 	cmp	r2, r6, lsr #3
 800efc4:	e1a001a6 	lsr	r0, r6, #3
 800efc8:	87da2000 	ldrbhi	r2, [sl, r0]
 800efcc:	82063006 	andhi	r3, r6, #6
 800efd0:	83a05003 	movhi	r5, #3
 800efd4:	81822315 	orrhi	r2, r2, r5, lsl r3
 800efd8:	82863002 	addhi	r3, r6, #2
 800efdc:	87ca2000 	strbhi	r2, [sl, r0]
 800efe0:	859d2040 	ldrhi	r2, [sp, #64]	@ 0x40
 800efe4:	81a001a3 	lsrhi	r0, r3, #3
 800efe8:	815201a3 	cmphi	r2, r3, lsr #3
 800efec:	9a000076 	bls	0x800f1cc
 800eff0:	e7da2000 	ldrb	r2, [sl, r0]
 800eff4:	e2035007 	and	r5, r3, #7
 800eff8:	e3a03001 	mov	r3, #1
 800effc:	e1822513 	orr	r2, r2, r3, lsl r5
 800f000:	e2865003 	add	r5, r6, #3
 800f004:	e7ca2000 	strb	r2, [sl, r0]
 800f008:	e59d2040 	ldr	r2, [sp, #64]	@ 0x40
 800f00c:	e1a001a5 	lsr	r0, r5, #3
 800f010:	e15201a5 	cmp	r2, r5, lsr #3
 800f014:	87da2000 	ldrbhi	r2, [sl, r0]
 800f018:	82055007 	andhi	r5, r5, #7
 800f01c:	81822513 	orrhi	r2, r2, r3, lsl r5
 800f020:	82863004 	addhi	r3, r6, #4
 800f024:	87ca2000 	strbhi	r2, [sl, r0]
 800f028:	859d2040 	ldrhi	r2, [sp, #64]	@ 0x40
 800f02c:	81a001a3 	lsrhi	r0, r3, #3
 800f030:	815201a3 	cmphi	r2, r3, lsr #3
 800f034:	9a000064 	bls	0x800f1cc
 800f038:	e7da2000 	ldrb	r2, [sl, r0]
 800f03c:	e2035007 	and	r5, r3, #7
 800f040:	e3a03001 	mov	r3, #1
 800f044:	e2866005 	add	r6, r6, #5
 800f048:	e1822513 	orr	r2, r2, r3, lsl r5
 800f04c:	e7ca2000 	strb	r2, [sl, r0]
 800f050:	e59d2040 	ldr	r2, [sp, #64]	@ 0x40
 800f054:	e1a001a6 	lsr	r0, r6, #3
 800f058:	e15201a6 	cmp	r2, r6, lsr #3
 800f05c:	87da2000 	ldrbhi	r2, [sl, r0]
 800f060:	82066007 	andhi	r6, r6, #7
 800f064:	81822613 	orrhi	r2, r2, r3, lsl r6
 800f068:	87ca2000 	strbhi	r2, [sl, r0]
 800f06c:	859d0034 	ldrhi	r0, [sp, #52]	@ 0x34
 800f070:	859d2040 	ldrhi	r2, [sp, #64]	@ 0x40
 800f074:	8003009c 	mulhi	r3, ip, r0
 800f078:	81a001a3 	lsrhi	r0, r3, #3
 800f07c:	815201a3 	cmphi	r2, r3, lsr #3
 800f080:	9a000051 	bls	0x800f1cc
 800f084:	e7da6000 	ldrb	r6, [sl, r0]
 800f088:	e59d7040 	ldr	r7, [sp, #64]	@ 0x40
 800f08c:	e2035007 	and	r5, r3, #7
 800f090:	e3a02001 	mov	r2, #1
 800f094:	e1866512 	orr	r6, r6, r2, lsl r5
 800f098:	e7ca6000 	strb	r6, [sl, r0]
 800f09c:	e2836001 	add	r6, r3, #1
 800f0a0:	e15701a6 	cmp	r7, r6, lsr #3
 800f0a4:	e1a001a6 	lsr	r0, r6, #3
 800f0a8:	87da5000 	ldrbhi	r5, [sl, r0]
 800f0ac:	859d7040 	ldrhi	r7, [sp, #64]	@ 0x40
 800f0b0:	82066007 	andhi	r6, r6, #7
 800f0b4:	81852612 	orrhi	r2, r5, r2, lsl r6
 800f0b8:	87ca2000 	strbhi	r2, [sl, r0]
 800f0bc:	82832002 	addhi	r2, r3, #2
 800f0c0:	81a001a2 	lsrhi	r0, r2, #3
 800f0c4:	815701a2 	cmphi	r7, r2, lsr #3
 800f0c8:	9a00003f 	bls	0x800f1cc
 800f0cc:	e7da6000 	ldrb	r6, [sl, r0]
 800f0d0:	e59d7040 	ldr	r7, [sp, #64]	@ 0x40
 800f0d4:	e2025007 	and	r5, r2, #7
 800f0d8:	e3a02001 	mov	r2, #1
 800f0dc:	e1866512 	orr	r6, r6, r2, lsl r5
 800f0e0:	e7ca6000 	strb	r6, [sl, r0]
 800f0e4:	e2836003 	add	r6, r3, #3
 800f0e8:	e15701a6 	cmp	r7, r6, lsr #3
 800f0ec:	e1a001a6 	lsr	r0, r6, #3
 800f0f0:	87da5000 	ldrbhi	r5, [sl, r0]
 800f0f4:	859d7040 	ldrhi	r7, [sp, #64]	@ 0x40
 800f0f8:	82066007 	andhi	r6, r6, #7
 800f0fc:	81852612 	orrhi	r2, r5, r2, lsl r6
 800f100:	87ca2000 	strbhi	r2, [sl, r0]
 800f104:	82832004 	addhi	r2, r3, #4
 800f108:	81a001a2 	lsrhi	r0, r2, #3
 800f10c:	815701a2 	cmphi	r7, r2, lsr #3
 800f110:	9a00002d 	bls	0x800f1cc
 800f114:	e7da6000 	ldrb	r6, [sl, r0]
 800f118:	e59d7040 	ldr	r7, [sp, #64]	@ 0x40
 800f11c:	e2025007 	and	r5, r2, #7
 800f120:	e3a02001 	mov	r2, #1
 800f124:	e2833005 	add	r3, r3, #5
 800f128:	e1866512 	orr	r6, r6, r2, lsl r5
 800f12c:	e15701a3 	cmp	r7, r3, lsr #3
 800f130:	e7ca6000 	strb	r6, [sl, r0]
 800f134:	e1a001a3 	lsr	r0, r3, #3
 800f138:	82033007 	andhi	r3, r3, #7
 800f13c:	87da6000 	ldrbhi	r6, [sl, r0]
 800f140:	81862312 	orrhi	r2, r6, r2, lsl r3
 800f144:	87ca2000 	strbhi	r2, [sl, r0]
 800f148:	859d0034 	ldrhi	r0, [sp, #52]	@ 0x34
 800f14c:	80020091 	mulhi	r2, r1, r0
 800f150:	859d1040 	ldrhi	r1, [sp, #64]	@ 0x40
 800f154:	81a001a2 	lsrhi	r0, r2, #3
 800f158:	815101a2 	cmphi	r1, r2, lsr #3
 800f15c:	9a00001a 	bls	0x800f1cc
 800f160:	e7da3000 	ldrb	r3, [sl, r0]
 800f164:	e2026007 	and	r6, r2, #7
 800f168:	e3a01001 	mov	r1, #1
 800f16c:	e3a05002 	mov	r5, #2
 800f170:	e59d7040 	ldr	r7, [sp, #64]	@ 0x40
 800f174:	e1833611 	orr	r3, r3, r1, lsl r6
 800f178:	e2026006 	and	r6, r2, #6
 800f17c:	e1833615 	orr	r3, r3, r5, lsl r6
 800f180:	e2026005 	and	r6, r2, #5
 800f184:	e3a05004 	mov	r5, #4
 800f188:	e1833615 	orr	r3, r3, r5, lsl r6
 800f18c:	e2026004 	and	r6, r2, #4
 800f190:	e3a05008 	mov	r5, #8
 800f194:	e1833615 	orr	r3, r3, r5, lsl r6
 800f198:	e7ca3000 	strb	r3, [sl, r0]
 800f19c:	e2823004 	add	r3, r2, #4
 800f1a0:	e1a001a3 	lsr	r0, r3, #3
 800f1a4:	e15701a3 	cmp	r7, r3, lsr #3
 800f1a8:	87da6000 	ldrbhi	r6, [sl, r0]
 800f1ac:	82033007 	andhi	r3, r3, #7
 800f1b0:	81861311 	orrhi	r1, r6, r1, lsl r3
 800f1b4:	87ca1000 	strbhi	r1, [sl, r0]
 800f1b8:	82821005 	addhi	r1, r2, #5
 800f1bc:	859d2040 	ldrhi	r2, [sp, #64]	@ 0x40
 800f1c0:	81a001a1 	lsrhi	r0, r1, #3
 800f1c4:	815201a1 	cmphi	r2, r1, lsr #3
 800f1c8:	8a000006 	bhi	0x800f1e8
 800f1cc:	e59f204c 	ldr	r2, [pc, #76]	@ 0x800f220
 800f1d0:	e59d1040 	ldr	r1, [sp, #64]	@ 0x40
 800f1d4:	ebffde1c 	bl	0x8006a4c
 800f1d8:	e59f004c 	ldr	r0, [pc, #76]	@ 0x800f22c
 800f1dc:	e59f204c 	ldr	r2, [pc, #76]	@ 0x800f230
 800f1e0:	e3a0101b 	mov	r1, #27
 800f1e4:	ebffde03 	bl	0x80069f8
 800f1e8:	e7da2000 	ldrb	r2, [sl, r0]
 800f1ec:	e2011007 	and	r1, r1, #7
 800f1f0:	e3a03001 	mov	r3, #1
 800f1f4:	e1821113 	orr	r1, r2, r3, lsl r1
 800f1f8:	e7ca1000 	strb	r1, [sl, r0]
 800f1fc:	e59d003c 	ldr	r0, [sp, #60]	@ 0x3c
 800f200:	e59d1038 	ldr	r1, [sp, #56]	@ 0x38
 800f204:	e8800402 	stm	r0, {r1, sl}
 800f208:	e59d1040 	ldr	r1, [sp, #64]	@ 0x40
 800f20c:	e5801008 	str	r1, [r0, #8]
 800f210:	e24bd01c 	sub	sp, fp, #28
 800f214:	e8bd4ff0 	pop	{r4, r5, r6, r7, r8, r9, sl, fp, lr}
 800f218:	e12fff1e 	bx	lr
 800f21c:	082fe23c 	stmdaeq	pc!, {r2, r3, r4, r5, r9, sp, lr, pc}	@ <UNPREDICTABLE>
 800f220:	082fe1ac 	stmdaeq	pc!, {r2, r3, r5, r7, r8, sp, lr, pc}	@ <UNPREDICTABLE>
 800f224:	082fe130 	stmdaeq	pc!, {r4, r5, r8, sp, lr, pc}	@ <UNPREDICTABLE>
 800f228:	082fe18c 	stmdaeq	pc!, {r2, r3, r7, r8, sp, lr, pc}	@ <UNPREDICTABLE>
 800f22c:	082fe610 	stmdaeq	pc!, {r4, r9, sl, sp, lr, pc}	@ <UNPREDICTABLE>
 800f230:	082fe62c 	stmdaeq	pc!, {r2, r3, r5, r9, sl, sp, lr, pc}	@ <UNPREDICTABLE>
 800f234:	e92d4ff0 	push	{r4, r5, r6, r7, r8, r9, sl, fp, lr}
 800f238:	e28db01c 	add	fp, sp, #28
 800f23c:	e24dd034 	sub	sp, sp, #52	@ 0x34
 800f240:	e1a03001 	mov	r3, r1
 800f244:	e5901000 	ldr	r1, [r0]
 800f248:	e58d101c 	str	r1, [sp, #28]
 800f24c:	e5d11000 	ldrb	r1, [r1]
 800f250:	e3510000 	cmp	r1, #0
 800f254:	e58d1004 	str	r1, [sp, #4]
 800f258:	0a000091 	beq	0x800f4a4
 800f25c:	e5901004 	ldr	r1, [r0, #4]
 800f260:	e5900008 	ldr	r0, [r0, #8]
 800f264:	e59fa27c 	ldr	sl, [pc, #636]	@ 0x800f4e8
 800f268:	e3a07000 	mov	r7, #0
 800f26c:	e3a05000 	mov	r5, #0
 800f270:	e58d0010 	str	r0, [sp, #16]
 800f274:	e5930000 	ldr	r0, [r3]
 800f278:	e58d100c 	str	r1, [sp, #12]
 800f27c:	e58d0028 	str	r0, [sp, #40]	@ 0x28
 800f280:	e5930004 	ldr	r0, [r3, #4]
 800f284:	e58d0020 	str	r0, [sp, #32]
 800f288:	e5930008 	ldr	r0, [r3, #8]
 800f28c:	e58d0024 	str	r0, [sp, #36]	@ 0x24
 800f290:	e20200ff 	and	r0, r2, #255	@ 0xff
 800f294:	e58d0014 	str	r0, [sp, #20]
 800f298:	e3a00001 	mov	r0, #1
 800f29c:	e50b0020 	str	r0, [fp, #-32]	@ 0xffffffe0
 800f2a0:	e59d001c 	ldr	r0, [sp, #28]
 800f2a4:	e5d00000 	ldrb	r0, [r0]
 800f2a8:	e3500000 	cmp	r0, #0
 800f2ac:	e50b0024 	str	r0, [fp, #-36]	@ 0xffffffdc
 800f2b0:	0a000073 	beq	0x800f484
 800f2b4:	e2250001 	eor	r0, r5, #1
 800f2b8:	e3a0c000 	mov	ip, #0
 800f2bc:	e3a09000 	mov	r9, #0
 800f2c0:	e3a08000 	mov	r8, #0
 800f2c4:	e3a02000 	mov	r2, #0
 800f2c8:	e58d0018 	str	r0, [sp, #24]
 800f2cc:	e20500ff 	and	r0, r5, #255	@ 0xff
 800f2d0:	e1a000a0 	lsr	r0, r0, #1
 800f2d4:	e58d0008 	str	r0, [sp, #8]
 800f2d8:	e0840a98 	umull	r0, r4, r8, sl
 800f2dc:	e59d0028 	ldr	r0, [sp, #40]	@ 0x28
 800f2e0:	e5d00000 	ldrb	r0, [r0]
 800f2e4:	e1520000 	cmp	r2, r0
 800f2e8:	31550000 	cmpcc	r5, r0
 800f2ec:	2a00006f 	bcs	0x800f4b0
 800f2f0:	e0232095 	mla	r3, r5, r0, r2
 800f2f4:	e1a01005 	mov	r1, r5
 800f2f8:	e59d5024 	ldr	r5, [sp, #36]	@ 0x24
 800f2fc:	e1a001a3 	lsr	r0, r3, #3
 800f300:	e15501a3 	cmp	r5, r3, lsr #3
 800f304:	9a00006d 	bls	0x800f4c0
 800f308:	e59d6020 	ldr	r6, [sp, #32]
 800f30c:	e2033007 	and	r3, r3, #7
 800f310:	e7d60000 	ldrb	r0, [r6, r0]
 800f314:	e3a06001 	mov	r6, #1
 800f318:	e1160330 	tst	r6, r0, lsr r3
 800f31c:	1a00004f 	bne	0x800f460
 800f320:	e59d5014 	ldr	r5, [sp, #20]
 800f324:	e3550007 	cmp	r5, #7
 800f328:	8a00006a 	bhi	0x800f4d8
 800f32c:	e28f300c 	add	r3, pc, #12
 800f330:	e59de018 	ldr	lr, [sp, #24]
 800f334:	e1a000a4 	lsr	r0, r4, #1
 800f338:	e0800080 	add	r0, r0, r0, lsl #1
 800f33c:	e793f105 	ldr	pc, [r3, r5, lsl #2]
 800f340:	0800f360 	stmdaeq	r0, {r5, r6, r8, r9, ip, sp, lr, pc}
 800f344:	0800f400 	stmdaeq	r0, {sl, ip, sp, lr, pc}
 800f348:	0800f380 	stmdaeq	r0, {r7, r8, r9, ip, sp, lr, pc}
 800f34c:	0800f388 	stmdaeq	r0, {r3, r7, r8, r9, ip, sp, lr, pc}
 800f350:	0800f368 	stmdaeq	r0, {r3, r5, r6, r8, r9, ip, sp, lr, pc}
 800f354:	0800f3bc 	stmdaeq	r0, {r2, r3, r4, r5, r7, r8, r9, ip, sp, lr, pc}
 800f358:	0800f3f8 	stmdaeq	r0, {r3, r4, r5, r6, r7, r8, r9, ip, sp, lr, pc}
 800f35c:	0800f3b0 	stmdaeq	r0, {r4, r5, r7, r8, r9, ip, sp, lr, pc}
 800f360:	e0820001 	add	r0, r2, r1
 800f364:	ea000024 	b	0x800f3fc
 800f368:	e20200ff 	and	r0, r2, #255	@ 0xff
 800f36c:	e3a040ab 	mov	r4, #171	@ 0xab
 800f370:	e0030490 	mul	r3, r0, r4
 800f374:	e59d0008 	ldr	r0, [sp, #8]
 800f378:	e08004a3 	add	r0, r0, r3, lsr #9
 800f37c:	ea00001e 	b	0x800f3fc
 800f380:	e20200ff 	and	r0, r2, #255	@ 0xff
 800f384:	ea000003 	b	0x800f398
 800f388:	e3a030ff 	mov	r3, #255	@ 0xff
 800f38c:	e0810002 	add	r0, r1, r2
 800f390:	e3833cff 	orr	r3, r3, #65280	@ 0xff00
 800f394:	e0000003 	and	r0, r0, r3
 800f398:	e0030a90 	mul	r3, r0, sl
 800f39c:	e59f0154 	ldr	r0, [pc, #340]	@ 0x800f4f8
 800f3a0:	e3a0e000 	mov	lr, #0
 800f3a4:	e1530000 	cmp	r3, r0
 800f3a8:	33a0e001 	movcc	lr, #1
 800f3ac:	ea000013 	b	0x800f400
 800f3b0:	e04c0000 	sub	r0, ip, r0
 800f3b4:	e0810000 	add	r0, r1, r0
 800f3b8:	ea00000f 	b	0x800f3fc
 800f3bc:	e3a040ff 	mov	r4, #255	@ 0xff
 800f3c0:	e3a050ab 	mov	r5, #171	@ 0xab
 800f3c4:	e3844cff 	orr	r4, r4, #65280	@ 0xff00
 800f3c8:	e3855caa 	orr	r5, r5, #43520	@ 0xaa00
 800f3cc:	e0080004 	and	r0, r8, r4
 800f3d0:	e0030590 	mul	r3, r0, r5
 800f3d4:	e1a008a3 	lsr	r0, r3, #17
 800f3d8:	e2083001 	and	r3, r8, #1
 800f3dc:	e0800080 	add	r0, r0, r0, lsl #1
 800f3e0:	e0480000 	sub	r0, r8, r0
 800f3e4:	e0000004 	and	r0, r0, r4
 800f3e8:	e1830000 	orr	r0, r3, r0
 800f3ec:	e2703000 	rsbs	r3, r0, #0
 800f3f0:	e0a0e003 	adc	lr, r0, r3
 800f3f4:	ea000001 	b	0x800f400
 800f3f8:	e0490000 	sub	r0, r9, r0
 800f3fc:	e220e001 	eor	lr, r0, #1
 800f400:	e59d001c 	ldr	r0, [sp, #28]
 800f404:	e5d00000 	ldrb	r0, [r0]
 800f408:	e1520000 	cmp	r2, r0
 800f40c:	31a05001 	movcc	r5, r1
 800f410:	31510000 	cmpcc	r1, r0
 800f414:	2a000025 	bcs	0x800f4b0
 800f418:	e0232095 	mla	r3, r5, r0, r2
 800f41c:	e59d5010 	ldr	r5, [sp, #16]
 800f420:	e1a001a3 	lsr	r0, r3, #3
 800f424:	e15501a3 	cmp	r5, r3, lsr #3
 800f428:	9a000027 	bls	0x800f4cc
 800f42c:	e59d600c 	ldr	r6, [sp, #12]
 800f430:	e2033007 	and	r3, r3, #7
 800f434:	e1a04007 	mov	r4, r7
 800f438:	e7d65000 	ldrb	r5, [r6, r0]
 800f43c:	e1a07006 	mov	r7, r6
 800f440:	e3a06001 	mov	r6, #1
 800f444:	e02ee335 	eor	lr, lr, r5, lsr r3
 800f448:	e1c56316 	bic	r6, r5, r6, lsl r3
 800f44c:	e31e0001 	tst	lr, #1
 800f450:	e3a0e001 	mov	lr, #1
 800f454:	1185631e 	orrne	r6, r5, lr, lsl r3
 800f458:	e7c76000 	strb	r6, [r7, r0]
 800f45c:	e1a07004 	mov	r7, r4
 800f460:	e51b0020 	ldr	r0, [fp, #-32]	@ 0xffffffe0
 800f464:	e2822001 	add	r2, r2, #1
 800f468:	e0899007 	add	r9, r9, r7
 800f46c:	e1a05001 	mov	r5, r1
 800f470:	e0888001 	add	r8, r8, r1
 800f474:	e08cc000 	add	ip, ip, r0
 800f478:	e51b0024 	ldr	r0, [fp, #-36]	@ 0xffffffdc
 800f47c:	e1500002 	cmp	r0, r2
 800f480:	1affff94 	bne	0x800f2d8
 800f484:	e51b0020 	ldr	r0, [fp, #-32]	@ 0xffffffe0
 800f488:	e2855001 	add	r5, r5, #1
 800f48c:	e2877002 	add	r7, r7, #2
 800f490:	e2800001 	add	r0, r0, #1
 800f494:	e50b0020 	str	r0, [fp, #-32]	@ 0xffffffe0
 800f498:	e59d0004 	ldr	r0, [sp, #4]
 800f49c:	e1550000 	cmp	r5, r0
 800f4a0:	1affff7e 	bne	0x800f2a0
 800f4a4:	e24bd01c 	sub	sp, fp, #28
 800f4a8:	e8bd4ff0 	pop	{r4, r5, r6, r7, r8, r9, sl, fp, lr}
 800f4ac:	e12fff1e 	bx	lr
 800f4b0:	e59f0034 	ldr	r0, [pc, #52]	@ 0x800f4ec
 800f4b4:	e59f2034 	ldr	r2, [pc, #52]	@ 0x800f4f0
 800f4b8:	e3a0103a 	mov	r1, #58	@ 0x3a
 800f4bc:	ebffdd4d 	bl	0x80069f8
 800f4c0:	e59f202c 	ldr	r2, [pc, #44]	@ 0x800f4f4
 800f4c4:	e59d1024 	ldr	r1, [sp, #36]	@ 0x24
 800f4c8:	ebffdd5f 	bl	0x8006a4c
 800f4cc:	e59f2020 	ldr	r2, [pc, #32]	@ 0x800f4f4
 800f4d0:	e59d1010 	ldr	r1, [sp, #16]
 800f4d4:	ebffdd5c 	bl	0x8006a4c
 800f4d8:	e59f001c 	ldr	r0, [pc, #28]	@ 0x800f4fc
 800f4dc:	e59f201c 	ldr	r2, [pc, #28]	@ 0x800f500
 800f4e0:	e3a01028 	mov	r1, #40	@ 0x28
 800f4e4:	ebffdd43 	bl	0x80069f8
 800f4e8:	aaaaaaab 	bge	0x6ab9f9c
 800f4ec:	082fe130 	stmdaeq	pc!, {r4, r5, r8, sp, lr, pc}	@ <UNPREDICTABLE>
 800f4f0:	082fe16c 	stmdaeq	pc!, {r2, r3, r5, r6, r8, sp, lr, pc}	@ <UNPREDICTABLE>
 800f4f4:	082fe17c 	stmdaeq	pc!, {r2, r3, r4, r5, r6, r8, sp, lr, pc}	@ <UNPREDICTABLE>
 800f4f8:	55555556 	ldrbpl	r5, [r5, #-1366]	@ 0xfffffaaa
 800f4fc:	082fe274 	stmdaeq	pc!, {r2, r4, r5, r6, r9, sp, lr, pc}	@ <UNPREDICTABLE>
 800f500:	082fe29c 	stmdaeq	pc!, {r2, r3, r4, r7, r9, sp, lr, pc}	@ <UNPREDICTABLE>
 800f504:	e92d4ff0 	push	{r4, r5, r6, r7, r8, r9, sl, fp, lr}
 800f508:	e28db01c 	add	fp, sp, #28
 800f50c:	e24dd03c 	sub	sp, sp, #60	@ 0x3c
 800f510:	e5908000 	ldr	r8, [r0]
 800f514:	e5d87000 	ldrb	r7, [r8]
 800f518:	e3570008 	cmp	r7, #8
 800f51c:	9a00025a 	bls	0x800fe8c
 800f520:	e3a070ff 	mov	r7, #255	@ 0xff
 800f524:	e0071181 	and	r1, r7, r1, lsl #3
 800f528:	e59f7a68 	ldr	r7, [pc, #2664]	@ 0x800ff98
 800f52c:	e1821137 	orr	r1, r2, r7, lsr r1
 800f530:	e3a02037 	mov	r2, #55	@ 0x37
 800f534:	e20160ff 	and	r6, r1, #255	@ 0xff
 800f538:	e3822c05 	orr	r2, r2, #1280	@ 0x500
 800f53c:	e1a013a6 	lsr	r1, r6, #7
 800f540:	e0070291 	mul	r7, r1, r2
 800f544:	e0271186 	eor	r1, r7, r6, lsl #3
 800f548:	e1a074a1 	lsr	r7, r1, #9
 800f54c:	e0050297 	mul	r5, r7, r2
 800f550:	e0251081 	eor	r1, r5, r1, lsl #1
 800f554:	e1a074a1 	lsr	r7, r1, #9
 800f558:	e0050297 	mul	r5, r7, r2
 800f55c:	e0251081 	eor	r1, r5, r1, lsl #1
 800f560:	e1a074a1 	lsr	r7, r1, #9
 800f564:	e0050297 	mul	r5, r7, r2
 800f568:	e0251081 	eor	r1, r5, r1, lsl #1
 800f56c:	e1a074a1 	lsr	r7, r1, #9
 800f570:	e0050297 	mul	r5, r7, r2
 800f574:	e0251081 	eor	r1, r5, r1, lsl #1
 800f578:	e1a074a1 	lsr	r7, r1, #9
 800f57c:	e0050297 	mul	r5, r7, r2
 800f580:	e0251081 	eor	r1, r5, r1, lsl #1
 800f584:	e1a074a1 	lsr	r7, r1, #9
 800f588:	e0050297 	mul	r5, r7, r2
 800f58c:	e0257081 	eor	r7, r5, r1, lsl #1
 800f590:	e1a014a7 	lsr	r1, r7, #9
 800f594:	e0040291 	mul	r4, r1, r2
 800f598:	e5902004 	ldr	r2, [r0, #4]
 800f59c:	e5901008 	ldr	r1, [r0, #8]
 800f5a0:	e214e001 	ands	lr, r4, #1
 800f5a4:	1a000004 	bne	0x800f5bc
 800f5a8:	e3510001 	cmp	r1, #1
 800f5ac:	9a000273 	bls	0x800ff80
 800f5b0:	e5d20001 	ldrb	r0, [r2, #1]
 800f5b4:	e20000fe 	and	r0, r0, #254	@ 0xfe
 800f5b8:	ea000003 	b	0x800f5cc
 800f5bc:	e3510001 	cmp	r1, #1
 800f5c0:	9a000271 	bls	0x800ff8c
 800f5c4:	e5d20001 	ldrb	r0, [r2, #1]
 800f5c8:	e3800001 	orr	r0, r0, #1
 800f5cc:	e5c20001 	strb	r0, [r2, #1]
 800f5d0:	e5d80000 	ldrb	r0, [r8]
 800f5d4:	e3500009 	cmp	r0, #9
 800f5d8:	3a00022b 	bcc	0x800fe8c
 800f5dc:	e0247087 	eor	r7, r4, r7, lsl #1
 800f5e0:	e187c506 	orr	ip, r7, r6, lsl #10
 800f5e4:	e22c4012 	eor	r4, ip, #18
 800f5e8:	e2249b15 	eor	r9, r4, #21504	@ 0x5400
 800f5ec:	e2004007 	and	r4, r0, #7
 800f5f0:	e2800008 	add	r0, r0, #8
 800f5f4:	e2193002 	ands	r3, r9, #2
 800f5f8:	e1a001a0 	lsr	r0, r0, #3
 800f5fc:	1a000005 	bne	0x800f618
 800f600:	e1500001 	cmp	r0, r1
 800f604:	2a00025e 	bcs	0x800ff84
 800f608:	e7d25000 	ldrb	r5, [r2, r0]
 800f60c:	e3a06001 	mov	r6, #1
 800f610:	e1c54416 	bic	r4, r5, r6, lsl r4
 800f614:	ea000004 	b	0x800f62c
 800f618:	e1500001 	cmp	r0, r1
 800f61c:	2a00025b 	bcs	0x800ff90
 800f620:	e7d25000 	ldrb	r5, [r2, r0]
 800f624:	e3a06001 	mov	r6, #1
 800f628:	e1854416 	orr	r4, r5, r6, lsl r4
 800f62c:	e7c24000 	strb	r4, [r2, r0]
 800f630:	e5d80000 	ldrb	r0, [r8]
 800f634:	e3500009 	cmp	r0, #9
 800f638:	3a000213 	bcc	0x800fe8c
 800f63c:	e3a04006 	mov	r4, #6
 800f640:	e3a05008 	mov	r5, #8
 800f644:	e217a004 	ands	sl, r7, #4
 800f648:	e0044080 	and	r4, r4, r0, lsl #1
 800f64c:	e0850080 	add	r0, r5, r0, lsl #1
 800f650:	e1a001a0 	lsr	r0, r0, #3
 800f654:	1a000004 	bne	0x800f66c
 800f658:	e1500001 	cmp	r0, r1
 800f65c:	2a000248 	bcs	0x800ff84
 800f660:	e7d25000 	ldrb	r5, [r2, r0]
 800f664:	e1c54416 	bic	r4, r5, r6, lsl r4
 800f668:	ea000003 	b	0x800f67c
 800f66c:	e1500001 	cmp	r0, r1
 800f670:	2a000246 	bcs	0x800ff90
 800f674:	e7d25000 	ldrb	r5, [r2, r0]
 800f678:	e1854416 	orr	r4, r5, r6, lsl r4
 800f67c:	e7c24000 	strb	r4, [r2, r0]
 800f680:	e5d80000 	ldrb	r0, [r8]
 800f684:	e3500009 	cmp	r0, #9
 800f688:	3a0001ff 	bcc	0x800fe8c
 800f68c:	e2174008 	ands	r4, r7, #8
 800f690:	e0800080 	add	r0, r0, r0, lsl #1
 800f694:	e58d402c 	str	r4, [sp, #44]	@ 0x2c
 800f698:	e2004007 	and	r4, r0, #7
 800f69c:	e2800008 	add	r0, r0, #8
 800f6a0:	e1a001a0 	lsr	r0, r0, #3
 800f6a4:	1a000004 	bne	0x800f6bc
 800f6a8:	e1500001 	cmp	r0, r1
 800f6ac:	2a000234 	bcs	0x800ff84
 800f6b0:	e7d25000 	ldrb	r5, [r2, r0]
 800f6b4:	e1c54416 	bic	r4, r5, r6, lsl r4
 800f6b8:	ea000003 	b	0x800f6cc
 800f6bc:	e1500001 	cmp	r0, r1
 800f6c0:	2a000232 	bcs	0x800ff90
 800f6c4:	e7d25000 	ldrb	r5, [r2, r0]
 800f6c8:	e1854416 	orr	r4, r5, r6, lsl r4
 800f6cc:	e7c24000 	strb	r4, [r2, r0]
 800f6d0:	e5d80000 	ldrb	r0, [r8]
 800f6d4:	e3500009 	cmp	r0, #9
 800f6d8:	3a0001eb 	bcc	0x800fe8c
 800f6dc:	e3a04004 	mov	r4, #4
 800f6e0:	e3a05008 	mov	r5, #8
 800f6e4:	e0044100 	and	r4, r4, r0, lsl #2
 800f6e8:	e0850100 	add	r0, r5, r0, lsl #2
 800f6ec:	e2195010 	ands	r5, r9, #16
 800f6f0:	e1a001a0 	lsr	r0, r0, #3
 800f6f4:	e58d5028 	str	r5, [sp, #40]	@ 0x28
 800f6f8:	1a000004 	bne	0x800f710
 800f6fc:	e1500001 	cmp	r0, r1
 800f700:	2a00021f 	bcs	0x800ff84
 800f704:	e7d25000 	ldrb	r5, [r2, r0]
 800f708:	e1c54416 	bic	r4, r5, r6, lsl r4
 800f70c:	ea000003 	b	0x800f720
 800f710:	e1500001 	cmp	r0, r1
 800f714:	2a00021d 	bcs	0x800ff90
 800f718:	e7d25000 	ldrb	r5, [r2, r0]
 800f71c:	e1854416 	orr	r4, r5, r6, lsl r4
 800f720:	e7c24000 	strb	r4, [r2, r0]
 800f724:	e5d80000 	ldrb	r0, [r8]
 800f728:	e3500009 	cmp	r0, #9
 800f72c:	3a0001d6 	bcc	0x800fe8c
 800f730:	e0800100 	add	r0, r0, r0, lsl #2
 800f734:	e2175020 	ands	r5, r7, #32
 800f738:	e2004007 	and	r4, r0, #7
 800f73c:	e2800008 	add	r0, r0, #8
 800f740:	e58d5024 	str	r5, [sp, #36]	@ 0x24
 800f744:	e1a001a0 	lsr	r0, r0, #3
 800f748:	1a000004 	bne	0x800f760
 800f74c:	e1500001 	cmp	r0, r1
 800f750:	2a00020b 	bcs	0x800ff84
 800f754:	e7d25000 	ldrb	r5, [r2, r0]
 800f758:	e1c54416 	bic	r4, r5, r6, lsl r4
 800f75c:	ea000003 	b	0x800f770
 800f760:	e1500001 	cmp	r0, r1
 800f764:	2a000209 	bcs	0x800ff90
 800f768:	e7d25000 	ldrb	r5, [r2, r0]
 800f76c:	e1854416 	orr	r4, r5, r6, lsl r4
 800f770:	e7c24000 	strb	r4, [r2, r0]
 800f774:	e5d80000 	ldrb	r0, [r8]
 800f778:	e3500008 	cmp	r0, #8
 800f77c:	9a0001c2 	bls	0x800fe8c
 800f780:	e2174040 	ands	r4, r7, #64	@ 0x40
 800f784:	e0600180 	rsb	r0, r0, r0, lsl #3
 800f788:	e58d4020 	str	r4, [sp, #32]
 800f78c:	e2004007 	and	r4, r0, #7
 800f790:	e2800008 	add	r0, r0, #8
 800f794:	e1a001a0 	lsr	r0, r0, #3
 800f798:	1a000004 	bne	0x800f7b0
 800f79c:	e1500001 	cmp	r0, r1
 800f7a0:	2a0001f7 	bcs	0x800ff84
 800f7a4:	e7d25000 	ldrb	r5, [r2, r0]
 800f7a8:	e1c54416 	bic	r4, r5, r6, lsl r4
 800f7ac:	ea000003 	b	0x800f7c0
 800f7b0:	e1500001 	cmp	r0, r1
 800f7b4:	2a0001f5 	bcs	0x800ff90
 800f7b8:	e7d25000 	ldrb	r5, [r2, r0]
 800f7bc:	e1854416 	orr	r4, r5, r6, lsl r4
 800f7c0:	e7c24000 	strb	r4, [r2, r0]
 800f7c4:	e5d80000 	ldrb	r0, [r8]
 800f7c8:	e3500008 	cmp	r0, #8
 800f7cc:	9a0001ae 	bls	0x800fe8c
 800f7d0:	e2800001 	add	r0, r0, #1
 800f7d4:	e2175080 	ands	r5, r7, #128	@ 0x80
 800f7d8:	1a000004 	bne	0x800f7f0
 800f7dc:	e1500001 	cmp	r0, r1
 800f7e0:	2a0001e7 	bcs	0x800ff84
 800f7e4:	e7d24000 	ldrb	r4, [r2, r0]
 800f7e8:	e20440fe 	and	r4, r4, #254	@ 0xfe
 800f7ec:	ea000003 	b	0x800f800
 800f7f0:	e1500001 	cmp	r0, r1
 800f7f4:	2a0001e5 	bcs	0x800ff90
 800f7f8:	e7d24000 	ldrb	r4, [r2, r0]
 800f7fc:	e3844001 	orr	r4, r4, #1
 800f800:	e7c24000 	strb	r4, [r2, r0]
 800f804:	e5d80000 	ldrb	r0, [r8]
 800f808:	e3500008 	cmp	r0, #8
 800f80c:	9a00019e 	bls	0x800fe8c
 800f810:	e2174c01 	ands	r4, r7, #256	@ 0x100
 800f814:	e58d501c 	str	r5, [sp, #28]
 800f818:	e58d4018 	str	r4, [sp, #24]
 800f81c:	1a000004 	bne	0x800f834
 800f820:	e1510000 	cmp	r1, r0
 800f824:	9a0001d6 	bls	0x800ff84
 800f828:	e7d24000 	ldrb	r4, [r2, r0]
 800f82c:	e204407f 	and	r4, r4, #127	@ 0x7f
 800f830:	ea000003 	b	0x800f844
 800f834:	e1510000 	cmp	r1, r0
 800f838:	9a0001d4 	bls	0x800ff90
 800f83c:	e7d24000 	ldrb	r4, [r2, r0]
 800f840:	e3844080 	orr	r4, r4, #128	@ 0x80
 800f844:	e7c24000 	strb	r4, [r2, r0]
 800f848:	e5d80000 	ldrb	r0, [r8]
 800f84c:	e3500008 	cmp	r0, #8
 800f850:	9a00018d 	bls	0x800fe8c
 800f854:	e2174c02 	ands	r4, r7, #512	@ 0x200
 800f858:	e58d4014 	str	r4, [sp, #20]
 800f85c:	1a000004 	bne	0x800f874
 800f860:	e1510000 	cmp	r1, r0
 800f864:	9a0001c6 	bls	0x800ff84
 800f868:	e7d24000 	ldrb	r4, [r2, r0]
 800f86c:	e20440df 	and	r4, r4, #223	@ 0xdf
 800f870:	ea000003 	b	0x800f884
 800f874:	e1510000 	cmp	r1, r0
 800f878:	9a0001c4 	bls	0x800ff90
 800f87c:	e7d24000 	ldrb	r4, [r2, r0]
 800f880:	e3844020 	orr	r4, r4, #32
 800f884:	e7c24000 	strb	r4, [r2, r0]
 800f888:	e5d80000 	ldrb	r0, [r8]
 800f88c:	e3500009 	cmp	r0, #9
 800f890:	3a00017d 	bcc	0x800fe8c
 800f894:	e2194b01 	ands	r4, r9, #1024	@ 0x400
 800f898:	e58d4010 	str	r4, [sp, #16]
 800f89c:	1a000004 	bne	0x800f8b4
 800f8a0:	e1510000 	cmp	r1, r0
 800f8a4:	9a0001b6 	bls	0x800ff84
 800f8a8:	e7d24000 	ldrb	r4, [r2, r0]
 800f8ac:	e20440ef 	and	r4, r4, #239	@ 0xef
 800f8b0:	ea000003 	b	0x800f8c4
 800f8b4:	e1510000 	cmp	r1, r0
 800f8b8:	9a0001b4 	bls	0x800ff90
 800f8bc:	e7d24000 	ldrb	r4, [r2, r0]
 800f8c0:	e3844010 	orr	r4, r4, #16
 800f8c4:	e7c24000 	strb	r4, [r2, r0]
 800f8c8:	e5d80000 	ldrb	r0, [r8]
 800f8cc:	e3500009 	cmp	r0, #9
 800f8d0:	3a00016d 	bcc	0x800fe8c
 800f8d4:	e21c6b02 	ands	r6, ip, #2048	@ 0x800
 800f8d8:	1a000004 	bne	0x800f8f0
 800f8dc:	e1510000 	cmp	r1, r0
 800f8e0:	9a0001a7 	bls	0x800ff84
 800f8e4:	e7d24000 	ldrb	r4, [r2, r0]
 800f8e8:	e20440f7 	and	r4, r4, #247	@ 0xf7
 800f8ec:	ea000003 	b	0x800f900
 800f8f0:	e1510000 	cmp	r1, r0
 800f8f4:	9a0001a5 	bls	0x800ff90
 800f8f8:	e7d24000 	ldrb	r4, [r2, r0]
 800f8fc:	e3844008 	orr	r4, r4, #8
 800f900:	e7c24000 	strb	r4, [r2, r0]
 800f904:	e5d80000 	ldrb	r0, [r8]
 800f908:	e3500009 	cmp	r0, #9
 800f90c:	3a00015e 	bcc	0x800fe8c
 800f910:	e2195a01 	ands	r5, r9, #4096	@ 0x1000
 800f914:	1a000004 	bne	0x800f92c
 800f918:	e1510000 	cmp	r1, r0
 800f91c:	9a000198 	bls	0x800ff84
 800f920:	e7d24000 	ldrb	r4, [r2, r0]
 800f924:	e20440fb 	and	r4, r4, #251	@ 0xfb
 800f928:	ea000003 	b	0x800f93c
 800f92c:	e1510000 	cmp	r1, r0
 800f930:	9a000196 	bls	0x800ff90
 800f934:	e7d24000 	ldrb	r4, [r2, r0]
 800f938:	e3844004 	orr	r4, r4, #4
 800f93c:	e7c24000 	strb	r4, [r2, r0]
 800f940:	e5d80000 	ldrb	r0, [r8]
 800f944:	e3500009 	cmp	r0, #9
 800f948:	3a00014f 	bcc	0x800fe8c
 800f94c:	e21c4a02 	ands	r4, ip, #8192	@ 0x2000
 800f950:	1a000004 	bne	0x800f968
 800f954:	e1510000 	cmp	r1, r0
 800f958:	9a000189 	bls	0x800ff84
 800f95c:	e7d27000 	ldrb	r7, [r2, r0]
 800f960:	e20770fd 	and	r7, r7, #253	@ 0xfd
 800f964:	ea000003 	b	0x800f978
 800f968:	e1510000 	cmp	r1, r0
 800f96c:	9a000187 	bls	0x800ff90
 800f970:	e7d27000 	ldrb	r7, [r2, r0]
 800f974:	e3877002 	orr	r7, r7, #2
 800f978:	e7c27000 	strb	r7, [r2, r0]
 800f97c:	e5d80000 	ldrb	r0, [r8]
 800f980:	e3500009 	cmp	r0, #9
 800f984:	3a000140 	bcc	0x800fe8c
 800f988:	e219c901 	ands	ip, r9, #16384	@ 0x4000
 800f98c:	e98d0070 	stmib	sp, {r4, r5, r6}
 800f990:	1a000004 	bne	0x800f9a8
 800f994:	e1510000 	cmp	r1, r0
 800f998:	9a000179 	bls	0x800ff84
 800f99c:	e7d27000 	ldrb	r7, [r2, r0]
 800f9a0:	e20770fe 	and	r7, r7, #254	@ 0xfe
 800f9a4:	ea000003 	b	0x800f9b8
 800f9a8:	e1510000 	cmp	r1, r0
 800f9ac:	9a000177 	bls	0x800ff90
 800f9b0:	e7d27000 	ldrb	r7, [r2, r0]
 800f9b4:	e3877001 	orr	r7, r7, #1
 800f9b8:	e7c27000 	strb	r7, [r2, r0]
 800f9bc:	e5d86000 	ldrb	r6, [r8]
 800f9c0:	e3560008 	cmp	r6, #8
 800f9c4:	9a000130 	bls	0x800fe8c
 800f9c8:	e2464001 	sub	r4, r6, #1
 800f9cc:	e35e0000 	cmp	lr, #0
 800f9d0:	e20450ff 	and	r5, r4, #255	@ 0xff
 800f9d4:	e2047007 	and	r7, r4, #7
 800f9d8:	e08601a5 	add	r0, r6, r5, lsr #3
 800f9dc:	e50b5028 	str	r5, [fp, #-40]	@ 0xffffffd8
 800f9e0:	1a000005 	bne	0x800f9fc
 800f9e4:	e1500001 	cmp	r0, r1
 800f9e8:	2a000165 	bcs	0x800ff84
 800f9ec:	e7d25000 	ldrb	r5, [r2, r0]
 800f9f0:	e3a04001 	mov	r4, #1
 800f9f4:	e1c57714 	bic	r7, r5, r4, lsl r7
 800f9f8:	ea000004 	b	0x800fa10
 800f9fc:	e1500001 	cmp	r0, r1
 800fa00:	2a000162 	bcs	0x800ff90
 800fa04:	e7d25000 	ldrb	r5, [r2, r0]
 800fa08:	e3a04001 	mov	r4, #1
 800fa0c:	e1857714 	orr	r7, r5, r4, lsl r7
 800fa10:	e7c27000 	strb	r7, [r2, r0]
 800fa14:	e2464002 	sub	r4, r6, #2
 800fa18:	e5d80000 	ldrb	r0, [r8]
 800fa1c:	e20450ff 	and	r5, r4, #255	@ 0xff
 800fa20:	e50b5020 	str	r5, [fp, #-32]	@ 0xffffffe0
 800fa24:	e1500005 	cmp	r0, r5
 800fa28:	9a000117 	bls	0x800fe8c
 800fa2c:	e3500009 	cmp	r0, #9
 800fa30:	3a000115 	bcc	0x800fe8c
 800fa34:	e51b7020 	ldr	r7, [fp, #-32]	@ 0xffffffe0
 800fa38:	e2044007 	and	r4, r4, #7
 800fa3c:	e3530000 	cmp	r3, #0
 800fa40:	e08001a7 	add	r0, r0, r7, lsr #3
 800fa44:	1a000005 	bne	0x800fa60
 800fa48:	e1500001 	cmp	r0, r1
 800fa4c:	2a00014c 	bcs	0x800ff84
 800fa50:	e7d25000 	ldrb	r5, [r2, r0]
 800fa54:	e3a07001 	mov	r7, #1
 800fa58:	e1c54417 	bic	r4, r5, r7, lsl r4
 800fa5c:	ea000004 	b	0x800fa74
 800fa60:	e1500001 	cmp	r0, r1
 800fa64:	2a000149 	bcs	0x800ff90
 800fa68:	e7d25000 	ldrb	r5, [r2, r0]
 800fa6c:	e3a07001 	mov	r7, #1
 800fa70:	e1854417 	orr	r4, r5, r7, lsl r4
 800fa74:	e7c24000 	strb	r4, [r2, r0]
 800fa78:	e2464003 	sub	r4, r6, #3
 800fa7c:	e5d80000 	ldrb	r0, [r8]
 800fa80:	e20470ff 	and	r7, r4, #255	@ 0xff
 800fa84:	e50b7024 	str	r7, [fp, #-36]	@ 0xffffffdc
 800fa88:	e1500007 	cmp	r0, r7
 800fa8c:	9a0000fe 	bls	0x800fe8c
 800fa90:	e3500009 	cmp	r0, #9
 800fa94:	3a0000fc 	bcc	0x800fe8c
 800fa98:	e51b3024 	ldr	r3, [fp, #-36]	@ 0xffffffdc
 800fa9c:	e2044007 	and	r4, r4, #7
 800faa0:	e35a0000 	cmp	sl, #0
 800faa4:	e08001a3 	add	r0, r0, r3, lsr #3
 800faa8:	1a000005 	bne	0x800fac4
 800faac:	e1500001 	cmp	r0, r1
 800fab0:	2a000133 	bcs	0x800ff84
 800fab4:	e7d25000 	ldrb	r5, [r2, r0]
 800fab8:	e3a07001 	mov	r7, #1
 800fabc:	e1c54417 	bic	r4, r5, r7, lsl r4
 800fac0:	ea000004 	b	0x800fad8
 800fac4:	e1500001 	cmp	r0, r1
 800fac8:	2a000130 	bcs	0x800ff90
 800facc:	e7d25000 	ldrb	r5, [r2, r0]
 800fad0:	e3a07001 	mov	r7, #1
 800fad4:	e1854417 	orr	r4, r5, r7, lsl r4
 800fad8:	e7c24000 	strb	r4, [r2, r0]
 800fadc:	e2464004 	sub	r4, r6, #4
 800fae0:	e5d80000 	ldrb	r0, [r8]
 800fae4:	e204a0ff 	and	sl, r4, #255	@ 0xff
 800fae8:	e150000a 	cmp	r0, sl
 800faec:	9a0000e6 	bls	0x800fe8c
 800faf0:	e3500009 	cmp	r0, #9
 800faf4:	3a0000e4 	bcc	0x800fe8c
 800faf8:	e59d302c 	ldr	r3, [sp, #44]	@ 0x2c
 800fafc:	e08001aa 	add	r0, r0, sl, lsr #3
 800fb00:	e2044007 	and	r4, r4, #7
 800fb04:	e3530000 	cmp	r3, #0
 800fb08:	1a000004 	bne	0x800fb20
 800fb0c:	e1500001 	cmp	r0, r1
 800fb10:	2a00011b 	bcs	0x800ff84
 800fb14:	e7d25000 	ldrb	r5, [r2, r0]
 800fb18:	e1c54417 	bic	r4, r5, r7, lsl r4
 800fb1c:	ea000003 	b	0x800fb30
 800fb20:	e1500001 	cmp	r0, r1
 800fb24:	2a000119 	bcs	0x800ff90
 800fb28:	e7d25000 	ldrb	r5, [r2, r0]
 800fb2c:	e1854417 	orr	r4, r5, r7, lsl r4
 800fb30:	e7c24000 	strb	r4, [r2, r0]
 800fb34:	e2464005 	sub	r4, r6, #5
 800fb38:	e5d80000 	ldrb	r0, [r8]
 800fb3c:	e20490ff 	and	r9, r4, #255	@ 0xff
 800fb40:	e1500009 	cmp	r0, r9
 800fb44:	9a0000d0 	bls	0x800fe8c
 800fb48:	e3500009 	cmp	r0, #9
 800fb4c:	3a0000ce 	bcc	0x800fe8c
 800fb50:	e59d3028 	ldr	r3, [sp, #40]	@ 0x28
 800fb54:	e08001a9 	add	r0, r0, r9, lsr #3
 800fb58:	e2044007 	and	r4, r4, #7
 800fb5c:	e3530000 	cmp	r3, #0
 800fb60:	1a000004 	bne	0x800fb78
 800fb64:	e1500001 	cmp	r0, r1
 800fb68:	2a000105 	bcs	0x800ff84
 800fb6c:	e7d25000 	ldrb	r5, [r2, r0]
 800fb70:	e1c54417 	bic	r4, r5, r7, lsl r4
 800fb74:	ea000003 	b	0x800fb88
 800fb78:	e1500001 	cmp	r0, r1
 800fb7c:	2a000103 	bcs	0x800ff90
 800fb80:	e7d25000 	ldrb	r5, [r2, r0]
 800fb84:	e1854417 	orr	r4, r5, r7, lsl r4
 800fb88:	e7c24000 	strb	r4, [r2, r0]
 800fb8c:	e2465006 	sub	r5, r6, #6
 800fb90:	e5d80000 	ldrb	r0, [r8]
 800fb94:	e205e0ff 	and	lr, r5, #255	@ 0xff
 800fb98:	e150000e 	cmp	r0, lr
 800fb9c:	9a0000ba 	bls	0x800fe8c
 800fba0:	e3500009 	cmp	r0, #9
 800fba4:	3a0000b8 	bcc	0x800fe8c
 800fba8:	e59d3024 	ldr	r3, [sp, #36]	@ 0x24
 800fbac:	e08001ae 	add	r0, r0, lr, lsr #3
 800fbb0:	e2057007 	and	r7, r5, #7
 800fbb4:	e3530000 	cmp	r3, #0
 800fbb8:	1a000005 	bne	0x800fbd4
 800fbbc:	e1500001 	cmp	r0, r1
 800fbc0:	2a0000ef 	bcs	0x800ff84
 800fbc4:	e7d25000 	ldrb	r5, [r2, r0]
 800fbc8:	e3a04001 	mov	r4, #1
 800fbcc:	e1c57714 	bic	r7, r5, r4, lsl r7
 800fbd0:	ea000006 	b	0x800fbf0
 800fbd4:	e1500001 	cmp	r0, r1
 800fbd8:	2a0000ec 	bcs	0x800ff90
 800fbdc:	e7d25000 	ldrb	r5, [r2, r0]
 800fbe0:	e1a0300c 	mov	r3, ip
 800fbe4:	e3a0c001 	mov	ip, #1
 800fbe8:	e185771c 	orr	r7, r5, ip, lsl r7
 800fbec:	e1a0c003 	mov	ip, r3
 800fbf0:	e7c27000 	strb	r7, [r2, r0]
 800fbf4:	e5d80000 	ldrb	r0, [r8]
 800fbf8:	e2465007 	sub	r5, r6, #7
 800fbfc:	e20570ff 	and	r7, r5, #255	@ 0xff
 800fc00:	e1500007 	cmp	r0, r7
 800fc04:	9a0000a0 	bls	0x800fe8c
 800fc08:	e3500009 	cmp	r0, #9
 800fc0c:	3a00009e 	bcc	0x800fe8c
 800fc10:	e59d3020 	ldr	r3, [sp, #32]
 800fc14:	e08001a7 	add	r0, r0, r7, lsr #3
 800fc18:	e2055007 	and	r5, r5, #7
 800fc1c:	e3530000 	cmp	r3, #0
 800fc20:	1a000005 	bne	0x800fc3c
 800fc24:	e1500001 	cmp	r0, r1
 800fc28:	2a0000d5 	bcs	0x800ff84
 800fc2c:	e7d23000 	ldrb	r3, [r2, r0]
 800fc30:	e3a04001 	mov	r4, #1
 800fc34:	e1c33514 	bic	r3, r3, r4, lsl r5
 800fc38:	ea000004 	b	0x800fc50
 800fc3c:	e1500001 	cmp	r0, r1
 800fc40:	2a0000d2 	bcs	0x800ff90
 800fc44:	e7d24000 	ldrb	r4, [r2, r0]
 800fc48:	e3a03001 	mov	r3, #1
 800fc4c:	e1843513 	orr	r3, r4, r3, lsl r5
 800fc50:	e7c23000 	strb	r3, [r2, r0]
 800fc54:	e2465008 	sub	r5, r6, #8
 800fc58:	e5d80000 	ldrb	r0, [r8]
 800fc5c:	e20560ff 	and	r6, r5, #255	@ 0xff
 800fc60:	e1500006 	cmp	r0, r6
 800fc64:	9a000088 	bls	0x800fe8c
 800fc68:	e3500009 	cmp	r0, #9
 800fc6c:	3a000086 	bcc	0x800fe8c
 800fc70:	e59d301c 	ldr	r3, [sp, #28]
 800fc74:	e08001a6 	add	r0, r0, r6, lsr #3
 800fc78:	e2055007 	and	r5, r5, #7
 800fc7c:	e3530000 	cmp	r3, #0
 800fc80:	1a000005 	bne	0x800fc9c
 800fc84:	e1500001 	cmp	r0, r1
 800fc88:	2a0000bd 	bcs	0x800ff84
 800fc8c:	e7d23000 	ldrb	r3, [r2, r0]
 800fc90:	e3a04001 	mov	r4, #1
 800fc94:	e1c33514 	bic	r3, r3, r4, lsl r5
 800fc98:	ea000004 	b	0x800fcb0
 800fc9c:	e1500001 	cmp	r0, r1
 800fca0:	2a0000ba 	bcs	0x800ff90
 800fca4:	e7d23000 	ldrb	r3, [r2, r0]
 800fca8:	e3a04001 	mov	r4, #1
 800fcac:	e1833514 	orr	r3, r3, r4, lsl r5
 800fcb0:	e7c23000 	strb	r3, [r2, r0]
 800fcb4:	e5d80000 	ldrb	r0, [r8]
 800fcb8:	e3500009 	cmp	r0, #9
 800fcbc:	21500007 	cmpcs	r0, r7
 800fcc0:	9a000071 	bls	0x800fe8c
 800fcc4:	e0030790 	mul	r3, r0, r7
 800fcc8:	e2830008 	add	r0, r3, #8
 800fccc:	e2037007 	and	r7, r3, #7
 800fcd0:	e59d3018 	ldr	r3, [sp, #24]
 800fcd4:	e1a001a0 	lsr	r0, r0, #3
 800fcd8:	e3530000 	cmp	r3, #0
 800fcdc:	1a000005 	bne	0x800fcf8
 800fce0:	e1500001 	cmp	r0, r1
 800fce4:	2a0000a6 	bcs	0x800ff84
 800fce8:	e7d23000 	ldrb	r3, [r2, r0]
 800fcec:	e3a05001 	mov	r5, #1
 800fcf0:	e1c33715 	bic	r3, r3, r5, lsl r7
 800fcf4:	ea000004 	b	0x800fd0c
 800fcf8:	e1500001 	cmp	r0, r1
 800fcfc:	2a0000a3 	bcs	0x800ff90
 800fd00:	e7d23000 	ldrb	r3, [r2, r0]
 800fd04:	e3a05001 	mov	r5, #1
 800fd08:	e1833715 	orr	r3, r3, r5, lsl r7
 800fd0c:	e7c23000 	strb	r3, [r2, r0]
 800fd10:	e5d80000 	ldrb	r0, [r8]
 800fd14:	e3500009 	cmp	r0, #9
 800fd18:	2150000e 	cmpcs	r0, lr
 800fd1c:	9a00005a 	bls	0x800fe8c
 800fd20:	e0030e90 	mul	r3, r0, lr
 800fd24:	e2830008 	add	r0, r3, #8
 800fd28:	e2034007 	and	r4, r3, #7
 800fd2c:	e59d3014 	ldr	r3, [sp, #20]
 800fd30:	e1a001a0 	lsr	r0, r0, #3
 800fd34:	e3530000 	cmp	r3, #0
 800fd38:	1a000005 	bne	0x800fd54
 800fd3c:	e1500001 	cmp	r0, r1
 800fd40:	2a00008f 	bcs	0x800ff84
 800fd44:	e7d23000 	ldrb	r3, [r2, r0]
 800fd48:	e3a07001 	mov	r7, #1
 800fd4c:	e1c33417 	bic	r3, r3, r7, lsl r4
 800fd50:	ea000004 	b	0x800fd68
 800fd54:	e1500001 	cmp	r0, r1
 800fd58:	2a00008c 	bcs	0x800ff90
 800fd5c:	e7d23000 	ldrb	r3, [r2, r0]
 800fd60:	e3a07001 	mov	r7, #1
 800fd64:	e1833417 	orr	r3, r3, r7, lsl r4
 800fd68:	e7c23000 	strb	r3, [r2, r0]
 800fd6c:	e5d80000 	ldrb	r0, [r8]
 800fd70:	e3500009 	cmp	r0, #9
 800fd74:	21500009 	cmpcs	r0, r9
 800fd78:	9a000043 	bls	0x800fe8c
 800fd7c:	e0030990 	mul	r3, r0, r9
 800fd80:	e2830008 	add	r0, r3, #8
 800fd84:	e2034007 	and	r4, r3, #7
 800fd88:	e59d3010 	ldr	r3, [sp, #16]
 800fd8c:	e1a001a0 	lsr	r0, r0, #3
 800fd90:	e3530000 	cmp	r3, #0
 800fd94:	1a000004 	bne	0x800fdac
 800fd98:	e1500001 	cmp	r0, r1
 800fd9c:	2a000078 	bcs	0x800ff84
 800fda0:	e7d23000 	ldrb	r3, [r2, r0]
 800fda4:	e1c33417 	bic	r3, r3, r7, lsl r4
 800fda8:	ea000003 	b	0x800fdbc
 800fdac:	e1500001 	cmp	r0, r1
 800fdb0:	2a000076 	bcs	0x800ff90
 800fdb4:	e7d23000 	ldrb	r3, [r2, r0]
 800fdb8:	e1833417 	orr	r3, r3, r7, lsl r4
 800fdbc:	e7c23000 	strb	r3, [r2, r0]
 800fdc0:	e5d80000 	ldrb	r0, [r8]
 800fdc4:	e3500009 	cmp	r0, #9
 800fdc8:	2150000a 	cmpcs	r0, sl
 800fdcc:	9a00002e 	bls	0x800fe8c
 800fdd0:	e0030a90 	mul	r3, r0, sl
 800fdd4:	e2830008 	add	r0, r3, #8
 800fdd8:	e2034007 	and	r4, r3, #7
 800fddc:	e59d300c 	ldr	r3, [sp, #12]
 800fde0:	e1a001a0 	lsr	r0, r0, #3
 800fde4:	e3530000 	cmp	r3, #0
 800fde8:	1a000004 	bne	0x800fe00
 800fdec:	e1500001 	cmp	r0, r1
 800fdf0:	2a000063 	bcs	0x800ff84
 800fdf4:	e7d23000 	ldrb	r3, [r2, r0]
 800fdf8:	e1c33417 	bic	r3, r3, r7, lsl r4
 800fdfc:	ea000003 	b	0x800fe10
 800fe00:	e1500001 	cmp	r0, r1
 800fe04:	2a000061 	bcs	0x800ff90
 800fe08:	e7d23000 	ldrb	r3, [r2, r0]
 800fe0c:	e1833417 	orr	r3, r3, r7, lsl r4
 800fe10:	e7c23000 	strb	r3, [r2, r0]
 800fe14:	e5d80000 	ldrb	r0, [r8]
 800fe18:	e3500009 	cmp	r0, #9
 800fe1c:	251b3024 	ldrcs	r3, [fp, #-36]	@ 0xffffffdc
 800fe20:	21500003 	cmpcs	r0, r3
 800fe24:	9a000018 	bls	0x800fe8c
 800fe28:	e51b7024 	ldr	r7, [fp, #-36]	@ 0xffffffdc
 800fe2c:	e0030790 	mul	r3, r0, r7
 800fe30:	e2830008 	add	r0, r3, #8
 800fe34:	e2034007 	and	r4, r3, #7
 800fe38:	e59d3008 	ldr	r3, [sp, #8]
 800fe3c:	e1a001a0 	lsr	r0, r0, #3
 800fe40:	e3530000 	cmp	r3, #0
 800fe44:	1a000005 	bne	0x800fe60
 800fe48:	e1500001 	cmp	r0, r1
 800fe4c:	2a00004c 	bcs	0x800ff84
 800fe50:	e7d23000 	ldrb	r3, [r2, r0]
 800fe54:	e3a07001 	mov	r7, #1
 800fe58:	e1c33417 	bic	r3, r3, r7, lsl r4
 800fe5c:	ea000004 	b	0x800fe74
 800fe60:	e1500001 	cmp	r0, r1
 800fe64:	2a000049 	bcs	0x800ff90
 800fe68:	e7d23000 	ldrb	r3, [r2, r0]
 800fe6c:	e3a07001 	mov	r7, #1
 800fe70:	e1833417 	orr	r3, r3, r7, lsl r4
 800fe74:	e7c23000 	strb	r3, [r2, r0]
 800fe78:	e5d80000 	ldrb	r0, [r8]
 800fe7c:	e3500009 	cmp	r0, #9
 800fe80:	251b3020 	ldrcs	r3, [fp, #-32]	@ 0xffffffe0
 800fe84:	21500003 	cmpcs	r0, r3
 800fe88:	8a000003 	bhi	0x800fe9c
 800fe8c:	e59f0108 	ldr	r0, [pc, #264]	@ 0x800ff9c
 800fe90:	e59f2108 	ldr	r2, [pc, #264]	@ 0x800ffa0
 800fe94:	e3a0103a 	mov	r1, #58	@ 0x3a
 800fe98:	ebffdad6 	bl	0x80069f8
 800fe9c:	e51b7020 	ldr	r7, [fp, #-32]	@ 0xffffffe0
 800fea0:	e0030790 	mul	r3, r0, r7
 800fea4:	e2830008 	add	r0, r3, #8
 800fea8:	e2037007 	and	r7, r3, #7
 800feac:	e59d3004 	ldr	r3, [sp, #4]
 800feb0:	e1a001a0 	lsr	r0, r0, #3
 800feb4:	e3530000 	cmp	r3, #0
 800feb8:	1a000004 	bne	0x800fed0
 800febc:	e1500001 	cmp	r0, r1
 800fec0:	2a00002f 	bcs	0x800ff84
 800fec4:	e7d23000 	ldrb	r3, [r2, r0]
 800fec8:	e1c33715 	bic	r3, r3, r5, lsl r7
 800fecc:	ea000003 	b	0x800fee0
 800fed0:	e1500001 	cmp	r0, r1
 800fed4:	2a00002d 	bcs	0x800ff90
 800fed8:	e7d23000 	ldrb	r3, [r2, r0]
 800fedc:	e1833715 	orr	r3, r3, r5, lsl r7
 800fee0:	e7c23000 	strb	r3, [r2, r0]
 800fee4:	e51b3028 	ldr	r3, [fp, #-40]	@ 0xffffffd8
 800fee8:	e5d80000 	ldrb	r0, [r8]
 800feec:	e1500003 	cmp	r0, r3
 800fef0:	9affffe5 	bls	0x800fe8c
 800fef4:	e51b7028 	ldr	r7, [fp, #-40]	@ 0xffffffd8
 800fef8:	e35c0000 	cmp	ip, #0
 800fefc:	e0030790 	mul	r3, r0, r7
 800ff00:	e2830008 	add	r0, r3, #8
 800ff04:	e2037007 	and	r7, r3, #7
 800ff08:	e1a001a0 	lsr	r0, r0, #3
 800ff0c:	1a000004 	bne	0x800ff24
 800ff10:	e1500001 	cmp	r0, r1
 800ff14:	2a00001a 	bcs	0x800ff84
 800ff18:	e7d23000 	ldrb	r3, [r2, r0]
 800ff1c:	e1c33715 	bic	r3, r3, r5, lsl r7
 800ff20:	ea000003 	b	0x800ff34
 800ff24:	e1500001 	cmp	r0, r1
 800ff28:	2a000018 	bcs	0x800ff90
 800ff2c:	e7d23000 	ldrb	r3, [r2, r0]
 800ff30:	e1833715 	orr	r3, r3, r5, lsl r7
 800ff34:	e7c23000 	strb	r3, [r2, r0]
 800ff38:	e5d80000 	ldrb	r0, [r8]
 800ff3c:	e3500009 	cmp	r0, #9
 800ff40:	3affffd1 	bcc	0x800fe8c
 800ff44:	e1500006 	cmp	r0, r6
 800ff48:	9affffcf 	bls	0x800fe8c
 800ff4c:	e0030690 	mul	r3, r0, r6
 800ff50:	e2837008 	add	r7, r3, #8
 800ff54:	e15101a7 	cmp	r1, r7, lsr #3
 800ff58:	e1a001a7 	lsr	r0, r7, #3
 800ff5c:	87d21000 	ldrbhi	r1, [r2, r0]
 800ff60:	82033007 	andhi	r3, r3, #7
 800ff64:	83a07001 	movhi	r7, #1
 800ff68:	81811317 	orrhi	r1, r1, r7, lsl r3
 800ff6c:	87c21000 	strbhi	r1, [r2, r0]
 800ff70:	824bd01c 	subhi	sp, fp, #28
 800ff74:	88bd4ff0 	pophi	{r4, r5, r6, r7, r8, r9, sl, fp, lr}
 800ff78:	812fff1e 	bxhi	lr
 800ff7c:	ea000003 	b	0x800ff90
 800ff80:	e3a00001 	mov	r0, #1
 800ff84:	e59f201c 	ldr	r2, [pc, #28]	@ 0x800ffa8
 800ff88:	ebffdaaf 	bl	0x8006a4c
 800ff8c:	e3a00001 	mov	r0, #1
 800ff90:	e59f200c 	ldr	r2, [pc, #12]	@ 0x800ffa4
 800ff94:	ebffdaac 	bl	0x8006a4c
 800ff98:	10180008 	andsne	r0, r8, r8
 800ff9c:	082fe130 	stmdaeq	pc!, {r4, r5, r8, sp, lr, pc}	@ <UNPREDICTABLE>
 800ffa0:	082fe18c 	stmdaeq	pc!, {r2, r3, r7, r8, sp, lr, pc}	@ <UNPREDICTABLE>
 800ffa4:	082fe1ac 	stmdaeq	pc!, {r2, r3, r5, r7, r8, sp, lr, pc}	@ <UNPREDICTABLE>
 800ffa8:	082fe19c 	stmdaeq	pc!, {r2, r3, r4, r7, r8, sp, lr, pc}	@ <UNPREDICTABLE>
 800ffac:	e12fff1e 	bx	lr
 800ffb0:	e92d4ff0 	push	{r4, r5, r6, r7, r8, r9, sl, fp, lr}
 800ffb4:	e28db01c 	add	fp, sp, #28
 800ffb8:	e24dd004 	sub	sp, sp, #4
 800ffbc:	e3a095fe 	mov	r9, #1065353216	@ 0x3f800000
 800ffc0:	e59f72d0 	ldr	r7, [pc, #720]	@ 0x8010298
 800ffc4:	e3c02102 	bic	r2, r0, #-2147483648	@ 0x80000000
 800ffc8:	e1a04001 	mov	r4, r1
 800ffcc:	e3c11102 	bic	r1, r1, #-2147483648	@ 0x80000000
 800ffd0:	e3899101 	orr	r9, r9, #1073741824	@ 0x40000000
 800ffd4:	e2893401 	add	r3, r9, #16777216	@ 0x1000000
 800ffd8:	e0826003 	add	r6, r2, r3
 800ffdc:	e1560007 	cmp	r6, r7
 800ffe0:	20813003 	addcs	r3, r1, r3
 800ffe4:	21530007 	cmpcs	r3, r7
 800ffe8:	2a00001e 	bcs	0x8010068
 800ffec:	e1520009 	cmp	r2, r9
 800fff0:	9a000004 	bls	0x8010008
 800fff4:	e3824501 	orr	r4, r2, #4194304	@ 0x400000
 800fff8:	e1a00004 	mov	r0, r4
 800fffc:	e24bd01c 	sub	sp, fp, #28
 8010000:	e8bd4ff0 	pop	{r4, r5, r6, r7, r8, r9, sl, fp, lr}
 8010004:	e12fff1e 	bx	lr
 8010008:	e1510009 	cmp	r1, r9
 801000c:	9a000004 	bls	0x8010024
 8010010:	e3814501 	orr	r4, r1, #4194304	@ 0x400000
 8010014:	e1a00004 	mov	r0, r4
 8010018:	e24bd01c 	sub	sp, fp, #28
 801001c:	e8bd4ff0 	pop	{r4, r5, r6, r7, r8, r9, sl, fp, lr}
 8010020:	e12fff1e 	bx	lr
 8010024:	e1520009 	cmp	r2, r9
 8010028:	1a000008 	bne	0x8010050
 801002c:	e0241000 	eor	r1, r4, r0
 8010030:	e3a045ff 	mov	r4, #1069547520	@ 0x3fc00000
 8010034:	e3844101 	orr	r4, r4, #1073741824	@ 0x40000000
 8010038:	e3510102 	cmp	r1, #-2147483648	@ 0x80000000
 801003c:	11a04000 	movne	r4, r0
 8010040:	e1a00004 	mov	r0, r4
 8010044:	e24bd01c 	sub	sp, fp, #28
 8010048:	e8bd4ff0 	pop	{r4, r5, r6, r7, r8, r9, sl, fp, lr}
 801004c:	e12fff1e 	bx	lr
 8010050:	e1510009 	cmp	r1, r9
 8010054:	0affffe7 	beq	0x800fff8
 8010058:	e3520000 	cmp	r2, #0
 801005c:	0a000082 	beq	0x801026c
 8010060:	e3510000 	cmp	r1, #0
 8010064:	0a000086 	beq	0x8010284
 8010068:	e59fe22c 	ldr	lr, [pc, #556]	@ 0x801029c
 801006c:	e1510002 	cmp	r1, r2
 8010070:	e1a06004 	mov	r6, r4
 8010074:	e1a05000 	mov	r5, r0
 8010078:	e3a010ff 	mov	r1, #255	@ 0xff
 801007c:	81a06000 	movhi	r6, r0
 8010080:	81a05004 	movhi	r5, r4
 8010084:	e0018ba6 	and	r8, r1, r6, lsr #23
 8010088:	e0117ba5 	ands	r7, r1, r5, lsr #23
 801008c:	e005a00e 	and	sl, r5, lr
 8010090:	0a000003 	beq	0x80100a4
 8010094:	e006600e 	and	r6, r6, lr
 8010098:	e3580000 	cmp	r8, #0
 801009c:	1a000022 	bne	0x801012c
 80100a0:	ea000010 	b	0x80100e8
 80100a4:	e35a0000 	cmp	sl, #0
 80100a8:	0a000006 	beq	0x80100c8
 80100ac:	e1a07000 	mov	r7, r0
 80100b0:	e1a0000a 	mov	r0, sl
 80100b4:	eb0003ee 	bl	0x8011074
 80100b8:	e59fe1dc 	ldr	lr, [pc, #476]	@ 0x801029c
 80100bc:	e1a01000 	mov	r1, r0
 80100c0:	e1a00007 	mov	r0, r7
 80100c4:	ea000000 	b	0x80100cc
 80100c8:	e3a01020 	mov	r1, #32
 80100cc:	e2812018 	add	r2, r1, #24
 80100d0:	e2617009 	rsb	r7, r1, #9
 80100d4:	e202201f 	and	r2, r2, #31
 80100d8:	e1a0a21a 	lsl	sl, sl, r2
 80100dc:	e006600e 	and	r6, r6, lr
 80100e0:	e3580000 	cmp	r8, #0
 80100e4:	1a000010 	bne	0x801012c
 80100e8:	e3560000 	cmp	r6, #0
 80100ec:	0a000009 	beq	0x8010118
 80100f0:	e1a08000 	mov	r8, r0
 80100f4:	e1a00006 	mov	r0, r6
 80100f8:	e1a0900e 	mov	r9, lr
 80100fc:	eb0003dc 	bl	0x8011074
 8010100:	e1a0e009 	mov	lr, r9
 8010104:	e3a095fe 	mov	r9, #1065353216	@ 0x3f800000
 8010108:	e1a01000 	mov	r1, r0
 801010c:	e1a00008 	mov	r0, r8
 8010110:	e3899101 	orr	r9, r9, #1073741824	@ 0x40000000
 8010114:	ea000000 	b	0x801011c
 8010118:	e3a01020 	mov	r1, #32
 801011c:	e2812018 	add	r2, r1, #24
 8010120:	e2618009 	rsb	r8, r1, #9
 8010124:	e202201f 	and	r2, r2, #31
 8010128:	e1a06216 	lsl	r6, r6, r2
 801012c:	e3a02301 	mov	r2, #67108864	@ 0x4000000
 8010130:	e0241000 	eor	r1, r4, r0
 8010134:	e1570008 	cmp	r7, r8
 8010138:	e1823186 	orr	r3, r2, r6, lsl #3
 801013c:	1a000001 	bne	0x8010148
 8010140:	e1a00003 	mov	r0, r3
 8010144:	ea000009 	b	0x8010170
 8010148:	e0476008 	sub	r6, r7, r8
 801014c:	e3a00001 	mov	r0, #1
 8010150:	e3560020 	cmp	r6, #32
 8010154:	2a000005 	bcs	0x8010170
 8010158:	e2664000 	rsb	r4, r6, #0
 801015c:	e3a0c001 	mov	ip, #1
 8010160:	e1a00633 	lsr	r0, r3, r6
 8010164:	e204401f 	and	r4, r4, #31
 8010168:	e1b04413 	lsls	r4, r3, r4
 801016c:	118c0633 	orrne	r0, ip, r3, lsr r6
 8010170:	e182218a 	orr	r2, r2, sl, lsl #3
 8010174:	e2055102 	and	r5, r5, #-2147483648	@ 0x80000000
 8010178:	e3710001 	cmn	r1, #1
 801017c:	da00000b 	ble	0x80101b0
 8010180:	e0804002 	add	r4, r0, r2
 8010184:	e3140302 	tst	r4, #134217728	@ 0x8000000
 8010188:	12000001 	andne	r0, r0, #1
 801018c:	12877001 	addne	r7, r7, #1
 8010190:	118040a4 	orrne	r4, r0, r4, lsr #1
 8010194:	e35700fe 	cmp	r7, #254	@ 0xfe
 8010198:	da00000f 	ble	0x80101dc
 801019c:	e1854009 	orr	r4, r5, r9
 80101a0:	e1a00004 	mov	r0, r4
 80101a4:	e24bd01c 	sub	sp, fp, #28
 80101a8:	e8bd4ff0 	pop	{r4, r5, r6, r7, r8, r9, sl, fp, lr}
 80101ac:	e12fff1e 	bx	lr
 80101b0:	e0524000 	subs	r4, r2, r0
 80101b4:	0a000027 	beq	0x8010258
 80101b8:	e374037f 	cmn	r4, #-67108863	@ 0xfc000001
 80101bc:	8afffff4 	bhi	0x8010194
 80101c0:	e1a00004 	mov	r0, r4
 80101c4:	e1a0600e 	mov	r6, lr
 80101c8:	eb0003a9 	bl	0x8011074
 80101cc:	e2400005 	sub	r0, r0, #5
 80101d0:	e1a0e006 	mov	lr, r6
 80101d4:	e0477000 	sub	r7, r7, r0
 80101d8:	e1a04014 	lsl	r4, r4, r0
 80101dc:	e3570001 	cmp	r7, #1
 80101e0:	ba000001 	blt	0x80101ec
 80101e4:	e1a00004 	mov	r0, r4
 80101e8:	ea000008 	b	0x8010210
 80101ec:	e2670001 	rsb	r0, r7, #1
 80101f0:	e3a02001 	mov	r2, #1
 80101f4:	e200101f 	and	r1, r0, #31
 80101f8:	e2470001 	sub	r0, r7, #1
 80101fc:	e3a07000 	mov	r7, #0
 8010200:	e200001f 	and	r0, r0, #31
 8010204:	e1b00014 	lsls	r0, r4, r0
 8010208:	e1a00134 	lsr	r0, r4, r1
 801020c:	11820134 	orrne	r0, r2, r4, lsr r1
 8010210:	e00e11a0 	and	r1, lr, r0, lsr #3
 8010214:	e1811b87 	orr	r1, r1, r7, lsl #23
 8010218:	e1814005 	orr	r4, r1, r5
 801021c:	e2001007 	and	r1, r0, #7
 8010220:	e3510004 	cmp	r1, #4
 8010224:	9a000004 	bls	0x801023c
 8010228:	e2844001 	add	r4, r4, #1
 801022c:	e1a00004 	mov	r0, r4
 8010230:	e24bd01c 	sub	sp, fp, #28
 8010234:	e8bd4ff0 	pop	{r4, r5, r6, r7, r8, r9, sl, fp, lr}
 8010238:	e12fff1e 	bx	lr
 801023c:	01a001a0 	lsreq	r0, r0, #3
 8010240:	02000001 	andeq	r0, r0, #1
 8010244:	00844000 	addeq	r4, r4, r0
 8010248:	e1a00004 	mov	r0, r4
 801024c:	e24bd01c 	sub	sp, fp, #28
 8010250:	e8bd4ff0 	pop	{r4, r5, r6, r7, r8, r9, sl, fp, lr}
 8010254:	e12fff1e 	bx	lr
 8010258:	e3a04000 	mov	r4, #0
 801025c:	e1a00004 	mov	r0, r4
 8010260:	e24bd01c 	sub	sp, fp, #28
 8010264:	e8bd4ff0 	pop	{r4, r5, r6, r7, r8, r9, sl, fp, lr}
 8010268:	e12fff1e 	bx	lr
 801026c:	e3510000 	cmp	r1, #0
 8010270:	00044000 	andeq	r4, r4, r0
 8010274:	e1a00004 	mov	r0, r4
 8010278:	e24bd01c 	sub	sp, fp, #28
 801027c:	e8bd4ff0 	pop	{r4, r5, r6, r7, r8, r9, sl, fp, lr}
 8010280:	e12fff1e 	bx	lr
 8010284:	e1a04000 	mov	r4, r0
 8010288:	e1a00004 	mov	r0, r4
 801028c:	e24bd01c 	sub	sp, fp, #28
 8010290:	e8bd4ff0 	pop	{r4, r5, r6, r7, r8, r9, sl, fp, lr}
 8010294:	e12fff1e 	bx	lr
 8010298:	80800001 	addhi	r0, r0, r1
 801029c:	007fffff 	ldrshteq	pc, [pc], #-255	@ <UNPREDICTABLE>
 80102a0:	ea0003c5 	b	0x80111bc
 80102a4:	e3a010ff 	mov	r1, #255	@ 0xff
 80102a8:	e3a030ff 	mov	r3, #255	@ 0xff
 80102ac:	e3811c7f 	orr	r1, r1, #32512	@ 0x7f00
 80102b0:	e3833cff 	orr	r3, r3, #65280	@ 0xff00
 80102b4:	e0001001 	and	r1, r0, r1
 80102b8:	e2412b01 	sub	r2, r1, #1024	@ 0x400
 80102bc:	e0022003 	and	r2, r2, r3
 80102c0:	e3520b1e 	cmp	r2, #30720	@ 0x7800
 80102c4:	2a000004 	bcs	0x80102dc
 80102c8:	e3a0230e 	mov	r2, #939524096	@ 0x38000000
 80102cc:	e0821681 	add	r1, r2, r1, lsl #13
 80102d0:	e2000902 	and	r0, r0, #32768	@ 0x8000
 80102d4:	e1810800 	orr	r0, r1, r0, lsl #16
 80102d8:	e12fff1e 	bx	lr
 80102dc:	e1a02521 	lsr	r2, r1, #10
 80102e0:	e352001e 	cmp	r2, #30
 80102e4:	9a000005 	bls	0x8010300
 80102e8:	e3a025fe 	mov	r2, #1065353216	@ 0x3f800000
 80102ec:	e3822101 	orr	r2, r2, #1073741824	@ 0x40000000
 80102f0:	e1821681 	orr	r1, r2, r1, lsl #13
 80102f4:	e2000902 	and	r0, r0, #32768	@ 0x8000
 80102f8:	e1810800 	orr	r0, r1, r0, lsl #16
 80102fc:	e12fff1e 	bx	lr
 8010300:	e3510000 	cmp	r1, #0
 8010304:	0a00001b 	beq	0x8010378
 8010308:	e18120a1 	orr	r2, r1, r1, lsr #1
 801030c:	e3a0c033 	mov	ip, #51	@ 0x33
 8010310:	e1822122 	orr	r2, r2, r2, lsr #2
 8010314:	e38ccc33 	orr	ip, ip, #13056	@ 0x3300
 8010318:	e1822222 	orr	r2, r2, r2, lsr #4
 801031c:	e2023c7f 	and	r3, r2, #32512	@ 0x7f00
 8010320:	e1822423 	orr	r2, r2, r3, lsr #8
 8010324:	e3a03055 	mov	r3, #85	@ 0x55
 8010328:	e1e02002 	mvn	r2, r2
 801032c:	e3833c55 	orr	r3, r3, #21760	@ 0x5500
 8010330:	e00330a2 	and	r3, r3, r2, lsr #1
 8010334:	e0422003 	sub	r2, r2, r3
 8010338:	e00c3122 	and	r3, ip, r2, lsr #2
 801033c:	e002200c 	and	r2, r2, ip
 8010340:	e0822003 	add	r2, r2, r3
 8010344:	e0822222 	add	r2, r2, r2, lsr #4
 8010348:	e2023c0f 	and	r3, r2, #3840	@ 0xf00
 801034c:	e202200f 	and	r2, r2, #15
 8010350:	e0822423 	add	r2, r2, r3, lsr #8
 8010354:	e3a03502 	mov	r3, #8388608	@ 0x800000
 8010358:	e282c008 	add	ip, r2, #8
 801035c:	e0231c11 	eor	r1, r3, r1, lsl ip
 8010360:	e3a0343b 	mov	r3, #989855744	@ 0x3b000000
 8010364:	e0432b82 	sub	r2, r3, r2, lsl #23
 8010368:	e1811002 	orr	r1, r1, r2
 801036c:	e2000902 	and	r0, r0, #32768	@ 0x8000
 8010370:	e1810800 	orr	r0, r1, r0, lsl #16
 8010374:	e12fff1e 	bx	lr
 8010378:	e3a01000 	mov	r1, #0
 801037c:	e2000902 	and	r0, r0, #32768	@ 0x8000
 8010380:	e1810800 	orr	r0, r1, r0, lsl #16
 8010384:	e12fff1e 	bx	lr
 8010388:	ea00025b 	b	0x8010cfc
 801038c:	ea0002d9 	b	0x8010ef8
 8010390:	e92d4c10 	push	{r4, sl, fp, lr}
 8010394:	e28db008 	add	fp, sp, #8
 8010398:	e1a04000 	mov	r4, r0
 801039c:	e3500000 	cmp	r0, #0
 80103a0:	0a000002 	beq	0x80103b0
 80103a4:	e1a00004 	mov	r0, r4
 80103a8:	eb000331 	bl	0x8011074
 80103ac:	ea000000 	b	0x80103b4
 80103b0:	e3a00020 	mov	r0, #32
 80103b4:	e2801018 	add	r1, r0, #24
 80103b8:	e2600009 	rsb	r0, r0, #9
 80103bc:	e201101f 	and	r1, r1, #31
 80103c0:	e1a01114 	lsl	r1, r4, r1
 80103c4:	e8bd4c10 	pop	{r4, sl, fp, lr}
 80103c8:	e12fff1e 	bx	lr
 80103cc:	e92d4df0 	push	{r4, r5, r6, r7, r8, sl, fp, lr}
 80103d0:	e28db018 	add	fp, sp, #24
 80103d4:	e1a04000 	mov	r4, r0
 80103d8:	e18200a2 	orr	r0, r2, r2, lsr #1
 80103dc:	e59f1098 	ldr	r1, [pc, #152]	@ 0x801047c
 80103e0:	e1a05002 	mov	r5, r2
 80103e4:	e1a06003 	mov	r6, r3
 80103e8:	e3a08020 	mov	r8, #32
 80103ec:	e1800120 	orr	r0, r0, r0, lsr #2
 80103f0:	e1800220 	orr	r0, r0, r0, lsr #4
 80103f4:	e1800420 	orr	r0, r0, r0, lsr #8
 80103f8:	e1800820 	orr	r0, r0, r0, lsr #16
 80103fc:	e1e00000 	mvn	r0, r0
 8010400:	e00110a0 	and	r1, r1, r0, lsr #1
 8010404:	e0400001 	sub	r0, r0, r1
 8010408:	e59f1070 	ldr	r1, [pc, #112]	@ 0x8010480
 801040c:	e0012120 	and	r2, r1, r0, lsr #2
 8010410:	e0000001 	and	r0, r0, r1
 8010414:	e59f1068 	ldr	r1, [pc, #104]	@ 0x8010484
 8010418:	e0800002 	add	r0, r0, r2
 801041c:	e0800220 	add	r0, r0, r0, lsr #4
 8010420:	e0000001 	and	r0, r0, r1
 8010424:	e59f105c 	ldr	r1, [pc, #92]	@ 0x8010488
 8010428:	e0070190 	mul	r7, r0, r1
 801042c:	e1a00003 	mov	r0, r3
 8010430:	eb00030f 	bl	0x8011074
 8010434:	e3560000 	cmp	r6, #0
 8010438:	00880c27 	addeq	r0, r8, r7, lsr #24
 801043c:	e260100c 	rsb	r1, r0, #12
 8010440:	e2800035 	add	r0, r0, #53	@ 0x35
 8010444:	e200003f 	and	r0, r0, #63	@ 0x3f
 8010448:	e5841000 	str	r1, [r4]
 801044c:	e2603020 	rsb	r3, r0, #32
 8010450:	e1a01015 	lsl	r1, r5, r0
 8010454:	e2502020 	subs	r2, r0, #32
 8010458:	e1a03335 	lsr	r3, r5, r3
 801045c:	53a01000 	movpl	r1, #0
 8010460:	e3520000 	cmp	r2, #0
 8010464:	e1830016 	orr	r0, r3, r6, lsl r0
 8010468:	e5841008 	str	r1, [r4, #8]
 801046c:	51a00215 	lslpl	r0, r5, r2
 8010470:	e584000c 	str	r0, [r4, #12]
 8010474:	e8bd4df0 	pop	{r4, r5, r6, r7, r8, sl, fp, lr}
 8010478:	e12fff1e 	bx	lr
 801047c:	55555555 	ldrbpl	r5, [r5, #-1365]	@ 0xfffffaab
 8010480:	33333333 	teqcc	r3, #-872415232	@ 0xcc000000
 8010484:	0f0f0f0f 	svceq	0x000f0f0f
 8010488:	01010101 	tsteq	r1, r1, lsl #2
 801048c:	e92d4ff0 	push	{r4, r5, r6, r7, r8, r9, sl, fp, lr}
 8010490:	e28db01c 	add	fp, sp, #28
 8010494:	e24dd004 	sub	sp, sp, #4
 8010498:	e59b1008 	ldr	r1, [fp, #8]
 801049c:	e59ba00c 	ldr	sl, [fp, #12]
 80104a0:	e1a09000 	mov	r9, r0
 80104a4:	e3510000 	cmp	r1, #0
 80104a8:	0a000032 	beq	0x8010578
 80104ac:	e35a0000 	cmp	sl, #0
 80104b0:	1a000030 	bne	0x8010578
 80104b4:	e3530000 	cmp	r3, #0
 80104b8:	0a000063 	beq	0x801064c
 80104bc:	e1530001 	cmp	r3, r1
 80104c0:	2a000065 	bcs	0x801065c
 80104c4:	e1530821 	cmp	r3, r1, lsr #16
 80104c8:	e1a00001 	mov	r0, r1
 80104cc:	e3a07000 	mov	r7, #0
 80104d0:	e3a06008 	mov	r6, #8
 80104d4:	e3a05001 	mov	r5, #1
 80104d8:	e3a08000 	mov	r8, #0
 80104dc:	91a00820 	lsrls	r0, r0, #16
 80104e0:	93a07001 	movls	r7, #1
 80104e4:	e1530420 	cmp	r3, r0, lsr #8
 80104e8:	e1866207 	orr	r6, r6, r7, lsl #4
 80104ec:	91a00420 	lsrls	r0, r0, #8
 80104f0:	81a06207 	lslhi	r6, r7, #4
 80104f4:	e1530220 	cmp	r3, r0, lsr #4
 80104f8:	91a00220 	lsrls	r0, r0, #4
 80104fc:	93866004 	orrls	r6, r6, #4
 8010500:	e1530120 	cmp	r3, r0, lsr #2
 8010504:	91a00120 	lsrls	r0, r0, #2
 8010508:	93866002 	orrls	r6, r6, #2
 801050c:	e15300a0 	cmp	r3, r0, lsr #1
 8010510:	93866001 	orrls	r6, r6, #1
 8010514:	e2660020 	rsb	r0, r6, #32
 8010518:	e3560000 	cmp	r6, #0
 801051c:	03a0001f 	moveq	r0, #31
 8010520:	e2607020 	rsb	r7, r0, #32
 8010524:	e2506020 	subs	r6, r0, #32
 8010528:	e1a07731 	lsr	r7, r1, r7
 801052c:	e187701a 	orr	r7, r7, sl, lsl r0
 8010530:	51a07611 	lslpl	r7, r1, r6
 8010534:	e1a06011 	lsl	r6, r1, r0
 8010538:	e200001f 	and	r0, r0, #31
 801053c:	53a06000 	movpl	r6, #0
 8010540:	e1a04015 	lsl	r4, r5, r0
 8010544:	ea000002 	b	0x8010554
 8010548:	e1b070a7 	lsrs	r7, r7, #1
 801054c:	e1a06066 	rrx	r6, r6
 8010550:	e1a040a4 	lsr	r4, r4, #1
 8010554:	e0520006 	subs	r0, r2, r6
 8010558:	e0c35007 	sbc	r5, r3, r7
 801055c:	e3550000 	cmp	r5, #0
 8010560:	4afffff8 	bmi	0x8010548
 8010564:	e1848008 	orr	r8, r4, r8
 8010568:	0a000043 	beq	0x801067c
 801056c:	e1a02000 	mov	r2, r0
 8010570:	e1a03005 	mov	r3, r5
 8010574:	eafffff3 	b	0x8010548
 8010578:	e3a00000 	mov	r0, #0
 801057c:	e3530000 	cmp	r3, #0
 8010580:	0a00002b 	beq	0x8010634
 8010584:	e0527001 	subs	r7, r2, r1
 8010588:	e0d3700a 	sbcs	r7, r3, sl
 801058c:	3a000028 	bcc	0x8010634
 8010590:	e15a0823 	cmp	sl, r3, lsr #16
 8010594:	e1a07003 	mov	r7, r3
 8010598:	e3a05000 	mov	r5, #0
 801059c:	e3a06008 	mov	r6, #8
 80105a0:	91a07827 	lsrls	r7, r7, #16
 80105a4:	93a05001 	movls	r5, #1
 80105a8:	e15a0427 	cmp	sl, r7, lsr #8
 80105ac:	e1866205 	orr	r6, r6, r5, lsl #4
 80105b0:	91a07427 	lsrls	r7, r7, #8
 80105b4:	81a06205 	lslhi	r6, r5, #4
 80105b8:	e3a05001 	mov	r5, #1
 80105bc:	e15a0227 	cmp	sl, r7, lsr #4
 80105c0:	91a07227 	lsrls	r7, r7, #4
 80105c4:	93866004 	orrls	r6, r6, #4
 80105c8:	e15a0127 	cmp	sl, r7, lsr #2
 80105cc:	91a07127 	lsrls	r7, r7, #2
 80105d0:	93866002 	orrls	r6, r6, #2
 80105d4:	e15a00a7 	cmp	sl, r7, lsr #1
 80105d8:	93866001 	orrls	r6, r6, #1
 80105dc:	e2667020 	rsb	r7, r6, #32
 80105e0:	e1a05615 	lsl	r5, r5, r6
 80105e4:	e1a07731 	lsr	r7, r1, r7
 80105e8:	e187461a 	orr	r4, r7, sl, lsl r6
 80105ec:	e2567020 	subs	r7, r6, #32
 80105f0:	51a04711 	lslpl	r4, r1, r7
 80105f4:	e1a07611 	lsl	r7, r1, r6
 80105f8:	53a07000 	movpl	r7, #0
 80105fc:	ea000002 	b	0x801060c
 8010600:	e1b040a4 	lsrs	r4, r4, #1
 8010604:	e1a07067 	rrx	r7, r7
 8010608:	e1a050a5 	lsr	r5, r5, #1
 801060c:	e0526007 	subs	r6, r2, r7
 8010610:	e0d3c004 	sbcs	ip, r3, r4
 8010614:	4afffff9 	bmi	0x8010600
 8010618:	e0562001 	subs	r2, r6, r1
 801061c:	e1850000 	orr	r0, r5, r0
 8010620:	e0dc200a 	sbcs	r2, ip, sl
 8010624:	3a000006 	bcc	0x8010644
 8010628:	e1a02006 	mov	r2, r6
 801062c:	e1a0300c 	mov	r3, ip
 8010630:	eafffff2 	b	0x8010600
 8010634:	e3a08000 	mov	r8, #0
 8010638:	e1a06002 	mov	r6, r2
 801063c:	e1a0c003 	mov	ip, r3
 8010640:	ea000012 	b	0x8010690
 8010644:	e3a08000 	mov	r8, #0
 8010648:	ea000010 	b	0x8010690
 801064c:	e1a00002 	mov	r0, r2
 8010650:	eb00028b 	bl	0x8011084
 8010654:	e1a06001 	mov	r6, r1
 8010658:	ea00000a 	b	0x8010688
 801065c:	1a000011 	bne	0x80106a8
 8010660:	e1a00002 	mov	r0, r2
 8010664:	e1a01003 	mov	r1, r3
 8010668:	eb000285 	bl	0x8011084
 801066c:	e1a06001 	mov	r6, r1
 8010670:	e3a0c000 	mov	ip, #0
 8010674:	e3a08001 	mov	r8, #1
 8010678:	ea000004 	b	0x8010690
 801067c:	eb000280 	bl	0x8011084
 8010680:	e1a06001 	mov	r6, r1
 8010684:	e1800008 	orr	r0, r0, r8
 8010688:	e3a08000 	mov	r8, #0
 801068c:	e3a0c000 	mov	ip, #0
 8010690:	e8890101 	stm	r9, {r0, r8}
 8010694:	e5896008 	str	r6, [r9, #8]
 8010698:	e589c00c 	str	ip, [r9, #12]
 801069c:	e24bd01c 	sub	sp, fp, #28
 80106a0:	e8bd4ff0 	pop	{r4, r5, r6, r7, r8, r9, sl, fp, lr}
 80106a4:	e12fff1e 	bx	lr
 80106a8:	e1a00003 	mov	r0, r3
 80106ac:	e1a04002 	mov	r4, r2
 80106b0:	e1a06001 	mov	r6, r1
 80106b4:	eb000272 	bl	0x8011084
 80106b8:	e1a0c001 	mov	ip, r1
 80106bc:	e1a08000 	mov	r8, r0
 80106c0:	e1a01006 	mov	r1, r6
 80106c4:	e3560801 	cmp	r6, #65536	@ 0x10000
 80106c8:	2a00000e 	bcs	0x8010708
 80106cc:	e1a0080c 	lsl	r0, ip, #16
 80106d0:	e1a06001 	mov	r6, r1
 80106d4:	e1800824 	orr	r0, r0, r4, lsr #16
 80106d8:	eb000269 	bl	0x8011084
 80106dc:	e1a05000 	mov	r5, r0
 80106e0:	e3a000ff 	mov	r0, #255	@ 0xff
 80106e4:	e3800cff 	orr	r0, r0, #65280	@ 0xff00
 80106e8:	e0040000 	and	r0, r4, r0
 80106ec:	e1800801 	orr	r0, r0, r1, lsl #16
 80106f0:	e1a01006 	mov	r1, r6
 80106f4:	eb000262 	bl	0x8011084
 80106f8:	e1a06001 	mov	r6, r1
 80106fc:	e1800805 	orr	r0, r0, r5, lsl #16
 8010700:	e1888825 	orr	r8, r8, r5, lsr #16
 8010704:	eaffffe0 	b	0x801068c
 8010708:	e0540001 	subs	r0, r4, r1
 801070c:	e1a06004 	mov	r6, r4
 8010710:	e0dc000a 	sbcs	r0, ip, sl
 8010714:	2a000001 	bcs	0x8010720
 8010718:	e3a00000 	mov	r0, #0
 801071c:	eaffffdb 	b	0x8010690
 8010720:	e1a00f8a 	lsl	r0, sl, #31
 8010724:	e1a03f81 	lsl	r3, r1, #31
 8010728:	e3a07102 	mov	r7, #-2147483648	@ 0x80000000
 801072c:	e3a04000 	mov	r4, #0
 8010730:	e18020a1 	orr	r2, r0, r1, lsr #1
 8010734:	ea000002 	b	0x8010744
 8010738:	e1b020a2 	lsrs	r2, r2, #1
 801073c:	e1a03063 	rrx	r3, r3
 8010740:	e1a070a7 	lsr	r7, r7, #1
 8010744:	e0560003 	subs	r0, r6, r3
 8010748:	e0cc5002 	sbc	r5, ip, r2
 801074c:	e3550000 	cmp	r5, #0
 8010750:	4afffff8 	bmi	0x8010738
 8010754:	e1874004 	orr	r4, r7, r4
 8010758:	0a000002 	beq	0x8010768
 801075c:	e1a06000 	mov	r6, r0
 8010760:	e1a0c005 	mov	ip, r5
 8010764:	eafffff3 	b	0x8010738
 8010768:	eb000245 	bl	0x8011084
 801076c:	e1a06001 	mov	r6, r1
 8010770:	e1800004 	orr	r0, r0, r4
 8010774:	eaffffc4 	b	0x801068c
 8010778:	e1a03000 	mov	r3, r0
 801077c:	e3a00000 	mov	r0, #0
 8010780:	e1530001 	cmp	r3, r1
 8010784:	3a00003b 	bcc	0x8010878
 8010788:	e92d4830 	push	{r4, r5, fp, lr}
 801078c:	e28db008 	add	fp, sp, #8
 8010790:	e1510823 	cmp	r1, r3, lsr #16
 8010794:	e1a00003 	mov	r0, r3
 8010798:	e3a02000 	mov	r2, #0
 801079c:	e3a04008 	mov	r4, #8
 80107a0:	91a00820 	lsrls	r0, r0, #16
 80107a4:	93a02001 	movls	r2, #1
 80107a8:	e1510420 	cmp	r1, r0, lsr #8
 80107ac:	e184e202 	orr	lr, r4, r2, lsl #4
 80107b0:	91a00420 	lsrls	r0, r0, #8
 80107b4:	81a0e202 	lslhi	lr, r2, #4
 80107b8:	e1510220 	cmp	r1, r0, lsr #4
 80107bc:	91a00220 	lsrls	r0, r0, #4
 80107c0:	938ee004 	orrls	lr, lr, #4
 80107c4:	e1510120 	cmp	r1, r0, lsr #2
 80107c8:	91a00120 	lsrls	r0, r0, #2
 80107cc:	938ee002 	orrls	lr, lr, #2
 80107d0:	e15100a0 	cmp	r1, r0, lsr #1
 80107d4:	e3a00001 	mov	r0, #1
 80107d8:	938ee001 	orrls	lr, lr, #1
 80107dc:	e0433e11 	sub	r3, r3, r1, lsl lr
 80107e0:	e1a00e10 	lsl	r0, r0, lr
 80107e4:	e1530001 	cmp	r3, r1
 80107e8:	3a000021 	bcc	0x8010874
 80107ec:	e1a0ce11 	lsl	ip, r1, lr
 80107f0:	e37c0001 	cmn	ip, #1
 80107f4:	da00000b 	ble	0x8010828
 80107f8:	e1a01000 	mov	r1, r0
 80107fc:	e2411001 	sub	r1, r1, #1
 8010800:	e35e0000 	cmp	lr, #0
 8010804:	0a000015 	beq	0x8010860
 8010808:	e1a0400e 	mov	r4, lr
 801080c:	e06c2083 	rsb	r2, ip, r3, lsl #1
 8010810:	e2922001 	adds	r2, r2, #1
 8010814:	41a02083 	lslmi	r2, r3, #1
 8010818:	e2544001 	subs	r4, r4, #1
 801081c:	e1a03002 	mov	r3, r2
 8010820:	1afffff9 	bne	0x801080c
 8010824:	ea00000e 	b	0x8010864
 8010828:	e04350ac 	sub	r5, r3, ip, lsr #1
 801082c:	e24ee001 	sub	lr, lr, #1
 8010830:	e3a04001 	mov	r4, #1
 8010834:	e3750001 	cmn	r5, #1
 8010838:	e20e201f 	and	r2, lr, #31
 801083c:	c1a03005 	movgt	r3, r5
 8010840:	c1800214 	orrgt	r0, r0, r4, lsl r2
 8010844:	e1530001 	cmp	r3, r1
 8010848:	3a000009 	bcc	0x8010874
 801084c:	e1a01214 	lsl	r1, r4, r2
 8010850:	e1a0c0ac 	lsr	ip, ip, #1
 8010854:	e2411001 	sub	r1, r1, #1
 8010858:	e35e0000 	cmp	lr, #0
 801085c:	1affffe9 	bne	0x8010808
 8010860:	e1a02003 	mov	r2, r3
 8010864:	e20e301f 	and	r3, lr, #31
 8010868:	e0021001 	and	r1, r2, r1
 801086c:	e1a03332 	lsr	r3, r2, r3
 8010870:	e1810000 	orr	r0, r1, r0
 8010874:	e8bd4830 	pop	{r4, r5, fp, lr}
 8010878:	e1a01003 	mov	r1, r3
 801087c:	e12fff1e 	bx	lr
 8010880:	e3500801 	cmp	r0, #65536	@ 0x10000
 8010884:	e3a01010 	mov	r1, #16
 8010888:	e3e02001 	mvn	r2, #1
 801088c:	21a00820 	lsrcs	r0, r0, #16
 8010890:	33a01020 	movcc	r1, #32
 8010894:	e3500c01 	cmp	r0, #256	@ 0x100
 8010898:	21a00420 	lsrcs	r0, r0, #8
 801089c:	22411008 	subcs	r1, r1, #8
 80108a0:	e3500010 	cmp	r0, #16
 80108a4:	21a00220 	lsrcs	r0, r0, #4
 80108a8:	22411004 	subcs	r1, r1, #4
 80108ac:	e3500004 	cmp	r0, #4
 80108b0:	21a00120 	lsrcs	r0, r0, #2
 80108b4:	22411002 	subcs	r1, r1, #2
 80108b8:	e3500002 	cmp	r0, #2
 80108bc:	32602000 	rsbcc	r2, r0, #0
 80108c0:	e0820001 	add	r0, r2, r1
 80108c4:	e12fff1e 	bx	lr
 80108c8:	e92d4830 	push	{r4, r5, fp, lr}
 80108cc:	e28db008 	add	fp, sp, #8
 80108d0:	e1a04001 	mov	r4, r1
 80108d4:	e1a05000 	mov	r5, r0
 80108d8:	e3500000 	cmp	r0, #0
 80108dc:	42650000 	rsbmi	r0, r5, #0
 80108e0:	e3540000 	cmp	r4, #0
 80108e4:	e1a01004 	mov	r1, r4
 80108e8:	42641000 	rsbmi	r1, r4, #0
 80108ec:	eb00035b 	bl	0x8011660
 80108f0:	e0341005 	eors	r1, r4, r5
 80108f4:	42600000 	rsbmi	r0, r0, #0
 80108f8:	e8bd4830 	pop	{r4, r5, fp, lr}
 80108fc:	e12fff1e 	bx	lr
 8010900:	e59dc000 	ldr	ip, [sp]
 8010904:	e58dc000 	str	ip, [sp]
 8010908:	ea00035d 	b	0x8011684
 801090c:	e3500000 	cmp	r0, #0
 8010910:	0a000005 	beq	0x801092c
 8010914:	e92d4800 	push	{fp, lr}
 8010918:	e1a0b00d 	mov	fp, sp
 801091c:	eb0001d4 	bl	0x8011074
 8010920:	e220001f 	eor	r0, r0, #31
 8010924:	e8bd4800 	pop	{fp, lr}
 8010928:	e12fff1e 	bx	lr
 801092c:	e7ffdefe 	udf	#65006	@ 0xfdee
 8010930:	e3500001 	cmp	r0, #1
 8010934:	ba000005 	blt	0x8010950
 8010938:	e92d4800 	push	{fp, lr}
 801093c:	e1a0b00d 	mov	fp, sp
 8010940:	eb0001cb 	bl	0x8011074
 8010944:	e220001f 	eor	r0, r0, #31
 8010948:	e8bd4800 	pop	{fp, lr}
 801094c:	e12fff1e 	bx	lr
 8010950:	e7ffdefe 	udf	#65006	@ 0xfdee
 8010954:	e12fff1e 	bx	lr
 8010958:	e92d4ff0 	push	{r4, r5, r6, r7, r8, r9, sl, fp, lr}
 801095c:	e28db01c 	add	fp, sp, #28
 8010960:	e0403001 	sub	r3, r0, r1
 8010964:	e1530002 	cmp	r3, r2
 8010968:	2a00002a 	bcs	0x8010a18
 801096c:	e0814002 	add	r4, r1, r2
 8010970:	e0803002 	add	r3, r0, r2
 8010974:	e3520010 	cmp	r2, #16
 8010978:	3a00001d 	bcc	0x80109f4
 801097c:	e3c3c003 	bic	ip, r3, #3
 8010980:	e2035003 	and	r5, r3, #3
 8010984:	e265e000 	rsb	lr, r5, #0
 8010988:	e15c0003 	cmp	ip, r3
 801098c:	2a000005 	bcs	0x80109a8
 8010990:	e0816002 	add	r6, r1, r2
 8010994:	e2466001 	sub	r6, r6, #1
 8010998:	e4567001 	ldrb	r7, [r6], #-1
 801099c:	e5637001 	strb	r7, [r3, #-1]!
 80109a0:	e15c0003 	cmp	ip, r3
 80109a4:	3afffffb 	bcc	0x8010998
 80109a8:	e0422005 	sub	r2, r2, r5
 80109ac:	e084e00e 	add	lr, r4, lr
 80109b0:	e3c23003 	bic	r3, r2, #3
 80109b4:	e31e0003 	tst	lr, #3
 80109b8:	e04c4003 	sub	r4, ip, r3
 80109bc:	e2633000 	rsb	r3, r3, #0
 80109c0:	1a00003f 	bne	0x8010ac4
 80109c4:	e154000c 	cmp	r4, ip
 80109c8:	2a000006 	bcs	0x80109e8
 80109cc:	e0821001 	add	r1, r2, r1
 80109d0:	e1a0500c 	mov	r5, ip
 80109d4:	e2411004 	sub	r1, r1, #4
 80109d8:	e4116004 	ldr	r6, [r1], #-4
 80109dc:	e5256004 	str	r6, [r5, #-4]!
 80109e0:	e1540005 	cmp	r4, r5
 80109e4:	3afffffb 	bcc	0x80109d8
 80109e8:	e08e4003 	add	r4, lr, r3
 80109ec:	e08c3003 	add	r3, ip, r3
 80109f0:	e2022003 	and	r2, r2, #3
 80109f4:	e0431002 	sub	r1, r3, r2
 80109f8:	e1510003 	cmp	r1, r3
 80109fc:	2a00002e 	bcs	0x8010abc
 8010a00:	e2442001 	sub	r2, r4, #1
 8010a04:	e4527001 	ldrb	r7, [r2], #-1
 8010a08:	e5637001 	strb	r7, [r3, #-1]!
 8010a0c:	e1510003 	cmp	r1, r3
 8010a10:	3afffffb 	bcc	0x8010a04
 8010a14:	ea000028 	b	0x8010abc
 8010a18:	e3520010 	cmp	r2, #16
 8010a1c:	3a00001e 	bcc	0x8010a9c
 8010a20:	e2603000 	rsb	r3, r0, #0
 8010a24:	e2037003 	and	r7, r3, #3
 8010a28:	e080c007 	add	ip, r0, r7
 8010a2c:	e15c0000 	cmp	ip, r0
 8010a30:	9a000006 	bls	0x8010a50
 8010a34:	e1a03007 	mov	r3, r7
 8010a38:	e1a06000 	mov	r6, r0
 8010a3c:	e1a05001 	mov	r5, r1
 8010a40:	e4d54001 	ldrb	r4, [r5], #1
 8010a44:	e2533001 	subs	r3, r3, #1
 8010a48:	e4c64001 	strb	r4, [r6], #1
 8010a4c:	1afffffb 	bne	0x8010a40
 8010a50:	e0422007 	sub	r2, r2, r7
 8010a54:	e0816007 	add	r6, r1, r7
 8010a58:	e3c24003 	bic	r4, r2, #3
 8010a5c:	e3160003 	tst	r6, #3
 8010a60:	e08c3004 	add	r3, ip, r4
 8010a64:	1a000029 	bne	0x8010b10
 8010a68:	e15c0003 	cmp	ip, r3
 8010a6c:	2a000004 	bcs	0x8010a84
 8010a70:	e1a01006 	mov	r1, r6
 8010a74:	e4917004 	ldr	r7, [r1], #4
 8010a78:	e48c7004 	str	r7, [ip], #4
 8010a7c:	e15c0003 	cmp	ip, r3
 8010a80:	3afffffb 	bcc	0x8010a74
 8010a84:	e0861004 	add	r1, r6, r4
 8010a88:	e2022003 	and	r2, r2, #3
 8010a8c:	e0837002 	add	r7, r3, r2
 8010a90:	e1530007 	cmp	r3, r7
 8010a94:	3a000004 	bcc	0x8010aac
 8010a98:	ea000007 	b	0x8010abc
 8010a9c:	e1a03000 	mov	r3, r0
 8010aa0:	e0837002 	add	r7, r3, r2
 8010aa4:	e1530007 	cmp	r3, r7
 8010aa8:	2a000003 	bcs	0x8010abc
 8010aac:	e4d17001 	ldrb	r7, [r1], #1
 8010ab0:	e2522001 	subs	r2, r2, #1
 8010ab4:	e4c37001 	strb	r7, [r3], #1
 8010ab8:	1afffffb 	bne	0x8010aac
 8010abc:	e8bd4ff0 	pop	{r4, r5, r6, r7, r8, r9, sl, fp, lr}
 8010ac0:	e12fff1e 	bx	lr
 8010ac4:	e154000c 	cmp	r4, ip
 8010ac8:	2affffc6 	bcs	0x80109e8
 8010acc:	e3a01018 	mov	r1, #24
 8010ad0:	e3ce7003 	bic	r7, lr, #3
 8010ad4:	e001818e 	and	r8, r1, lr, lsl #3
 8010ad8:	e1a0118e 	lsl	r1, lr, #3
 8010adc:	e2475004 	sub	r5, r7, #4
 8010ae0:	e2611000 	rsb	r1, r1, #0
 8010ae4:	e2019018 	and	r9, r1, #24
 8010ae8:	e5971000 	ldr	r1, [r7]
 8010aec:	e1a0700c 	mov	r7, ip
 8010af0:	e415a004 	ldr	sl, [r5], #-4
 8010af4:	e1a0683a 	lsr	r6, sl, r8
 8010af8:	e1861911 	orr	r1, r6, r1, lsl r9
 8010afc:	e5271004 	str	r1, [r7, #-4]!
 8010b00:	e1a0100a 	mov	r1, sl
 8010b04:	e1540007 	cmp	r4, r7
 8010b08:	3afffff8 	bcc	0x8010af0
 8010b0c:	eaffffb5 	b	0x80109e8
 8010b10:	e15c0003 	cmp	ip, r3
 8010b14:	2affffda 	bcs	0x8010a84
 8010b18:	e3c67003 	bic	r7, r6, #3
 8010b1c:	e3a01018 	mov	r1, #24
 8010b20:	e2875004 	add	r5, r7, #4
 8010b24:	e5977000 	ldr	r7, [r7]
 8010b28:	e001e186 	and	lr, r1, r6, lsl #3
 8010b2c:	e1a01186 	lsl	r1, r6, #3
 8010b30:	e2611000 	rsb	r1, r1, #0
 8010b34:	e2018018 	and	r8, r1, #24
 8010b38:	e4959004 	ldr	r9, [r5], #4
 8010b3c:	e1a01819 	lsl	r1, r9, r8
 8010b40:	e1811e37 	orr	r1, r1, r7, lsr lr
 8010b44:	e1a07009 	mov	r7, r9
 8010b48:	e48c1004 	str	r1, [ip], #4
 8010b4c:	e15c0003 	cmp	ip, r3
 8010b50:	3afffff8 	bcc	0x8010b38
 8010b54:	eaffffca 	b	0x8010a84
 8010b58:	e1a0c000 	mov	ip, r0
 8010b5c:	e3a00000 	mov	r0, #0
 8010b60:	e3520000 	cmp	r2, #0
 8010b64:	012fff1e 	bxeq	lr
 8010b68:	e92d4800 	push	{fp, lr}
 8010b6c:	e1a0b00d 	mov	fp, sp
 8010b70:	e4dce001 	ldrb	lr, [ip], #1
 8010b74:	e4d13001 	ldrb	r3, [r1], #1
 8010b78:	e15e0003 	cmp	lr, r3
 8010b7c:	1a000003 	bne	0x8010b90
 8010b80:	e2522001 	subs	r2, r2, #1
 8010b84:	1afffff9 	bne	0x8010b70
 8010b88:	e8bd4800 	pop	{fp, lr}
 8010b8c:	e12fff1e 	bx	lr
 8010b90:	e04e0003 	sub	r0, lr, r3
 8010b94:	e8bd4800 	pop	{fp, lr}
 8010b98:	e12fff1e 	bx	lr
 8010b9c:	e92d4010 	push	{r4, lr}
 8010ba0:	e24dd010 	sub	sp, sp, #16
 8010ba4:	e28d4008 	add	r4, sp, #8
 8010ba8:	e58d4000 	str	r4, [sp]
 8010bac:	ebffff53 	bl	0x8010900
 8010bb0:	e59d2008 	ldr	r2, [sp, #8]
 8010bb4:	e59d300c 	ldr	r3, [sp, #12]
 8010bb8:	e28dd010 	add	sp, sp, #16
 8010bbc:	e8bd8010 	pop	{r4, pc}
 8010bc0:	e7ffdefe 	udf	#65006	@ 0xfdee
 8010bc4:	ea0003da 	b	0x8011b34
 8010bc8:	e3a0c5fe 	mov	ip, #1065353216	@ 0x3f800000
 8010bcc:	e3c02102 	bic	r2, r0, #-2147483648	@ 0x80000000
 8010bd0:	e38cc101 	orr	ip, ip, #1073741824	@ 0x40000000
 8010bd4:	e24215e2 	sub	r1, r2, #947912704	@ 0x38800000
 8010bd8:	e082300c 	add	r3, r2, ip
 8010bdc:	e2833439 	add	r3, r3, #956301312	@ 0x39000000
 8010be0:	e1510003 	cmp	r1, r3
 8010be4:	2a00000b 	bcs	0x8010c18
 8010be8:	e3a010ff 	mov	r1, #255	@ 0xff
 8010bec:	e1a036a2 	lsr	r3, r2, #13
 8010bf0:	e3811c1f 	orr	r1, r1, #7936	@ 0x1f00
 8010bf4:	e0021001 	and	r1, r2, r1
 8010bf8:	e3510a01 	cmp	r1, #4096	@ 0x1000
 8010bfc:	9a00000f 	bls	0x8010c40
 8010c00:	e2831001 	add	r1, r3, #1
 8010c04:	e2811901 	add	r1, r1, #16384	@ 0x4000
 8010c08:	e3a02902 	mov	r2, #32768	@ 0x8000
 8010c0c:	e0020820 	and	r0, r2, r0, lsr #16
 8010c10:	e1810000 	orr	r0, r1, r0
 8010c14:	e12fff1e 	bx	lr
 8010c18:	e152000c 	cmp	r2, ip
 8010c1c:	9a00000f 	bls	0x8010c60
 8010c20:	e3a010ff 	mov	r1, #255	@ 0xff
 8010c24:	e3811c01 	orr	r1, r1, #256	@ 0x100
 8010c28:	e00116a2 	and	r1, r1, r2, lsr #13
 8010c2c:	e3811c7e 	orr	r1, r1, #32256	@ 0x7e00
 8010c30:	e3a02902 	mov	r2, #32768	@ 0x8000
 8010c34:	e0020820 	and	r0, r2, r0, lsr #16
 8010c38:	e1810000 	orr	r0, r1, r0
 8010c3c:	e12fff1e 	bx	lr
 8010c40:	e3a01901 	mov	r1, #16384	@ 0x4000
 8010c44:	e08116a2 	add	r1, r1, r2, lsr #13
 8010c48:	02032001 	andeq	r2, r3, #1
 8010c4c:	00811002 	addeq	r1, r1, r2
 8010c50:	e3a02902 	mov	r2, #32768	@ 0x8000
 8010c54:	e0020820 	and	r0, r2, r0, lsr #16
 8010c58:	e1810000 	orr	r0, r1, r0
 8010c5c:	e12fff1e 	bx	lr
 8010c60:	e59fc084 	ldr	ip, [pc, #132]	@ 0x8010cec
 8010c64:	e3a01b1f 	mov	r1, #31744	@ 0x7c00
 8010c68:	e38c3447 	orr	r3, ip, #1191182336	@ 0x47000000
 8010c6c:	e1520003 	cmp	r2, r3
 8010c70:	8affffe4 	bhi	0x8010c08
 8010c74:	e3a01071 	mov	r1, #113	@ 0x71
 8010c78:	e0413ba2 	sub	r3, r1, r2, lsr #23
 8010c7c:	e3a01000 	mov	r1, #0
 8010c80:	e3530017 	cmp	r3, #23
 8010c84:	8affffdf 	bhi	0x8010c08
 8010c88:	e1a01ba2 	lsr	r1, r2, #23
 8010c8c:	e000200c 	and	r2, r0, ip
 8010c90:	e281100f 	add	r1, r1, #15
 8010c94:	e382c502 	orr	ip, r2, #8388608	@ 0x800000
 8010c98:	e201101f 	and	r1, r1, #31
 8010c9c:	e1b0111c 	lsls	r1, ip, r1
 8010ca0:	e3a010ff 	mov	r1, #255	@ 0xff
 8010ca4:	e3811c1f 	orr	r1, r1, #7936	@ 0x1f00
 8010ca8:	e001233c 	and	r2, r1, ip, lsr r3
 8010cac:	e1a0133c 	lsr	r1, ip, r3
 8010cb0:	13822001 	orrne	r2, r2, #1
 8010cb4:	e1a016a1 	lsr	r1, r1, #13
 8010cb8:	e3520a01 	cmp	r2, #4096	@ 0x1000
 8010cbc:	9a000004 	bls	0x8010cd4
 8010cc0:	e2811001 	add	r1, r1, #1
 8010cc4:	e3a02902 	mov	r2, #32768	@ 0x8000
 8010cc8:	e0020820 	and	r0, r2, r0, lsr #16
 8010ccc:	e1810000 	orr	r0, r1, r0
 8010cd0:	e12fff1e 	bx	lr
 8010cd4:	02012001 	andeq	r2, r1, #1
 8010cd8:	00821001 	addeq	r1, r2, r1
 8010cdc:	e3a02902 	mov	r2, #32768	@ 0x8000
 8010ce0:	e0020820 	and	r0, r2, r0, lsr #16
 8010ce4:	e1810000 	orr	r0, r1, r0
 8010ce8:	e12fff1e 	bx	lr
 8010cec:	007fffff 	ldrshteq	pc, [pc], #-255	@ <UNPREDICTABLE>
 8010cf0:	ea000115 	b	0x801114c
 8010cf4:	ea00034b 	b	0x8011a28
 8010cf8:	ea00014c 	b	0x8011230
 8010cfc:	e92d4ff0 	push	{r4, r5, r6, r7, r8, r9, sl, fp, lr}
 8010d00:	e28db01c 	add	fp, sp, #28
 8010d04:	e24dd004 	sub	sp, sp, #4
 8010d08:	e3a020ff 	mov	r2, #255	@ 0xff
 8010d0c:	e59f81e0 	ldr	r8, [pc, #480]	@ 0x8010ef4
 8010d10:	e0213000 	eor	r3, r1, r0
 8010d14:	e0026ba0 	and	r6, r2, r0, lsr #23
 8010d18:	e0025ba1 	and	r5, r2, r1, lsr #23
 8010d1c:	e2034102 	and	r4, r3, #-2147483648	@ 0x80000000
 8010d20:	e24620ff 	sub	r2, r6, #255	@ 0xff
 8010d24:	e37200fe 	cmn	r2, #254	@ 0xfe
 8010d28:	224520ff 	subcs	r2, r5, #255	@ 0xff
 8010d2c:	23a07000 	movcs	r7, #0
 8010d30:	e001a008 	and	sl, r1, r8
 8010d34:	e0009008 	and	r9, r0, r8
 8010d38:	237200fe 	cmncs	r2, #254	@ 0xfe
 8010d3c:	2a000036 	bcs	0x8010e1c
 8010d40:	e3a035fe 	mov	r3, #1065353216	@ 0x3f800000
 8010d44:	e3c02102 	bic	r2, r0, #-2147483648	@ 0x80000000
 8010d48:	e3833101 	orr	r3, r3, #1073741824	@ 0x40000000
 8010d4c:	e1520003 	cmp	r2, r3
 8010d50:	9a000004 	bls	0x8010d68
 8010d54:	e3804501 	orr	r4, r0, #4194304	@ 0x400000
 8010d58:	e1a00004 	mov	r0, r4
 8010d5c:	e24bd01c 	sub	sp, fp, #28
 8010d60:	e8bd4ff0 	pop	{r4, r5, r6, r7, r8, r9, sl, fp, lr}
 8010d64:	e12fff1e 	bx	lr
 8010d68:	e3c10102 	bic	r0, r1, #-2147483648	@ 0x80000000
 8010d6c:	e1500003 	cmp	r0, r3
 8010d70:	9a000004 	bls	0x8010d88
 8010d74:	e3814501 	orr	r4, r1, #4194304	@ 0x400000
 8010d78:	e1a00004 	mov	r0, r4
 8010d7c:	e24bd01c 	sub	sp, fp, #28
 8010d80:	e8bd4ff0 	pop	{r4, r5, r6, r7, r8, r9, sl, fp, lr}
 8010d84:	e12fff1e 	bx	lr
 8010d88:	e1520003 	cmp	r2, r3
 8010d8c:	1a000006 	bne	0x8010dac
 8010d90:	e3500000 	cmp	r0, #0
 8010d94:	0a000008 	beq	0x8010dbc
 8010d98:	e1844003 	orr	r4, r4, r3
 8010d9c:	e1a00004 	mov	r0, r4
 8010da0:	e24bd01c 	sub	sp, fp, #28
 8010da4:	e8bd4ff0 	pop	{r4, r5, r6, r7, r8, r9, sl, fp, lr}
 8010da8:	e12fff1e 	bx	lr
 8010dac:	e1500003 	cmp	r0, r3
 8010db0:	1a000007 	bne	0x8010dd4
 8010db4:	e3520000 	cmp	r2, #0
 8010db8:	1afffff6 	bne	0x8010d98
 8010dbc:	e3a045ff 	mov	r4, #1069547520	@ 0x3fc00000
 8010dc0:	e3844101 	orr	r4, r4, #1073741824	@ 0x40000000
 8010dc4:	e1a00004 	mov	r0, r4
 8010dc8:	e24bd01c 	sub	sp, fp, #28
 8010dcc:	e8bd4ff0 	pop	{r4, r5, r6, r7, r8, r9, sl, fp, lr}
 8010dd0:	e12fff1e 	bx	lr
 8010dd4:	e3520000 	cmp	r2, #0
 8010dd8:	13500000 	cmpne	r0, #0
 8010ddc:	0affffdd 	beq	0x8010d58
 8010de0:	e3a07000 	mov	r7, #0
 8010de4:	e3520502 	cmp	r2, #8388608	@ 0x800000
 8010de8:	2a000005 	bcs	0x8010e04
 8010dec:	e58d0000 	str	r0, [sp]
 8010df0:	e1a00009 	mov	r0, r9
 8010df4:	ebfffd65 	bl	0x8010390
 8010df8:	e1a07000 	mov	r7, r0
 8010dfc:	e59d0000 	ldr	r0, [sp]
 8010e00:	e1a09001 	mov	r9, r1
 8010e04:	e1b00ba0 	lsrs	r0, r0, #23
 8010e08:	1a000003 	bne	0x8010e1c
 8010e0c:	e1a0000a 	mov	r0, sl
 8010e10:	ebfffd5e 	bl	0x8010390
 8010e14:	e1a0a001 	mov	sl, r1
 8010e18:	e0807007 	add	r7, r0, r7
 8010e1c:	e3a00102 	mov	r0, #-2147483648	@ 0x80000000
 8010e20:	e3893502 	orr	r3, r9, #8388608	@ 0x800000
 8010e24:	e180240a 	orr	r2, r0, sl, lsl #8
 8010e28:	e0810392 	umull	r0, r1, r2, r3
 8010e2c:	ebfffec8 	bl	0x8010954
 8010e30:	e0852006 	add	r2, r5, r6
 8010e34:	e3110502 	tst	r1, #8388608	@ 0x800000
 8010e38:	e0822007 	add	r2, r2, r7
 8010e3c:	1a000011 	bne	0x8010e88
 8010e40:	e1a01081 	lsl	r1, r1, #1
 8010e44:	e242207f 	sub	r2, r2, #127	@ 0x7f
 8010e48:	e1811fa0 	orr	r1, r1, r0, lsr #31
 8010e4c:	e1a00080 	lsl	r0, r0, #1
 8010e50:	e35200fe 	cmp	r2, #254	@ 0xfe
 8010e54:	ca00000e 	bgt	0x8010e94
 8010e58:	e3520001 	cmp	r2, #1
 8010e5c:	ba000012 	blt	0x8010eac
 8010e60:	e0011008 	and	r1, r1, r8
 8010e64:	e1811b82 	orr	r1, r1, r2, lsl #23
 8010e68:	e1814004 	orr	r4, r1, r4
 8010e6c:	e3500102 	cmp	r0, #-2147483648	@ 0x80000000
 8010e70:	9a000019 	bls	0x8010edc
 8010e74:	e2844001 	add	r4, r4, #1
 8010e78:	e1a00004 	mov	r0, r4
 8010e7c:	e24bd01c 	sub	sp, fp, #28
 8010e80:	e8bd4ff0 	pop	{r4, r5, r6, r7, r8, r9, sl, fp, lr}
 8010e84:	e12fff1e 	bx	lr
 8010e88:	e242207e 	sub	r2, r2, #126	@ 0x7e
 8010e8c:	e35200fe 	cmp	r2, #254	@ 0xfe
 8010e90:	dafffff0 	ble	0x8010e58
 8010e94:	e38405fe 	orr	r0, r4, #1065353216	@ 0x3f800000
 8010e98:	e3804101 	orr	r4, r0, #1073741824	@ 0x40000000
 8010e9c:	e1a00004 	mov	r0, r4
 8010ea0:	e24bd01c 	sub	sp, fp, #28
 8010ea4:	e8bd4ff0 	pop	{r4, r5, r6, r7, r8, r9, sl, fp, lr}
 8010ea8:	e12fff1e 	bx	lr
 8010eac:	e2623001 	rsb	r3, r2, #1
 8010eb0:	e353001f 	cmp	r3, #31
 8010eb4:	8affffa7 	bhi	0x8010d58
 8010eb8:	e282201f 	add	r2, r2, #31
 8010ebc:	e1b07210 	lsls	r7, r0, r2
 8010ec0:	e1a00330 	lsr	r0, r0, r3
 8010ec4:	e1800211 	orr	r0, r0, r1, lsl r2
 8010ec8:	e1a01331 	lsr	r1, r1, r3
 8010ecc:	13800001 	orrne	r0, r0, #1
 8010ed0:	e1814004 	orr	r4, r1, r4
 8010ed4:	e3500102 	cmp	r0, #-2147483648	@ 0x80000000
 8010ed8:	8affffe5 	bhi	0x8010e74
 8010edc:	02010001 	andeq	r0, r1, #1
 8010ee0:	00844000 	addeq	r4, r4, r0
 8010ee4:	e1a00004 	mov	r0, r4
 8010ee8:	e24bd01c 	sub	sp, fp, #28
 8010eec:	e8bd4ff0 	pop	{r4, r5, r6, r7, r8, r9, sl, fp, lr}
 8010ef0:	e12fff1e 	bx	lr
 8010ef4:	007fffff 	ldrshteq	pc, [pc], #-255	@ <UNPREDICTABLE>
 8010ef8:	e92d48f0 	push	{r4, r5, r6, r7, fp, lr}
 8010efc:	e28db010 	add	fp, sp, #16
 8010f00:	e3c13102 	bic	r3, r1, #-2147483648	@ 0x80000000
 8010f04:	e2832681 	add	r2, r3, #135266304	@ 0x8100000
 8010f08:	e282c20b 	add	ip, r2, #-1342177280	@ 0xb0000000
 8010f0c:	e283267f 	add	r2, r3, #133169152	@ 0x7f00000
 8010f10:	e2822103 	add	r2, r2, #-1073741824	@ 0xc0000000
 8010f14:	e152000c 	cmp	r2, ip
 8010f18:	2a000009 	bcs	0x8010f44
 8010f1c:	e1a02ea0 	lsr	r2, r0, #29
 8010f20:	e3c0020e 	bic	r0, r0, #-536870912	@ 0xe0000000
 8010f24:	e1823183 	orr	r3, r2, r3, lsl #3
 8010f28:	e3500201 	cmp	r0, #268435456	@ 0x10000000
 8010f2c:	9a000015 	bls	0x8010f88
 8010f30:	e283e105 	add	lr, r3, #1073741825	@ 0x40000001
 8010f34:	e2010102 	and	r0, r1, #-2147483648	@ 0x80000000
 8010f38:	e18e0000 	orr	r0, lr, r0
 8010f3c:	e8bd48f0 	pop	{r4, r5, r6, r7, fp, lr}
 8010f40:	e12fff1e 	bx	lr
 8010f44:	e3a0c6ff 	mov	ip, #267386880	@ 0xff00000
 8010f48:	e3a0e5fe 	mov	lr, #1065353216	@ 0x3f800000
 8010f4c:	e2702000 	rsbs	r2, r0, #0
 8010f50:	e38cc207 	orr	ip, ip, #1879048192	@ 0x70000000
 8010f54:	e38ee101 	orr	lr, lr, #1073741824	@ 0x40000000
 8010f58:	e0dc2003 	sbcs	r2, ip, r3
 8010f5c:	2a000010 	bcs	0x8010fa4
 8010f60:	e59f2108 	ldr	r2, [pc, #264]	@ 0x8011070
 8010f64:	e1a00ea0 	lsr	r0, r0, #29
 8010f68:	e1800183 	orr	r0, r0, r3, lsl #3
 8010f6c:	e0000002 	and	r0, r0, r2
 8010f70:	e08e0000 	add	r0, lr, r0
 8010f74:	e280e501 	add	lr, r0, #4194304	@ 0x400000
 8010f78:	e2010102 	and	r0, r1, #-2147483648	@ 0x80000000
 8010f7c:	e18e0000 	orr	r0, lr, r0
 8010f80:	e8bd48f0 	pop	{r4, r5, r6, r7, fp, lr}
 8010f84:	e12fff1e 	bx	lr
 8010f88:	e283e101 	add	lr, r3, #1073741824	@ 0x40000000
 8010f8c:	02030001 	andeq	r0, r3, #1
 8010f90:	008ee000 	addeq	lr, lr, r0
 8010f94:	e2010102 	and	r0, r1, #-2147483648	@ 0x80000000
 8010f98:	e18e0000 	orr	r0, lr, r0
 8010f9c:	e8bd48f0 	pop	{r4, r5, r6, r7, fp, lr}
 8010fa0:	e12fff1e 	bx	lr
 8010fa4:	e59f20bc 	ldr	r2, [pc, #188]	@ 0x8011068
 8010fa8:	e1530002 	cmp	r3, r2
 8010fac:	8affffe0 	bhi	0x8010f34
 8010fb0:	e3a02081 	mov	r2, #129	@ 0x81
 8010fb4:	e3a0e000 	mov	lr, #0
 8010fb8:	e3822c03 	orr	r2, r2, #768	@ 0x300
 8010fbc:	e042ca23 	sub	ip, r2, r3, lsr #20
 8010fc0:	e35c0034 	cmp	ip, #52	@ 0x34
 8010fc4:	8affffda 	bhi	0x8010f34
 8010fc8:	e59f209c 	ldr	r2, [pc, #156]	@ 0x801106c
 8010fcc:	e1a0ea23 	lsr	lr, r3, #20
 8010fd0:	e1a03c30 	lsr	r3, r0, ip
 8010fd4:	e26c4020 	rsb	r4, ip, #32
 8010fd8:	e25c7020 	subs	r7, ip, #32
 8010fdc:	e0012002 	and	r2, r1, r2
 8010fe0:	e3822601 	orr	r2, r2, #1048576	@ 0x100000
 8010fe4:	e1833412 	orr	r3, r3, r2, lsl r4
 8010fe8:	e24e4001 	sub	r4, lr, #1
 8010fec:	e204403f 	and	r4, r4, #63	@ 0x3f
 8010ff0:	51a03732 	lsrpl	r3, r2, r7
 8010ff4:	e2645020 	rsb	r5, r4, #32
 8010ff8:	e2546020 	subs	r6, r4, #32
 8010ffc:	e1a05530 	lsr	r5, r0, r5
 8011000:	e1855412 	orr	r5, r5, r2, lsl r4
 8011004:	e1a02c32 	lsr	r2, r2, ip
 8011008:	51a05610 	lslpl	r5, r0, r6
 801100c:	e1a00410 	lsl	r0, r0, r4
 8011010:	53a00000 	movpl	r0, #0
 8011014:	e1900005 	orrs	r0, r0, r5
 8011018:	13a00001 	movne	r0, #1
 801101c:	e3570000 	cmp	r7, #0
 8011020:	e1830000 	orr	r0, r3, r0
 8011024:	e1a03ea3 	lsr	r3, r3, #29
 8011028:	53a02000 	movpl	r2, #0
 801102c:	e3c0020e 	bic	r0, r0, #-536870912	@ 0xe0000000
 8011030:	e183e182 	orr	lr, r3, r2, lsl #3
 8011034:	e3500201 	cmp	r0, #268435456	@ 0x10000000
 8011038:	9a000004 	bls	0x8011050
 801103c:	e28ee001 	add	lr, lr, #1
 8011040:	e2010102 	and	r0, r1, #-2147483648	@ 0x80000000
 8011044:	e18e0000 	orr	r0, lr, r0
 8011048:	e8bd48f0 	pop	{r4, r5, r6, r7, fp, lr}
 801104c:	e12fff1e 	bx	lr
 8011050:	020e0001 	andeq	r0, lr, #1
 8011054:	0080e00e 	addeq	lr, r0, lr
 8011058:	e2010102 	and	r0, r1, #-2147483648	@ 0x80000000
 801105c:	e18e0000 	orr	r0, lr, r0
 8011060:	e8bd48f0 	pop	{r4, r5, r6, r7, fp, lr}
 8011064:	e12fff1e 	bx	lr
 8011068:	47efffff 			@ <UNDEFINED> instruction: 0x47efffff
 801106c:	000fffff 	strdeq	pc, [pc], -pc	@ <UNPREDICTABLE>
 8011070:	003fffff 	ldrshteq	pc, [pc], -pc	@ <UNPREDICTABLE>
 8011074:	eafffe01 	b	0x8010880
 8011078:	eafffe12 	b	0x80108c8
 801107c:	ea000177 	b	0x8011660
 8011080:	ea000177 	b	0x8011664
 8011084:	e52de004 	push	{lr}		@ (str lr, [sp, #-4]!)
 8011088:	e24dd004 	sub	sp, sp, #4
 801108c:	e1a0200d 	mov	r2, sp
 8011090:	ebfffffa 	bl	0x8011080
 8011094:	e59d1000 	ldr	r1, [sp]
 8011098:	e28dd004 	add	sp, sp, #4
 801109c:	e49df004 	pop	{pc}		@ (ldr pc, [sp], #4)
 80110a0:	e7ffdefe 	udf	#65006	@ 0xfdee
 80110a4:	e3a025fe 	mov	r2, #1065353216	@ 0x3f800000
 80110a8:	e3c11102 	bic	r1, r1, #-2147483648	@ 0x80000000
 80110ac:	e3c00102 	bic	r0, r0, #-2147483648	@ 0x80000000
 80110b0:	e3a03000 	mov	r3, #0
 80110b4:	e3822101 	orr	r2, r2, #1073741824	@ 0x40000000
 80110b8:	e1510002 	cmp	r1, r2
 80110bc:	e3a01000 	mov	r1, #0
 80110c0:	83a01001 	movhi	r1, #1
 80110c4:	e1500002 	cmp	r0, r2
 80110c8:	83a03001 	movhi	r3, #1
 80110cc:	e1830001 	orr	r0, r3, r1
 80110d0:	e12fff1e 	bx	lr
 80110d4:	e92d4800 	push	{fp, lr}
 80110d8:	e1a0b00d 	mov	fp, sp
 80110dc:	e3a0e5fe 	mov	lr, #1065353216	@ 0x3f800000
 80110e0:	e3c03102 	bic	r3, r0, #-2147483648	@ 0x80000000
 80110e4:	e1a0c000 	mov	ip, r0
 80110e8:	e3a00000 	mov	r0, #0
 80110ec:	e38ee101 	orr	lr, lr, #1073741824	@ 0x40000000
 80110f0:	e153000e 	cmp	r3, lr
 80110f4:	93c12102 	bicls	r2, r1, #-2147483648	@ 0x80000000
 80110f8:	9152000e 	cmpls	r2, lr
 80110fc:	9a000001 	bls	0x8011108
 8011100:	e8bd4800 	pop	{fp, lr}
 8011104:	e12fff1e 	bx	lr
 8011108:	e1920003 	orrs	r0, r2, r3
 801110c:	03a00001 	moveq	r0, #1
 8011110:	08bd4800 	popeq	{fp, lr}
 8011114:	012fff1e 	bxeq	lr
 8011118:	e001000c 	and	r0, r1, ip
 801111c:	e3700001 	cmn	r0, #1
 8011120:	da000004 	ble	0x8011138
 8011124:	e3a00000 	mov	r0, #0
 8011128:	e15c0001 	cmp	ip, r1
 801112c:	a3a00001 	movge	r0, #1
 8011130:	e8bd4800 	pop	{fp, lr}
 8011134:	e12fff1e 	bx	lr
 8011138:	e3a00000 	mov	r0, #0
 801113c:	e15c0001 	cmp	ip, r1
 8011140:	d3a00001 	movle	r0, #1
 8011144:	e8bd4800 	pop	{fp, lr}
 8011148:	e12fff1e 	bx	lr
 801114c:	e92d4800 	push	{fp, lr}
 8011150:	e1a0b00d 	mov	fp, sp
 8011154:	e3a0c5fe 	mov	ip, #1065353216	@ 0x3f800000
 8011158:	e3c03102 	bic	r3, r0, #-2147483648	@ 0x80000000
 801115c:	e1a0e000 	mov	lr, r0
 8011160:	e3a00000 	mov	r0, #0
 8011164:	e38cc101 	orr	ip, ip, #1073741824	@ 0x40000000
 8011168:	e153000c 	cmp	r3, ip
 801116c:	93c12102 	bicls	r2, r1, #-2147483648	@ 0x80000000
 8011170:	9152000c 	cmpls	r2, ip
 8011174:	9a000001 	bls	0x8011180
 8011178:	e8bd4800 	pop	{fp, lr}
 801117c:	e12fff1e 	bx	lr
 8011180:	e1922003 	orrs	r2, r2, r3
 8011184:	0afffffb 	beq	0x8011178
 8011188:	e001000e 	and	r0, r1, lr
 801118c:	e3700001 	cmn	r0, #1
 8011190:	da000004 	ble	0x80111a8
 8011194:	e3a00000 	mov	r0, #0
 8011198:	e15e0001 	cmp	lr, r1
 801119c:	b3a00001 	movlt	r0, #1
 80111a0:	e8bd4800 	pop	{fp, lr}
 80111a4:	e12fff1e 	bx	lr
 80111a8:	e3a00000 	mov	r0, #0
 80111ac:	e15e0001 	cmp	lr, r1
 80111b0:	c3a00001 	movgt	r0, #1
 80111b4:	e8bd4800 	pop	{fp, lr}
 80111b8:	e12fff1e 	bx	lr
 80111bc:	e92d4800 	push	{fp, lr}
 80111c0:	e1a0b00d 	mov	fp, sp
 80111c4:	e3a0c5fe 	mov	ip, #1065353216	@ 0x3f800000
 80111c8:	e3c03102 	bic	r3, r0, #-2147483648	@ 0x80000000
 80111cc:	e1a0e000 	mov	lr, r0
 80111d0:	e3a00000 	mov	r0, #0
 80111d4:	e38cc101 	orr	ip, ip, #1073741824	@ 0x40000000
 80111d8:	e153000c 	cmp	r3, ip
 80111dc:	93c12102 	bicls	r2, r1, #-2147483648	@ 0x80000000
 80111e0:	9152000c 	cmpls	r2, ip
 80111e4:	9a000001 	bls	0x80111f0
 80111e8:	e8bd4800 	pop	{fp, lr}
 80111ec:	e12fff1e 	bx	lr
 80111f0:	e1922003 	orrs	r2, r2, r3
 80111f4:	0afffffb 	beq	0x80111e8
 80111f8:	e001000e 	and	r0, r1, lr
 80111fc:	e3700001 	cmn	r0, #1
 8011200:	da000004 	ble	0x8011218
 8011204:	e3a00000 	mov	r0, #0
 8011208:	e15e0001 	cmp	lr, r1
 801120c:	c3a00001 	movgt	r0, #1
 8011210:	e8bd4800 	pop	{fp, lr}
 8011214:	e12fff1e 	bx	lr
 8011218:	e3a00000 	mov	r0, #0
 801121c:	e15e0001 	cmp	lr, r1
 8011220:	b3a00001 	movlt	r0, #1
 8011224:	e8bd4800 	pop	{fp, lr}
 8011228:	e12fff1e 	bx	lr
 801122c:	ea00013a 	b	0x801171c
 8011230:	e92d4ff0 	push	{r4, r5, r6, r7, r8, r9, sl, fp, lr}
 8011234:	e28db01c 	add	fp, sp, #28
 8011238:	e24dd024 	sub	sp, sp, #36	@ 0x24
 801123c:	e1a04001 	mov	r4, r1
 8011240:	e3a010ff 	mov	r1, #255	@ 0xff
 8011244:	e3e060fe 	mvn	r6, #254	@ 0xfe
 8011248:	e3a0c000 	mov	ip, #0
 801124c:	e3811c07 	orr	r1, r1, #1792	@ 0x700
 8011250:	e2466c07 	sub	r6, r6, #1792	@ 0x700
 8011254:	e0017a23 	and	r7, r1, r3, lsr #20
 8011258:	e0015a24 	and	r5, r1, r4, lsr #20
 801125c:	e0451007 	sub	r1, r5, r7
 8011260:	e0977006 	adds	r7, r7, r6
 8011264:	e28110ff 	add	r1, r1, #255	@ 0xff
 8011268:	e2cce000 	sbc	lr, ip, #0
 801126c:	e0956006 	adds	r6, r5, r6
 8011270:	e3e050fd 	mvn	r5, #253	@ 0xfd
 8011274:	e2819c03 	add	r9, r1, #768	@ 0x300
 8011278:	e59f13d4 	ldr	r1, [pc, #980]	@ 0x8011654
 801127c:	e2455c07 	sub	r5, r5, #1792	@ 0x700
 8011280:	e2cca000 	sbc	sl, ip, #0
 8011284:	e3e0c000 	mvn	ip, #0
 8011288:	e0566005 	subs	r6, r6, r5
 801128c:	e0da600c 	sbcs	r6, sl, ip
 8011290:	e0038001 	and	r8, r3, r1
 8011294:	e0041001 	and	r1, r4, r1
 8011298:	e58d100c 	str	r1, [sp, #12]
 801129c:	e0231004 	eor	r1, r3, r4
 80112a0:	e2011102 	and	r1, r1, #-2147483648	@ 0x80000000
 80112a4:	3a00004d 	bcc	0x80113e0
 80112a8:	e0575005 	subs	r5, r7, r5
 80112ac:	e0de700c 	sbcs	r7, lr, ip
 80112b0:	3a00004a 	bcc	0x80113e0
 80112b4:	e58d9008 	str	r9, [sp, #8]
 80112b8:	e59f7398 	ldr	r7, [pc, #920]	@ 0x8011658
 80112bc:	e388c601 	orr	ip, r8, #1048576	@ 0x100000
 80112c0:	e1a09080 	lsl	r9, r0, #1
 80112c4:	e1a0358c 	lsl	r3, ip, #11
 80112c8:	e58dc004 	str	ip, [sp, #4]
 80112cc:	e1833aa2 	orr	r3, r3, r2, lsr #21
 80112d0:	e0477003 	sub	r7, r7, r3
 80112d4:	e0856793 	umull	r6, r5, r3, r7
 80112d8:	e2656000 	rsb	r6, r5, #0
 80112dc:	e0845796 	umull	r5, r4, r6, r7
 80112e0:	e1a07fa5 	lsr	r7, r5, #31
 80112e4:	e1877084 	orr	r7, r7, r4, lsl #1
 80112e8:	e0856397 	umull	r6, r5, r7, r3
 80112ec:	e2656000 	rsb	r6, r5, #0
 80112f0:	e0845697 	umull	r5, r4, r7, r6
 80112f4:	e1a07fa5 	lsr	r7, r5, #31
 80112f8:	e1877084 	orr	r7, r7, r4, lsl #1
 80112fc:	e0856397 	umull	r6, r5, r7, r3
 8011300:	e2656000 	rsb	r6, r5, #0
 8011304:	e0845697 	umull	r5, r4, r7, r6
 8011308:	e1a06582 	lsl	r6, r2, #11
 801130c:	e1a07fa5 	lsr	r7, r5, #31
 8011310:	e1877084 	orr	r7, r7, r4, lsl #1
 8011314:	e2477001 	sub	r7, r7, #1
 8011318:	e0845796 	umull	r5, r4, r6, r7
 801131c:	e3a05000 	mov	r5, #0
 8011320:	e0a54793 	umlal	r4, r5, r3, r7
 8011324:	e2748001 	rsbs	r8, r4, #1
 8011328:	e2e54000 	rsc	r4, r5, #0
 801132c:	e0865497 	umull	r5, r6, r7, r4
 8011330:	e1a04086 	lsl	r4, r6, #1
 8011334:	e0836798 	umull	r6, r3, r8, r7
 8011338:	e1a06fa6 	lsr	r6, r6, #31
 801133c:	e1844fa5 	orr	r4, r4, r5, lsr #31
 8011340:	e1866083 	orr	r6, r6, r3, lsl #1
 8011344:	e0965085 	adds	r5, r6, r5, lsl #1
 8011348:	e0a43fa3 	adc	r3, r4, r3, lsr #31
 801134c:	e25540e1 	subs	r4, r5, #225	@ 0xe1
 8011350:	e3a05000 	mov	r5, #0
 8011354:	e2c3a000 	sbc	sl, r3, #0
 8011358:	e59d300c 	ldr	r3, [sp, #12]
 801135c:	e0876994 	umull	r6, r7, r4, r9
 8011360:	e0a5799a 	umlal	r7, r5, sl, r9
 8011364:	e3838601 	orr	r8, r3, #1048576	@ 0x100000
 8011368:	e1a06088 	lsl	r6, r8, #1
 801136c:	e1866fa0 	orr	r6, r6, r0, lsr #31
 8011370:	e08e3694 	umull	r3, lr, r4, r6
 8011374:	e0933007 	adds	r3, r3, r7
 8011378:	e0b5300e 	adcs	r3, r5, lr
 801137c:	e0a57694 	umlal	r7, r5, r4, r6
 8011380:	e3a03000 	mov	r3, #0
 8011384:	e2a3e000 	adc	lr, r3, #0
 8011388:	e0ae569a 	umlal	r5, lr, sl, r6
 801138c:	e35e0602 	cmp	lr, #2097152	@ 0x200000
 8011390:	2a00001c 	bcs	0x8011408
 8011394:	e0873592 	umull	r3, r7, r2, r5
 8011398:	e1a08006 	mov	r8, r6
 801139c:	e0247e92 	mla	r4, r2, lr, r7
 80113a0:	e273a000 	rsbs	sl, r3, #0
 80113a4:	e027459c 	mla	r7, ip, r5, r4
 80113a8:	e59d4008 	ldr	r4, [sp, #8]
 80113ac:	e0e7ca80 	rsc	ip, r7, r0, lsl #21
 80113b0:	e1a00009 	mov	r0, r9
 80113b4:	e2444001 	sub	r4, r4, #1
 80113b8:	e3a030fe 	mov	r3, #254	@ 0xfe
 80113bc:	e3833c07 	orr	r3, r3, #1792	@ 0x700
 80113c0:	e1540003 	cmp	r4, r3
 80113c4:	da00001b 	ble	0x8011438
 80113c8:	e38106ff 	orr	r0, r1, #267386880	@ 0xff00000
 80113cc:	e3801207 	orr	r1, r0, #1879048192	@ 0x70000000
 80113d0:	e3a00000 	mov	r0, #0
 80113d4:	e24bd01c 	sub	sp, fp, #28
 80113d8:	e8bd4ff0 	pop	{r4, r5, r6, r7, r8, r9, sl, fp, lr}
 80113dc:	e12fff1e 	bx	lr
 80113e0:	e3a066ff 	mov	r6, #267386880	@ 0xff00000
 80113e4:	e3c47102 	bic	r7, r4, #-2147483648	@ 0x80000000
 80113e8:	e2705000 	rsbs	r5, r0, #0
 80113ec:	e3866207 	orr	r6, r6, #1879048192	@ 0x70000000
 80113f0:	e0d65007 	sbcs	r5, r6, r7
 80113f4:	2a00001a 	bcs	0x8011464
 80113f8:	e3841702 	orr	r1, r4, #524288	@ 0x80000
 80113fc:	e24bd01c 	sub	sp, fp, #28
 8011400:	e8bd4ff0 	pop	{r4, r5, r6, r7, r8, r9, sl, fp, lr}
 8011404:	e12fff1e 	bx	lr
 8011408:	e1b0e0ae 	lsrs	lr, lr, #1
 801140c:	e1a05065 	rrx	r5, r5
 8011410:	e59d4008 	ldr	r4, [sp, #8]
 8011414:	e0873295 	umull	r3, r7, r5, r2
 8011418:	e0267c95 	mla	r6, r5, ip, r7
 801141c:	e273a000 	rsbs	sl, r3, #0
 8011420:	e027629e 	mla	r7, lr, r2, r6
 8011424:	e0e7ca00 	rsc	ip, r7, r0, lsl #20
 8011428:	e3a030fe 	mov	r3, #254	@ 0xfe
 801142c:	e3833c07 	orr	r3, r3, #1792	@ 0x700
 8011430:	e1540003 	cmp	r4, r3
 8011434:	caffffe3 	bgt	0x80113c8
 8011438:	e1a09004 	mov	r9, r4
 801143c:	e3540000 	cmp	r4, #0
 8011440:	da00001c 	ble	0x80114b8
 8011444:	e59f3208 	ldr	r3, [pc, #520]	@ 0x8011654
 8011448:	e59d4004 	ldr	r4, [sp, #4]
 801144c:	e1a0008c 	lsl	r0, ip, #1
 8011450:	e1800faa 	orr	r0, r0, sl, lsr #31
 8011454:	e00e3003 	and	r3, lr, r3
 8011458:	e183ca09 	orr	ip, r3, r9, lsl #20
 801145c:	e1a0308a 	lsl	r3, sl, #1
 8011460:	ea00003b 	b	0x8011554
 8011464:	e3c34102 	bic	r4, r3, #-2147483648	@ 0x80000000
 8011468:	e2725000 	rsbs	r5, r2, #0
 801146c:	e0d65004 	sbcs	r5, r6, r4
 8011470:	2a000004 	bcs	0x8011488
 8011474:	e3831702 	orr	r1, r3, #524288	@ 0x80000
 8011478:	e1a00002 	mov	r0, r2
 801147c:	e24bd01c 	sub	sp, fp, #28
 8011480:	e8bd4ff0 	pop	{r4, r5, r6, r7, r8, r9, sl, fp, lr}
 8011484:	e12fff1e 	bx	lr
 8011488:	e0273006 	eor	r3, r7, r6
 801148c:	e1903003 	orrs	r3, r0, r3
 8011490:	1a00000e 	bne	0x80114d0
 8011494:	e0240006 	eor	r0, r4, r6
 8011498:	e1920000 	orrs	r0, r2, r0
 801149c:	11811006 	orrne	r1, r1, r6
 80114a0:	e3a00000 	mov	r0, #0
 80114a4:	03a017fe 	moveq	r1, #66584576	@ 0x3f80000
 80114a8:	0381131f 	orreq	r1, r1, #2080374784	@ 0x7c000000
 80114ac:	e24bd01c 	sub	sp, fp, #28
 80114b0:	e8bd4ff0 	pop	{r4, r5, r6, r7, r8, r9, sl, fp, lr}
 80114b4:	e12fff1e 	bx	lr
 80114b8:	e3790034 	cmn	r9, #52	@ 0x34
 80114bc:	aa00000a 	bge	0x80114ec
 80114c0:	e3a00000 	mov	r0, #0
 80114c4:	e24bd01c 	sub	sp, fp, #28
 80114c8:	e8bd4ff0 	pop	{r4, r5, r6, r7, r8, r9, sl, fp, lr}
 80114cc:	e12fff1e 	bx	lr
 80114d0:	e0243006 	eor	r3, r4, r6
 80114d4:	e1923003 	orrs	r3, r2, r3
 80114d8:	1a00002d 	bne	0x8011594
 80114dc:	e3a00000 	mov	r0, #0
 80114e0:	e24bd01c 	sub	sp, fp, #28
 80114e4:	e8bd4ff0 	pop	{r4, r5, r6, r7, r8, r9, sl, fp, lr}
 80114e8:	e12fff1e 	bx	lr
 80114ec:	e2694001 	rsb	r4, r9, #1
 80114f0:	e3e0301e 	mvn	r3, #30
 80114f4:	e1a0c43e 	lsr	ip, lr, r4
 80114f8:	e1a05435 	lsr	r5, r5, r4
 80114fc:	e2644020 	rsb	r4, r4, #32
 8011500:	e0533009 	subs	r3, r3, r9
 8011504:	e185541e 	orr	r5, r5, lr, lsl r4
 8011508:	e59d4004 	ldr	r4, [sp, #4]
 801150c:	53a0c000 	movpl	ip, #0
 8011510:	51a0533e 	lsrpl	r5, lr, r3
 8011514:	e2893034 	add	r3, r9, #52	@ 0x34
 8011518:	e087a592 	umull	sl, r7, r2, r5
 801151c:	e0267c92 	mla	r6, r2, ip, r7
 8011520:	e0276594 	mla	r7, r4, r5, r6
 8011524:	e3e06013 	mvn	r6, #19
 8011528:	e0466009 	sub	r6, r6, r9
 801152c:	e1a07087 	lsl	r7, r7, #1
 8011530:	e1a06630 	lsr	r6, r0, r6
 8011534:	e187efaa 	orr	lr, r7, sl, lsr #31
 8011538:	e2997014 	adds	r7, r9, #20
 801153c:	e1866318 	orr	r6, r6, r8, lsl r3
 8011540:	51a06710 	lslpl	r6, r0, r7
 8011544:	e1a00310 	lsl	r0, r0, r3
 8011548:	53a00000 	movpl	r0, #0
 801154c:	e050308a 	subs	r3, r0, sl, lsl #1
 8011550:	e0c6000e 	sbc	r0, r6, lr
 8011554:	e2057001 	and	r7, r5, #1
 8011558:	e0973003 	adds	r3, r7, r3
 801155c:	e3a07000 	mov	r7, #0
 8011560:	e2a00000 	adc	r0, r0, #0
 8011564:	e0522003 	subs	r2, r2, r3
 8011568:	e0d40000 	sbcs	r0, r4, r0
 801156c:	33a07001 	movcc	r7, #1
 8011570:	e2950001 	adds	r0, r5, #1
 8011574:	e2ac2000 	adc	r2, ip, #0
 8011578:	e3570000 	cmp	r7, #0
 801157c:	01a0200c 	moveq	r2, ip
 8011580:	01a00005 	moveq	r0, r5
 8011584:	e1821001 	orr	r1, r2, r1
 8011588:	e24bd01c 	sub	sp, fp, #28
 801158c:	e8bd4ff0 	pop	{r4, r5, r6, r7, r8, r9, sl, fp, lr}
 8011590:	e12fff1e 	bx	lr
 8011594:	e1903007 	orrs	r3, r0, r7
 8011598:	0a000020 	beq	0x8011620
 801159c:	e1923004 	orrs	r3, r2, r4
 80115a0:	0a000026 	beq	0x8011640
 80115a4:	e1a06001 	mov	r6, r1
 80115a8:	e3570601 	cmp	r7, #1048576	@ 0x100000
 80115ac:	2a00000c 	bcs	0x80115e4
 80115b0:	e1a03000 	mov	r3, r0
 80115b4:	e1a05002 	mov	r5, r2
 80115b8:	e28d1010 	add	r1, sp, #16
 80115bc:	e1a02003 	mov	r2, r3
 80115c0:	e59d300c 	ldr	r3, [sp, #12]
 80115c4:	e1a00001 	mov	r0, r1
 80115c8:	ebfffb7f 	bl	0x80103cc
 80115cc:	e59d1010 	ldr	r1, [sp, #16]
 80115d0:	e59d301c 	ldr	r3, [sp, #28]
 80115d4:	e59d0018 	ldr	r0, [sp, #24]
 80115d8:	e1a02005 	mov	r2, r5
 80115dc:	e0819009 	add	r9, r1, r9
 80115e0:	e58d300c 	str	r3, [sp, #12]
 80115e4:	e1b01a24 	lsrs	r1, r4, #20
 80115e8:	1a000009 	bne	0x8011614
 80115ec:	e28d1010 	add	r1, sp, #16
 80115f0:	e1a04000 	mov	r4, r0
 80115f4:	e1a03008 	mov	r3, r8
 80115f8:	e1a00001 	mov	r0, r1
 80115fc:	ebfffb72 	bl	0x80103cc
 8011600:	e59d1010 	ldr	r1, [sp, #16]
 8011604:	e59d2018 	ldr	r2, [sp, #24]
 8011608:	e59d801c 	ldr	r8, [sp, #28]
 801160c:	e1a00004 	mov	r0, r4
 8011610:	e0499001 	sub	r9, r9, r1
 8011614:	e58d9008 	str	r9, [sp, #8]
 8011618:	e1a01006 	mov	r1, r6
 801161c:	eaffff25 	b	0x80112b8
 8011620:	e1920004 	orrs	r0, r2, r4
 8011624:	e3a007fe 	mov	r0, #66584576	@ 0x3f80000
 8011628:	e380031f 	orr	r0, r0, #2080374784	@ 0x7c000000
 801162c:	01a01000 	moveq	r1, r0
 8011630:	e3a00000 	mov	r0, #0
 8011634:	e24bd01c 	sub	sp, fp, #28
 8011638:	e8bd4ff0 	pop	{r4, r5, r6, r7, r8, r9, sl, fp, lr}
 801163c:	e12fff1e 	bx	lr
 8011640:	e1811006 	orr	r1, r1, r6
 8011644:	e3a00000 	mov	r0, #0
 8011648:	e24bd01c 	sub	sp, fp, #28
 801164c:	e8bd4ff0 	pop	{r4, r5, r6, r7, r8, r9, sl, fp, lr}
 8011650:	e12fff1e 	bx	lr
 8011654:	000fffff 	strdeq	pc, [pc], -pc	@ <UNPREDICTABLE>
 8011658:	7504f333 	strvc	pc, [r4, #-819]	@ 0xfffffccd
 801165c:	ea000130 	b	0x8011b24
 8011660:	eafffc44 	b	0x8010778
 8011664:	e92d4c10 	push	{r4, sl, fp, lr}
 8011668:	e28db008 	add	fp, sp, #8
 801166c:	e1a04002 	mov	r4, r2
 8011670:	ebfffc40 	bl	0x8010778
 8011674:	e3540000 	cmp	r4, #0
 8011678:	15841000 	strne	r1, [r4]
 801167c:	e8bd4c10 	pop	{r4, sl, fp, lr}
 8011680:	e12fff1e 	bx	lr
 8011684:	e92d4800 	push	{fp, lr}
 8011688:	e1a0b00d 	mov	fp, sp
 801168c:	e24dd018 	sub	sp, sp, #24
 8011690:	e1a0c000 	mov	ip, r0
 8011694:	e88d000c 	stm	sp, {r2, r3}
 8011698:	e28d0008 	add	r0, sp, #8
 801169c:	e1a03001 	mov	r3, r1
 80116a0:	e1a0200c 	mov	r2, ip
 80116a4:	ebfffb78 	bl	0x801048c
 80116a8:	e59b2008 	ldr	r2, [fp, #8]
 80116ac:	e59d0008 	ldr	r0, [sp, #8]
 80116b0:	e59d100c 	ldr	r1, [sp, #12]
 80116b4:	e3520000 	cmp	r2, #0
 80116b8:	159d3010 	ldrne	r3, [sp, #16]
 80116bc:	159dc014 	ldrne	ip, [sp, #20]
 80116c0:	18821008 	stmne	r2, {r3, ip}
 80116c4:	e1a0d00b 	mov	sp, fp
 80116c8:	e8bd4800 	pop	{fp, lr}
 80116cc:	e12fff1e 	bx	lr
 80116d0:	e92d4c70 	push	{r4, r5, r6, sl, fp, lr}
 80116d4:	e28db010 	add	fp, sp, #16
 80116d8:	e1a04001 	mov	r4, r1
 80116dc:	e1a05000 	mov	r5, r0
 80116e0:	ebfffd82 	bl	0x8010cf0
 80116e4:	e3500000 	cmp	r0, #0
 80116e8:	e1a06004 	mov	r6, r4
 80116ec:	e1a00004 	mov	r0, r4
 80116f0:	e1a01004 	mov	r1, r4
 80116f4:	11a06005 	movne	r6, r5
 80116f8:	eb000005 	bl	0x8011714
 80116fc:	e3500000 	cmp	r0, #0
 8011700:	11a06005 	movne	r6, r5
 8011704:	e1a00006 	mov	r0, r6
 8011708:	e8bd4c70 	pop	{r4, r5, r6, sl, fp, lr}
 801170c:	e12fff1e 	bx	lr
 8011710:	eafffa26 	b	0x800ffb0
 8011714:	eafffe62 	b	0x80110a4
 8011718:	eafffe6d 	b	0x80110d4
 801171c:	e3500000 	cmp	r0, #0
 8011720:	03a00000 	moveq	r0, #0
 8011724:	012fff1e 	bxeq	lr
 8011728:	e92d4c10 	push	{r4, sl, fp, lr}
 801172c:	e28db008 	add	fp, sp, #8
 8011730:	e1a04000 	mov	r4, r0
 8011734:	ebfffe4e 	bl	0x8011074
 8011738:	e1a01014 	lsl	r1, r4, r0
 801173c:	e1a02c01 	lsl	r2, r1, #24
 8011740:	e1a02fa2 	lsr	r2, r2, #31
 8011744:	e1c22421 	bic	r2, r2, r1, lsr #8
 8011748:	e0622c01 	rsb	r2, r2, r1, lsl #24
 801174c:	e1a01421 	lsr	r1, r1, #8
 8011750:	e0410b80 	sub	r0, r1, r0, lsl #23
 8011754:	e0800fa2 	add	r0, r0, r2, lsr #31
 8011758:	e280053a 	add	r0, r0, #243269632	@ 0xe800000
 801175c:	e2800101 	add	r0, r0, #1073741824	@ 0x40000000
 8011760:	e8bd4c10 	pop	{r4, sl, fp, lr}
 8011764:	e12fff1e 	bx	lr
 8011768:	e92d4ff0 	push	{r4, r5, r6, r7, r8, r9, sl, fp, lr}
 801176c:	e28db01c 	add	fp, sp, #28
 8011770:	e24dd03c 	sub	sp, sp, #60	@ 0x3c
 8011774:	e1a08003 	mov	r8, r3
 8011778:	e1a03000 	mov	r3, r0
 801177c:	e3a00000 	mov	r0, #0
 8011780:	e5cd2034 	strb	r2, [sp, #52]	@ 0x34
 8011784:	e5cd1030 	strb	r1, [sp, #48]	@ 0x30
 8011788:	e1a04002 	mov	r4, r2
 801178c:	e1a05001 	mov	r5, r1
 8011790:	e5cd002b 	strb	r0, [sp, #43]	@ 0x2b
 8011794:	e5cd002a 	strb	r0, [sp, #42]	@ 0x2a
 8011798:	e5cd0029 	strb	r0, [sp, #41]	@ 0x29
 801179c:	e5cd0028 	strb	r0, [sp, #40]	@ 0x28
 80117a0:	e5cd0027 	strb	r0, [sp, #39]	@ 0x27
 80117a4:	e5cd0026 	strb	r0, [sp, #38]	@ 0x26
 80117a8:	e5cd0025 	strb	r0, [sp, #37]	@ 0x25
 80117ac:	e5cd0024 	strb	r0, [sp, #36]	@ 0x24
 80117b0:	e5cd0023 	strb	r0, [sp, #35]	@ 0x23
 80117b4:	e5cd0022 	strb	r0, [sp, #34]	@ 0x22
 80117b8:	e5cd0021 	strb	r0, [sp, #33]	@ 0x21
 80117bc:	e5cd0020 	strb	r0, [sp, #32]
 80117c0:	e5cd001f 	strb	r0, [sp, #31]
 80117c4:	e5cd001e 	strb	r0, [sp, #30]
 80117c8:	e5cd001d 	strb	r0, [sp, #29]
 80117cc:	e5cd001c 	strb	r0, [sp, #28]
 80117d0:	e1a00c28 	lsr	r0, r8, #24
 80117d4:	e5cd8038 	strb	r8, [sp, #56]	@ 0x38
 80117d8:	e5cd302c 	strb	r3, [sp, #44]	@ 0x2c
 80117dc:	e1a07003 	mov	r7, r3
 80117e0:	e5cd003b 	strb	r0, [sp, #59]	@ 0x3b
 80117e4:	e1a00828 	lsr	r0, r8, #16
 80117e8:	e5cd003a 	strb	r0, [sp, #58]	@ 0x3a
 80117ec:	e1a00428 	lsr	r0, r8, #8
 80117f0:	e5cd0039 	strb	r0, [sp, #57]	@ 0x39
 80117f4:	e1a00c22 	lsr	r0, r2, #24
 80117f8:	e5cd0037 	strb	r0, [sp, #55]	@ 0x37
 80117fc:	e1a00822 	lsr	r0, r2, #16
 8011800:	e5cd0036 	strb	r0, [sp, #54]	@ 0x36
 8011804:	e1a00422 	lsr	r0, r2, #8
 8011808:	e5cd0035 	strb	r0, [sp, #53]	@ 0x35
 801180c:	e1a00c21 	lsr	r0, r1, #24
 8011810:	e5cd0033 	strb	r0, [sp, #51]	@ 0x33
 8011814:	e1a00821 	lsr	r0, r1, #16
 8011818:	e5cd0032 	strb	r0, [sp, #50]	@ 0x32
 801181c:	e1a00421 	lsr	r0, r1, #8
 8011820:	e5cd0031 	strb	r0, [sp, #49]	@ 0x31
 8011824:	e1a00c23 	lsr	r0, r3, #24
 8011828:	e5cd002f 	strb	r0, [sp, #47]	@ 0x2f
 801182c:	e1a00823 	lsr	r0, r3, #16
 8011830:	e5cd002e 	strb	r0, [sp, #46]	@ 0x2e
 8011834:	e1a00423 	lsr	r0, r3, #8
 8011838:	e58d3018 	str	r3, [sp, #24]
 801183c:	e5cd002d 	strb	r0, [sp, #45]	@ 0x2d
 8011840:	e1a00008 	mov	r0, r8
 8011844:	ebfffe0a 	bl	0x8011074
 8011848:	e1a06000 	mov	r6, r0
 801184c:	e1a00004 	mov	r0, r4
 8011850:	e58d4010 	str	r4, [sp, #16]
 8011854:	ebfffe06 	bl	0x8011074
 8011858:	e3580000 	cmp	r8, #0
 801185c:	e59f11b4 	ldr	r1, [pc, #436]	@ 0x8011a18
 8011860:	e58d5014 	str	r5, [sp, #20]
 8011864:	02806020 	addeq	r6, r0, #32
 8011868:	e18700a7 	orr	r0, r7, r7, lsr #1
 801186c:	e1800120 	orr	r0, r0, r0, lsr #2
 8011870:	e1800220 	orr	r0, r0, r0, lsr #4
 8011874:	e1800420 	orr	r0, r0, r0, lsr #8
 8011878:	e1800820 	orr	r0, r0, r0, lsr #16
 801187c:	e1e00000 	mvn	r0, r0
 8011880:	e00110a0 	and	r1, r1, r0, lsr #1
 8011884:	e0400001 	sub	r0, r0, r1
 8011888:	e59f118c 	ldr	r1, [pc, #396]	@ 0x8011a1c
 801188c:	e0012120 	and	r2, r1, r0, lsr #2
 8011890:	e0000001 	and	r0, r0, r1
 8011894:	e59f1184 	ldr	r1, [pc, #388]	@ 0x8011a20
 8011898:	e0800002 	add	r0, r0, r2
 801189c:	e0800220 	add	r0, r0, r0, lsr #4
 80118a0:	e0000001 	and	r0, r0, r1
 80118a4:	e59f1178 	ldr	r1, [pc, #376]	@ 0x8011a24
 80118a8:	e0020190 	mul	r2, r0, r1
 80118ac:	e1a00005 	mov	r0, r5
 80118b0:	e1a09c22 	lsr	r9, r2, #24
 80118b4:	ebfffdee 	bl	0x8011074
 80118b8:	e3550000 	cmp	r5, #0
 80118bc:	02890020 	addeq	r0, r9, #32
 80118c0:	e1941008 	orrs	r1, r4, r8
 80118c4:	e3a0401f 	mov	r4, #31
 80118c8:	02806040 	addeq	r6, r0, #64	@ 0x40
 80118cc:	e28d101c 	add	r1, sp, #28
 80118d0:	e2060078 	and	r0, r6, #120	@ 0x78
 80118d4:	e2812010 	add	r2, r1, #16
 80118d8:	e77201a0 	ldrb	r0, [r2, -r0, lsr #3]!
 80118dc:	e58d000c 	str	r0, [sp, #12]
 80118e0:	e1a01002 	mov	r1, r2
 80118e4:	e5d20009 	ldrb	r0, [r2, #9]
 80118e8:	e5f13008 	ldrb	r3, [r1, #8]!
 80118ec:	e1830400 	orr	r0, r3, r0, lsl #8
 80118f0:	e5d13002 	ldrb	r3, [r1, #2]
 80118f4:	e5d11003 	ldrb	r1, [r1, #3]
 80118f8:	e1831401 	orr	r1, r3, r1, lsl #8
 80118fc:	e180c801 	orr	ip, r0, r1, lsl #16
 8011900:	e5d20001 	ldrb	r0, [r2, #1]
 8011904:	e2061007 	and	r1, r6, #7
 8011908:	e1a0e11c 	lsl	lr, ip, r1
 801190c:	e1c44001 	bic	r4, r4, r1
 8011910:	e1a075ae 	lsr	r7, lr, #11
 8011914:	e58d0008 	str	r0, [sp, #8]
 8011918:	e5d20002 	ldrb	r0, [r2, #2]
 801191c:	e58d0004 	str	r0, [sp, #4]
 8011920:	e5d20003 	ldrb	r0, [r2, #3]
 8011924:	e58d0000 	str	r0, [sp]
 8011928:	e1a00002 	mov	r0, r2
 801192c:	e5d23005 	ldrb	r3, [r2, #5]
 8011930:	e5f09004 	ldrb	r9, [r0, #4]!
 8011934:	e1899403 	orr	r9, r9, r3, lsl #8
 8011938:	e5d03002 	ldrb	r3, [r0, #2]
 801193c:	e5d00003 	ldrb	r0, [r0, #3]
 8011940:	e1830400 	orr	r0, r3, r0, lsl #8
 8011944:	e1893800 	orr	r3, r9, r0, lsl #16
 8011948:	e1b000a3 	lsrs	r0, r3, #1
 801194c:	e1a03113 	lsl	r3, r3, r1
 8011950:	e18e4430 	orr	r4, lr, r0, lsr r4
 8011954:	e5d2000d 	ldrb	r0, [r2, #13]
 8011958:	e5f2a00c 	ldrb	sl, [r2, #12]!
 801195c:	e1a055a3 	lsr	r5, r3, #11
 8011960:	e1a09a84 	lsl	r9, r4, #21
 8011964:	e185ea84 	orr	lr, r5, r4, lsl #21
 8011968:	e59d4008 	ldr	r4, [sp, #8]
 801196c:	e18aa400 	orr	sl, sl, r0, lsl #8
 8011970:	e5d20002 	ldrb	r0, [r2, #2]
 8011974:	e5d22003 	ldrb	r2, [r2, #3]
 8011978:	e1800402 	orr	r0, r0, r2, lsl #8
 801197c:	e221201f 	eor	r2, r1, #31
 8011980:	e18a0800 	orr	r0, sl, r0, lsl #16
 8011984:	e1a0a110 	lsl	sl, r0, r1
 8011988:	e1a000ac 	lsr	r0, ip, #1
 801198c:	e18a0230 	orr	r0, sl, r0, lsr r2
 8011990:	e1870a80 	orr	r0, r7, r0, lsl #21
 8011994:	e1e07000 	mvn	r7, r0
 8011998:	e007cfa9 	and	ip, r7, r9, lsr #31
 801199c:	e59d700c 	ldr	r7, [sp, #12]
 80119a0:	e1874404 	orr	r4, r7, r4, lsl #8
 80119a4:	e89d00a0 	ldm	sp, {r5, r7}
 80119a8:	e1877405 	orr	r7, r7, r5, lsl #8
 80119ac:	e1847807 	orr	r7, r4, r7, lsl #16
 80119b0:	e1a040a7 	lsr	r4, r7, #1
 80119b4:	e1832234 	orr	r2, r3, r4, lsr r2
 80119b8:	e1a03117 	lsl	r3, r7, r1
 80119bc:	e1a035a3 	lsr	r3, r3, #11
 80119c0:	e1832a82 	orr	r2, r3, r2, lsl #21
 80119c4:	e59d3014 	ldr	r3, [sp, #20]
 80119c8:	e1821117 	orr	r1, r2, r7, lsl r1
 80119cc:	e3a0207e 	mov	r2, #126	@ 0x7e
 80119d0:	e59d7018 	ldr	r7, [sp, #24]
 80119d4:	e3822b01 	orr	r2, r2, #1024	@ 0x400
 80119d8:	e051100c 	subs	r1, r1, ip
 80119dc:	e0422006 	sub	r2, r2, r6
 80119e0:	e59d6010 	ldr	r6, [sp, #16]
 80119e4:	e2ce1000 	sbc	r1, lr, #0
 80119e8:	e1a02a02 	lsl	r2, r2, #20
 80119ec:	e1833008 	orr	r3, r3, r8
 80119f0:	e08225aa 	add	r2, r2, sl, lsr #11
 80119f4:	e2422601 	sub	r2, r2, #1048576	@ 0x100000
 80119f8:	e1877006 	orr	r7, r7, r6
 80119fc:	e1973003 	orrs	r3, r7, r3
 8011a00:	01a025aa 	lsreq	r2, sl, #11
 8011a04:	e0900fa1 	adds	r0, r0, r1, lsr #31
 8011a08:	e2a21000 	adc	r1, r2, #0
 8011a0c:	e24bd01c 	sub	sp, fp, #28
 8011a10:	e8bd4ff0 	pop	{r4, r5, r6, r7, r8, r9, sl, fp, lr}
 8011a14:	e12fff1e 	bx	lr
 8011a18:	55555555 	ldrbpl	r5, [r5, #-1365]	@ 0xfffffaab
 8011a1c:	33333333 	teqcc	r3, #-872415232	@ 0xcc000000
 8011a20:	0f0f0f0f 	svceq	0x000f0f0f
 8011a24:	01010101 	tsteq	r1, r1, lsl #2
 8011a28:	e92d4830 	push	{r4, r5, fp, lr}
 8011a2c:	e28db008 	add	fp, sp, #8
 8011a30:	e1a04000 	mov	r4, r0
 8011a34:	e3e00000 	mvn	r0, #0
 8011a38:	ebfffbb3 	bl	0x801090c
 8011a3c:	e1a01000 	mov	r1, r0
 8011a40:	e3a00000 	mov	r0, #0
 8011a44:	e35405fe 	cmp	r4, #1065353216	@ 0x3f800000
 8011a48:	3a00000a 	bcc	0x8011a78
 8011a4c:	e2810080 	add	r0, r1, #128	@ 0x80
 8011a50:	ebfff955 	bl	0x800ffac
 8011a54:	e1540b80 	cmp	r4, r0, lsl #23
 8011a58:	2a000008 	bcs	0x8011a80
 8011a5c:	e3a00102 	mov	r0, #-2147483648	@ 0x80000000
 8011a60:	e1805404 	orr	r5, r0, r4, lsl #8
 8011a64:	e1a00ba4 	lsr	r0, r4, #23
 8011a68:	ebfff94f 	bl	0x800ffac
 8011a6c:	e260001e 	rsb	r0, r0, #30
 8011a70:	e200001f 	and	r0, r0, #31
 8011a74:	e1a00035 	lsr	r0, r5, r0
 8011a78:	e8bd4830 	pop	{r4, r5, fp, lr}
 8011a7c:	e12fff1e 	bx	lr
 8011a80:	e59f1010 	ldr	r1, [pc, #16]	@ 0x8011a98
 8011a84:	e3a00000 	mov	r0, #0
 8011a88:	e1540001 	cmp	r4, r1
 8011a8c:	33e00000 	mvncc	r0, #0
 8011a90:	e8bd4830 	pop	{r4, r5, fp, lr}
 8011a94:	e12fff1e 	bx	lr
 8011a98:	7f800001 	svcvc	0x00800001
 8011a9c:	e92d48f0 	push	{r4, r5, r6, r7, fp, lr}
 8011aa0:	e28db010 	add	fp, sp, #16
 8011aa4:	e1a04000 	mov	r4, r0
 8011aa8:	e3c06102 	bic	r6, r0, #-2147483648	@ 0x80000000
 8011aac:	e3e00102 	mvn	r0, #-2147483648	@ 0x80000000
 8011ab0:	ebfffb9e 	bl	0x8010930
 8011ab4:	e3a05000 	mov	r5, #0
 8011ab8:	e35605fe 	cmp	r6, #1065353216	@ 0x3f800000
 8011abc:	3a00000d 	bcc	0x8011af8
 8011ac0:	e2800080 	add	r0, r0, #128	@ 0x80
 8011ac4:	ebfff938 	bl	0x800ffac
 8011ac8:	e1560b80 	cmp	r6, r0, lsl #23
 8011acc:	2a00000c 	bcs	0x8011b04
 8011ad0:	e3a00102 	mov	r0, #-2147483648	@ 0x80000000
 8011ad4:	e1807406 	orr	r7, r0, r6, lsl #8
 8011ad8:	e1a00ba6 	lsr	r0, r6, #23
 8011adc:	ebfff932 	bl	0x800ffac
 8011ae0:	e260001e 	rsb	r0, r0, #30
 8011ae4:	e3a01000 	mov	r1, #0
 8011ae8:	e3540000 	cmp	r4, #0
 8011aec:	e200001f 	and	r0, r0, #31
 8011af0:	e1a05037 	lsr	r5, r7, r0
 8011af4:	40415037 	submi	r5, r1, r7, lsr r0
 8011af8:	e1a00005 	mov	r0, r5
 8011afc:	e8bd48f0 	pop	{r4, r5, r6, r7, fp, lr}
 8011b00:	e12fff1e 	bx	lr
 8011b04:	e59f0014 	ldr	r0, [pc, #20]	@ 0x8011b20
 8011b08:	e1560000 	cmp	r6, r0
 8011b0c:	33e00102 	mvncc	r0, #-2147483648	@ 0x80000000
 8011b10:	30205fc4 	eorcc	r5, r0, r4, asr #31
 8011b14:	e1a00005 	mov	r0, r5
 8011b18:	e8bd48f0 	pop	{r4, r5, r6, r7, fp, lr}
 8011b1c:	e12fff1e 	bx	lr
 8011b20:	7f800001 	svcvc	0x00800001
 8011b24:	e2211102 	eor	r1, r1, #-2147483648	@ 0x80000000
 8011b28:	eafff920 	b	0x800ffb0
 8011b2c:	eafffc25 	b	0x8010bc8
 8011b30:	eafffb88 	b	0x8010958
 8011b34:	eafffb87 	b	0x8010958
 8011b38:	e51ff004 	ldr	pc, [pc, #-4]	@ 0x8011b3c
 8011b3c:	03000220 	movweq	r0, #544	@ 0x220
 8011b40:	e51ff004 	ldr	pc, [pc, #-4]	@ 0x8011b44
 8011b44:	030000dc 	movweq	r0, #220	@ 0xdc
 8011b48:	e51ff004 	ldr	pc, [pc, #-4]	@ 0x8011b4c
 8011b4c:	03000128 	movweq	r0, #296	@ 0x128
 8011b50:	e51ff004 	ldr	pc, [pc, #-4]	@ 0x8011b54
 8011b54:	03000000 	movweq	r0, #0
 8011b58:	e51ff004 	ldr	pc, [pc, #-4]	@ 0x8011b5c
 8011b5c:	030000e4 	movweq	r0, #228	@ 0xe4
 8011b60:	e51ff004 	ldr	pc, [pc, #-4]	@ 0x8011b64
 8011b64:	03000038 	movweq	r0, #56	@ 0x38

Disassembly of section .iwram:

03000000 <.iwram>:
 3000000:	e3520006 	cmp	r2, #6
 3000004:	da00002f 	ble	0x30000c8
 3000008:	e0203001 	eor	r3, r0, r1
 300000c:	e1b03f83 	lsls	r3, r3, #31
 3000010:	4a00002c 	bmi	0x30000c8
 3000014:	2a00001e 	bcs	0x3000094
 3000018:	e2703004 	rsbs	r3, r0, #4
 300001c:	e1b03f83 	lsls	r3, r3, #31
 3000020:	44d13001 	ldrbmi	r3, [r1], #1
 3000024:	44c03001 	strbmi	r3, [r0], #1
 3000028:	42422001 	submi	r2, r2, #1
 300002c:	20d130b2 	ldrhcs	r3, [r1], #2
 3000030:	20c030b2 	strhcs	r3, [r0], #2
 3000034:	22422002 	subcs	r2, r2, #2
 3000038:	e3520020 	cmp	r2, #32
 300003c:	ba000007 	blt	0x3000060
 3000040:	e92d07f0 	push	{r4, r5, r6, r7, r8, r9, sl}
 3000044:	e2522020 	subs	r2, r2, #32
 3000048:	a8b107f8 	ldmge	r1!, {r3, r4, r5, r6, r7, r8, r9, sl}
 300004c:	a8a007f8 	stmiage	r0!, {r3, r4, r5, r6, r7, r8, r9, sl}
 3000050:	cafffffb 	bgt	0x3000044
 3000054:	e8bd07f0 	pop	{r4, r5, r6, r7, r8, r9, sl}
 3000058:	012fff1e 	bxeq	lr
 300005c:	e2822020 	add	r2, r2, #32
 3000060:	e3520004 	cmp	r2, #4
 3000064:	ba00000a 	blt	0x3000094
 3000068:	e2522004 	subs	r2, r2, #4
 300006c:	a4913004 	ldrge	r3, [r1], #4
 3000070:	a4803004 	strge	r3, [r0], #4
 3000074:	cafffffb 	bgt	0x3000068
 3000078:	012fff1e 	bxeq	lr
 300007c:	e1b02f82 	lsls	r2, r2, #31
 3000080:	20d130b2 	ldrhcs	r3, [r1], #2
 3000084:	20c030b2 	strhcs	r3, [r0], #2
 3000088:	45d13000 	ldrbmi	r3, [r1]
 300008c:	45c03000 	strbmi	r3, [r0]
 3000090:	e12fff1e 	bx	lr
 3000094:	e3100001 	tst	r0, #1
 3000098:	14d13001 	ldrbne	r3, [r1], #1
 300009c:	14c03001 	strbne	r3, [r0], #1
 30000a0:	12422001 	subne	r2, r2, #1
 30000a4:	e2522002 	subs	r2, r2, #2
 30000a8:	a0d130b2 	ldrhge	r3, [r1], #2
 30000ac:	a0c030b2 	strhge	r3, [r0], #2
 30000b0:	cafffffb 	bgt	0x30000a4
 30000b4:	012fff1e 	bxeq	lr
 30000b8:	e2922001 	adds	r2, r2, #1
 30000bc:	05d13000 	ldrbeq	r3, [r1]
 30000c0:	05c03000 	strbeq	r3, [r0]
 30000c4:	e12fff1e 	bx	lr
 30000c8:	e2522001 	subs	r2, r2, #1
 30000cc:	a4d13001 	ldrbge	r3, [r1], #1
 30000d0:	a4c03001 	strbge	r3, [r0], #1
 30000d4:	cafffffb 	bgt	0x30000c8
 30000d8:	e12fff1e 	bx	lr
 30000dc:	e3a02000 	mov	r2, #0
 30000e0:	ea000002 	b	0x30000f0
 30000e4:	e1a02c02 	lsl	r2, r2, #24
 30000e8:	e1822422 	orr	r2, r2, r2, lsr #8
 30000ec:	e1822822 	orr	r2, r2, r2, lsr #16
 30000f0:	e3510002 	cmp	r1, #2
 30000f4:	ca000004 	bgt	0x300010c
 30000f8:	e1b01f81 	lsls	r1, r1, #31
 30000fc:	44c02001 	strbmi	r2, [r0], #1
 3000100:	24c02001 	strbcs	r2, [r0], #1
 3000104:	25c02000 	strbcs	r2, [r0]
 3000108:	e12fff1e 	bx	lr
 300010c:	e2603004 	rsb	r3, r0, #4
 3000110:	e1b03f83 	lsls	r3, r3, #31
 3000114:	44c02001 	strbmi	r2, [r0], #1
 3000118:	42411001 	submi	r1, r1, #1
 300011c:	20c020b2 	strhcs	r2, [r0], #2
 3000120:	22411002 	subcs	r1, r1, #2
 3000124:	ea000004 	b	0x300013c
 3000128:	e3a02000 	mov	r2, #0
 300012c:	ea000002 	b	0x300013c
 3000130:	e1a02c02 	lsl	r2, r2, #24
 3000134:	e1822422 	orr	r2, r2, r2, lsr #8
 3000138:	e1822822 	orr	r2, r2, r2, lsr #16
 300013c:	e1b0c2a1 	lsrs	ip, r1, #5
 3000140:	0a00000d 	beq	0x300017c
 3000144:	e1a0328c 	lsl	r3, ip, #5
 3000148:	e0411003 	sub	r1, r1, r3
 300014c:	e92d03f0 	push	{r4, r5, r6, r7, r8, r9}
 3000150:	e1a03002 	mov	r3, r2
 3000154:	e1a04002 	mov	r4, r2
 3000158:	e1a05002 	mov	r5, r2
 300015c:	e1a06002 	mov	r6, r2
 3000160:	e1a07002 	mov	r7, r2
 3000164:	e1a08002 	mov	r8, r2
 3000168:	e1a09002 	mov	r9, r2
 300016c:	e8a003fc 	stmia	r0!, {r2, r3, r4, r5, r6, r7, r8, r9}
 3000170:	e25cc001 	subs	ip, ip, #1
 3000174:	1afffffc 	bne	0x300016c
 3000178:	e8bd03f0 	pop	{r4, r5, r6, r7, r8, r9}
 300017c:	e1b0c121 	lsrs	ip, r1, #2
 3000180:	e25cc001 	subs	ip, ip, #1
 3000184:	24802004 	strcs	r2, [r0], #4
 3000188:	2afffffc 	bcs	0x3000180
 300018c:	e1b03f81 	lsls	r3, r1, #31
 3000190:	20c020b2 	strhcs	r2, [r0], #2
 3000194:	45c02000 	strbmi	r2, [r0]
 3000198:	e12fff1e 	bx	lr
 300019c:	e3a02301 	mov	r2, #67108864	@ 0x4000000
 30001a0:	e2822c02 	add	r2, r2, #512	@ 0x200
 30001a4:	e3a01000 	mov	r1, #0
 30001a8:	e1c210b8 	strh	r1, [r2, #8]
 30001ac:	e1d210b0 	ldrh	r1, [r2]
 30001b0:	e1d230b2 	ldrh	r3, [r2, #2]
 30001b4:	e0010003 	and	r0, r1, r3
 30001b8:	e59d1014 	ldr	r1, [sp, #20]
 30001bc:	e59f304c 	ldr	r3, [pc, #76]	@ 0x3000210
 30001c0:	e5831000 	str	r1, [r3]
 30001c4:	e10f1000 	mrs	r1, CPSR
 30001c8:	e381100d 	orr	r1, r1, #13
 30001cc:	e121f001 	msr	CPSR_c, r1
 30001d0:	e59f103c 	ldr	r1, [pc, #60]	@ 0x3000214
 30001d4:	e92d4004 	push	{r2, lr}
 30001d8:	e1a0e00f 	mov	lr, pc
 30001dc:	e12fff11 	bx	r1
 30001e0:	e8bd4004 	pop	{r2, lr}
 30001e4:	e10f1000 	mrs	r1, CPSR
 30001e8:	e3c1100d 	bic	r1, r1, #13
 30001ec:	e121f001 	msr	CPSR_c, r1
 30001f0:	e3a01001 	mov	r1, #1
 30001f4:	e1c210b8 	strh	r1, [r2, #8]
 30001f8:	e1c200b2 	strh	r0, [r2, #2]
 30001fc:	e59f2014 	ldr	r2, [pc, #20]	@ 0x3000218
 3000200:	e1d210b0 	ldrh	r1, [r2]
 3000204:	e1811000 	orr	r1, r1, r0
 3000208:	e1c210b0 	strh	r1, [r2]
 300020c:	e12fff1e 	bx	lr
 3000210:	0300021c 	movweq	r0, #540	@ 0x21c
 3000214:	08003f9c 	stmdaeq	r0, {r2, r3, r4, r7, r8, r9, sl, fp, ip, sp}
 3000218:	03007ff8 	movweq	r7, #4088	@ 0xff8
 300021c:	00000000 	andeq	r0, r0, r0
 3000220:	e92d4ff0 	push	{r4, r5, r6, r7, r8, r9, sl, fp, lr}
 3000224:	e28db01c 	add	fp, sp, #28
 3000228:	e24dd0b4 	sub	sp, sp, #180	@ 0xb4
 300022c:	e24ddb1f 	sub	sp, sp, #31744	@ 0x7c00
 3000230:	e3a00008 	mov	r0, #8
 3000234:	e3a02004 	mov	r2, #4
 3000238:	e3a01000 	mov	r1, #0
 300023c:	e28d8048 	add	r8, sp, #72	@ 0x48
 3000240:	e59f5e80 	ldr	r5, [pc, #3712]	@ 0x30010c8
 3000244:	e3800b0f 	orr	r0, r0, #15360	@ 0x3c00
 3000248:	e3822b07 	orr	r2, r2, #7168	@ 0x1c00
 300024c:	e58d1048 	str	r1, [sp, #72]	@ 0x48
 3000250:	e7881000 	str	r1, [r8, r0]
 3000254:	e7881002 	str	r1, [r8, r2]
 3000258:	e59f1e6c 	ldr	r1, [pc, #3692]	@ 0x30010cc
 300025c:	e0889002 	add	r9, r8, r2
 3000260:	e0884000 	add	r4, r8, r0
 3000264:	e5d11000 	ldrb	r1, [r1]
 3000268:	e595300c 	ldr	r3, [r5, #12]
 300026c:	e3530000 	cmp	r3, #0
 3000270:	0a000009 	beq	0x300029c
 3000274:	e285000c 	add	r0, r5, #12
 3000278:	e5931000 	ldr	r1, [r3]
 300027c:	e35100c8 	cmp	r1, #200	@ 0xc8
 3000280:	0a00001b 	beq	0x30002f4
 3000284:	e35100d0 	cmp	r1, #208	@ 0xd0
 3000288:	2a00001b 	bcs	0x30002fc
 300028c:	e1a00003 	mov	r0, r3
 3000290:	e5b03004 	ldr	r3, [r0, #4]!
 3000294:	e3530000 	cmp	r3, #0
 3000298:	1afffff6 	bne	0x3000278
 300029c:	e5950008 	ldr	r0, [r5, #8]
 30002a0:	e3500000 	cmp	r0, #0
 30002a4:	1a000002 	bne	0x30002b4
 30002a8:	e5950000 	ldr	r0, [r5]
 30002ac:	e1a0e00f 	mov	lr, pc
 30002b0:	e12fff10 	bx	r0
 30002b4:	e2601000 	rsb	r1, r0, #0
 30002b8:	e2011007 	and	r1, r1, #7
 30002bc:	e0816000 	add	r6, r1, r0
 30002c0:	e5950004 	ldr	r0, [r5, #4]
 30002c4:	e28670c8 	add	r7, r6, #200	@ 0xc8
 30002c8:	e1a0e00f 	mov	lr, pc
 30002cc:	e12fff10 	bx	r0
 30002d0:	e1570000 	cmp	r7, r0
 30002d4:	2a00048e 	bcs	0x3001514
 30002d8:	e3560000 	cmp	r6, #0
 30002dc:	e5857008 	str	r7, [r5, #8]
 30002e0:	0a00048b 	beq	0x3001514
 30002e4:	e58d6018 	str	r6, [sp, #24]
 30002e8:	e3a07000 	mov	r7, #0
 30002ec:	e3a00000 	mov	r0, #0
 30002f0:	ea00000a 	b	0x3000320
 30002f4:	e5931004 	ldr	r1, [r3, #4]
 30002f8:	ea000004 	b	0x3000310
 30002fc:	e24120c8 	sub	r2, r1, #200	@ 0xc8
 3000300:	e1a01003 	mov	r1, r3
 3000304:	e5a120c8 	str	r2, [r1, #200]!	@ 0xc8
 3000308:	e51120c4 	ldr	r2, [r1, #-196]	@ 0xffffff3c
 300030c:	e5812004 	str	r2, [r1, #4]
 3000310:	e5801000 	str	r1, [r0]
 3000314:	e5947000 	ldr	r7, [r4]
 3000318:	e5990000 	ldr	r0, [r9]
 300031c:	e58d3018 	str	r3, [sp, #24]
 3000320:	e58d0044 	str	r0, [sp, #68]	@ 0x44
 3000324:	e3a00001 	mov	r0, #1
 3000328:	e3a0100c 	mov	r1, #12
 300032c:	e1a0c004 	mov	ip, r4
 3000330:	e3a040cc 	mov	r4, #204	@ 0xcc
 3000334:	e59fad94 	ldr	sl, [pc, #3476]	@ 0x30010d0
 3000338:	e3a02906 	mov	r2, #98304	@ 0x18000
 300033c:	e3a060aa 	mov	r6, #170	@ 0xaa
 3000340:	e3a03801 	mov	r3, #65536	@ 0x10000
 3000344:	e24beb07 	sub	lr, fp, #7168	@ 0x1c00
 3000348:	e58d0048 	str	r0, [sp, #72]	@ 0x48
 300034c:	e0870187 	add	r0, r7, r7, lsl #3
 3000350:	e3844b13 	orr	r4, r4, #19456	@ 0x4c00
 3000354:	e3811b0f 	orr	r1, r1, #15360	@ 0x3c00
 3000358:	e3866caa 	orr	r6, r6, #43520	@ 0xaa00
 300035c:	e24e507c 	sub	r5, lr, #124	@ 0x7c
 3000360:	e0880100 	add	r0, r8, r0, lsl #2
 3000364:	e58d4050 	str	r4, [sp, #80]	@ 0x50
 3000368:	e7a02001 	str	r2, [r0, r1]!
 300036c:	e3a010a9 	mov	r1, #169	@ 0xa9
 3000370:	e58d304c 	str	r3, [sp, #76]	@ 0x4c
 3000374:	e58d4054 	str	r4, [sp, #84]	@ 0x54
 3000378:	e3811caa 	orr	r1, r1, #43520	@ 0xaa00
 300037c:	e5803008 	str	r3, [r0, #8]
 3000380:	e24a2902 	sub	r2, sl, #32768	@ 0x8000
 3000384:	e580300c 	str	r3, [r0, #12]
 3000388:	e5801004 	str	r1, [r0, #4]
 300038c:	e3a01000 	mov	r1, #0
 3000390:	e599e000 	ldr	lr, [r9]
 3000394:	e5cd1064 	strb	r1, [sp, #100]	@ 0x64
 3000398:	e58d1060 	str	r1, [sp, #96]	@ 0x60
 300039c:	e5cd105c 	strb	r1, [sp, #92]	@ 0x5c
 30003a0:	e58d1058 	str	r1, [sp, #88]	@ 0x58
 30003a4:	e5806024 	str	r6, [r0, #36]	@ 0x24
 30003a8:	e580101c 	str	r1, [r0, #28]
 30003ac:	e5c01018 	strb	r1, [r0, #24]
 30003b0:	e5801014 	str	r1, [r0, #20]
 30003b4:	e5803010 	str	r3, [r0, #16]
 30003b8:	e5802028 	str	r2, [r0, #40]	@ 0x28
 30003bc:	e580302c 	str	r3, [r0, #44]	@ 0x2c
 30003c0:	e5803030 	str	r3, [r0, #48]	@ 0x30
 30003c4:	e5803034 	str	r3, [r0, #52]	@ 0x34
 30003c8:	e5801038 	str	r1, [r0, #56]	@ 0x38
 30003cc:	e5c0103c 	strb	r1, [r0, #60]	@ 0x3c
 30003d0:	e5801040 	str	r1, [r0, #64]	@ 0x40
 30003d4:	e5c01044 	strb	r1, [r0, #68]	@ 0x44
 30003d8:	e5c01020 	strb	r1, [r0, #32]
 30003dc:	e2870002 	add	r0, r7, #2
 30003e0:	e3a06008 	mov	r6, #8
 30003e4:	e58c0000 	str	r0, [ip]
 30003e8:	e5990000 	ldr	r0, [r9]
 30003ec:	e3866b07 	orr	r6, r6, #7168	@ 0x1c00
 30003f0:	e59fccdc 	ldr	ip, [pc, #3292]	@ 0x30010d4
 30003f4:	e0882280 	add	r2, r8, r0, lsl #5
 30003f8:	e7a23006 	str	r3, [r2, r6]!
 30003fc:	e3a06066 	mov	r6, #102	@ 0x66
 3000400:	e5821018 	str	r1, [r2, #24]
 3000404:	e5c2101c 	strb	r1, [r2, #28]
 3000408:	e5c21014 	strb	r1, [r2, #20]
 300040c:	e5824004 	str	r4, [r2, #4]
 3000410:	e5824008 	str	r4, [r2, #8]
 3000414:	e582300c 	str	r3, [r2, #12]
 3000418:	e5821010 	str	r1, [r2, #16]
 300041c:	e2802001 	add	r2, r0, #1
 3000420:	e3866ce6 	orr	r6, r6, #58880	@ 0xe600
 3000424:	e59d7048 	ldr	r7, [sp, #72]	@ 0x48
 3000428:	e5892000 	str	r2, [r9]
 300042c:	e2882004 	add	r2, r8, #4
 3000430:	e3a09008 	mov	r9, #8
 3000434:	e0674187 	rsb	r4, r7, r7, lsl #3
 3000438:	e7a26104 	str	r6, [r2, r4, lsl #2]!
 300043c:	e59d4018 	ldr	r4, [sp, #24]
 3000440:	e5c21018 	strb	r1, [r2, #24]
 3000444:	e5821014 	str	r1, [r2, #20]
 3000448:	e5c21010 	strb	r1, [r2, #16]
 300044c:	e5826004 	str	r6, [r2, #4]
 3000450:	e5826008 	str	r6, [r2, #8]
 3000454:	e582100c 	str	r1, [r2, #12]
 3000458:	e3a02832 	mov	r2, #3276800	@ 0x320000
 300045c:	e3a068ff 	mov	r6, #16711680	@ 0xff0000
 3000460:	e38664ff 	orr	r6, r6, #-16777216	@ 0xff000000
 3000464:	e58420a8 	str	r2, [r4, #168]	@ 0xa8
 3000468:	e3a02001 	mov	r2, #1
 300046c:	e5840078 	str	r0, [r4, #120]	@ 0x78
 3000470:	e59f0c60 	ldr	r0, [pc, #3168]	@ 0x30010d8
 3000474:	e5c410c4 	strb	r1, [r4, #196]	@ 0xc4
 3000478:	e58410c0 	str	r1, [r4, #192]	@ 0xc0
 300047c:	e5c410bc 	strb	r1, [r4, #188]	@ 0xbc
 3000480:	e58410ac 	str	r1, [r4, #172]	@ 0xac
 3000484:	e58460b4 	str	r6, [r4, #180]	@ 0xb4
 3000488:	e58410b8 	str	r1, [r4, #184]	@ 0xb8
 300048c:	e5c410a4 	strb	r1, [r4, #164]	@ 0xa4
 3000490:	e5c4109c 	strb	r1, [r4, #156]	@ 0x9c
 3000494:	e5841098 	str	r1, [r4, #152]	@ 0x98
 3000498:	e5c41094 	strb	r1, [r4, #148]	@ 0x94
 300049c:	e5843084 	str	r3, [r4, #132]	@ 0x84
 30004a0:	e5841088 	str	r1, [r4, #136]	@ 0x88
 30004a4:	e584608c 	str	r6, [r4, #140]	@ 0x8c
 30004a8:	e5841090 	str	r1, [r4, #144]	@ 0x90
 30004ac:	e5c41074 	strb	r1, [r4, #116]	@ 0x74
 30004b0:	e5841070 	str	r1, [r4, #112]	@ 0x70
 30004b4:	e5c4106c 	strb	r1, [r4, #108]	@ 0x6c
 30004b8:	e584605c 	str	r6, [r4, #92]	@ 0x5c
 30004bc:	e5841060 	str	r1, [r4, #96]	@ 0x60
 30004c0:	e5846064 	str	r6, [r4, #100]	@ 0x64
 30004c4:	e5841068 	str	r1, [r4, #104]	@ 0x68
 30004c8:	e5c4104c 	strb	r1, [r4, #76]	@ 0x4c
 30004cc:	e5841048 	str	r1, [r4, #72]	@ 0x48
 30004d0:	e5c41044 	strb	r1, [r4, #68]	@ 0x44
 30004d4:	e5846034 	str	r6, [r4, #52]	@ 0x34
 30004d8:	e584603c 	str	r6, [r4, #60]	@ 0x3c
 30004dc:	e5841038 	str	r1, [r4, #56]	@ 0x38
 30004e0:	e5841040 	str	r1, [r4, #64]	@ 0x40
 30004e4:	e5c41024 	strb	r1, [r4, #36]	@ 0x24
 30004e8:	e5841020 	str	r1, [r4, #32]
 30004ec:	e5c4101c 	strb	r1, [r4, #28]
 30004f0:	e584100c 	str	r1, [r4, #12]
 30004f4:	e5841010 	str	r1, [r4, #16]
 30004f8:	e5841018 	str	r1, [r4, #24]
 30004fc:	e5c41004 	strb	r1, [r4, #4]
 3000500:	e58470a0 	str	r7, [r4, #160]	@ 0xa0
 3000504:	e584e050 	str	lr, [r4, #80]	@ 0x50
 3000508:	e3a06001 	mov	r6, #1
 300050c:	e58d203c 	str	r2, [sp, #60]	@ 0x3c
 3000510:	e5c4207c 	strb	r2, [r4, #124]	@ 0x7c
 3000514:	e3a02066 	mov	r2, #102	@ 0x66
 3000518:	e3822c66 	orr	r2, r2, #26112	@ 0x6600
 300051c:	e5842058 	str	r2, [r4, #88]	@ 0x58
 3000520:	e3a02002 	mov	r2, #2
 3000524:	e5c42054 	strb	r2, [r4, #84]	@ 0x54
 3000528:	e5c4202c 	strb	r2, [r4, #44]	@ 0x2c
 300052c:	e59d2044 	ldr	r2, [sp, #68]	@ 0x44
 3000530:	e58400b0 	str	r0, [r4, #176]	@ 0xb0
 3000534:	e3a00902 	mov	r0, #32768	@ 0x8000
 3000538:	e5840080 	str	r0, [r4, #128]	@ 0x80
 300053c:	e5840030 	str	r0, [r4, #48]	@ 0x30
 3000540:	e5840008 	str	r0, [r4, #8]
 3000544:	e2870001 	add	r0, r7, #1
 3000548:	e58d0048 	str	r0, [sp, #72]	@ 0x48
 300054c:	e5841000 	str	r1, [r4]
 3000550:	e3a00008 	mov	r0, #8
 3000554:	e585c000 	str	ip, [r5]
 3000558:	e5851004 	str	r1, [r5, #4]
 300055c:	e58d0038 	str	r0, [sp, #56]	@ 0x38
 3000560:	e5842028 	str	r2, [r4, #40]	@ 0x28
 3000564:	e59f2fbc 	ldr	r2, [pc, #4028]	@ 0x3001528
 3000568:	e5842014 	str	r2, [r4, #20]
 300056c:	e3a04001 	mov	r4, #1
 3000570:	e3540002 	cmp	r4, #2
 3000574:	e3a00008 	mov	r0, #8
 3000578:	e1a01004 	mov	r1, r4
 300057c:	e1a0700c 	mov	r7, ip
 3000580:	b2866001 	addlt	r6, r6, #1
 3000584:	eb0003ef 	bl	0x3001548
 3000588:	e0010490 	mul	r1, r0, r4
 300058c:	e3510008 	cmp	r1, #8
 3000590:	1a000009 	bne	0x30005bc
 3000594:	e0501004 	subs	r1, r0, r4
 3000598:	e1a0c007 	mov	ip, r7
 300059c:	42611000 	rsbmi	r1, r1, #0
 30005a0:	e1510009 	cmp	r1, r9
 30005a4:	b1a09001 	movlt	r9, r1
 30005a8:	b58d0038 	strlt	r0, [sp, #56]	@ 0x38
 30005ac:	b58d403c 	strlt	r4, [sp, #60]	@ 0x3c
 30005b0:	e3540001 	cmp	r4, #1
 30005b4:	da000003 	ble	0x30005c8
 30005b8:	ea000005 	b	0x30005d4
 30005bc:	e1a0c007 	mov	ip, r7
 30005c0:	e3540001 	cmp	r4, #1
 30005c4:	ca000002 	bgt	0x30005d4
 30005c8:	e3560003 	cmp	r6, #3
 30005cc:	e1a04006 	mov	r4, r6
 30005d0:	baffffe6 	blt	0x3000570
 30005d4:	e59d003c 	ldr	r0, [sp, #60]	@ 0x3c
 30005d8:	e3a02000 	mov	r2, #0
 30005dc:	e1b01800 	lsls	r1, r0, #16
 30005e0:	e1a03001 	mov	r3, r1
 30005e4:	42613000 	rsbmi	r3, r1, #0
 30005e8:	e3530801 	cmp	r3, #65536	@ 0x10000
 30005ec:	ba00000d 	blt	0x3000628
 30005f0:	e1a000a3 	lsr	r0, r3, #1
 30005f4:	e153000a 	cmp	r3, sl
 30005f8:	e2822001 	add	r2, r2, #1
 30005fc:	e1a03000 	mov	r3, r0
 3000600:	8afffffa 	bhi	0x30005f0
 3000604:	e202201f 	and	r2, r2, #31
 3000608:	e3510001 	cmp	r1, #1
 300060c:	ba000008 	blt	0x3000634
 3000610:	e3500801 	cmp	r0, #65536	@ 0x10000
 3000614:	2a0003bb 	bcs	0x3001508
 3000618:	e59f1f10 	ldr	r1, [pc, #3856]	@ 0x3001530
 300061c:	e7910100 	ldr	r0, [r1, r0, lsl #2]
 3000620:	e1a01250 	asr	r1, r0, r2
 3000624:	ea000008 	b	0x300064c
 3000628:	e1a00003 	mov	r0, r3
 300062c:	e3510001 	cmp	r1, #1
 3000630:	aafffff6 	bge	0x3000610
 3000634:	e3500801 	cmp	r0, #65536	@ 0x10000
 3000638:	2a0003b7 	bcs	0x300151c
 300063c:	e59f1eec 	ldr	r1, [pc, #3820]	@ 0x3001530
 3000640:	e7910100 	ldr	r0, [r1, r0, lsl #2]
 3000644:	e3a01000 	mov	r1, #0
 3000648:	e0411250 	sub	r1, r1, r0, asr r2
 300064c:	e59d0038 	ldr	r0, [sp, #56]	@ 0x38
 3000650:	e3a03000 	mov	r3, #0
 3000654:	e1b06800 	lsls	r6, r0, #16
 3000658:	e1a02006 	mov	r2, r6
 300065c:	42662000 	rsbmi	r2, r6, #0
 3000660:	e3520801 	cmp	r2, #65536	@ 0x10000
 3000664:	ba00000d 	blt	0x30006a0
 3000668:	e1a000a2 	lsr	r0, r2, #1
 300066c:	e152000a 	cmp	r2, sl
 3000670:	e2833001 	add	r3, r3, #1
 3000674:	e1a02000 	mov	r2, r0
 3000678:	8afffffa 	bhi	0x3000668
 300067c:	e203301f 	and	r3, r3, #31
 3000680:	e3560001 	cmp	r6, #1
 3000684:	ba000008 	blt	0x30006ac
 3000688:	e3500801 	cmp	r0, #65536	@ 0x10000
 300068c:	2a00039d 	bcs	0x3001508
 3000690:	e59f2e98 	ldr	r2, [pc, #3736]	@ 0x3001530
 3000694:	e7920100 	ldr	r0, [r2, r0, lsl #2]
 3000698:	e1a00350 	asr	r0, r0, r3
 300069c:	ea000008 	b	0x30006c4
 30006a0:	e1a00002 	mov	r0, r2
 30006a4:	e3560001 	cmp	r6, #1
 30006a8:	aafffff6 	bge	0x3000688
 30006ac:	e3500801 	cmp	r0, #65536	@ 0x10000
 30006b0:	2a000399 	bcs	0x300151c
 30006b4:	e59f2e74 	ldr	r2, [pc, #3700]	@ 0x3001530
 30006b8:	e7920100 	ldr	r0, [r2, r0, lsl #2]
 30006bc:	e3a02000 	mov	r2, #0
 30006c0:	e0420350 	sub	r0, r2, r0, asr r3
 30006c4:	e59d203c 	ldr	r2, [sp, #60]	@ 0x3c
 30006c8:	e3520001 	cmp	r2, #1
 30006cc:	a59d2038 	ldrge	r2, [sp, #56]	@ 0x38
 30006d0:	a3520001 	cmpge	r2, #1
 30006d4:	ba00004e 	blt	0x3000814
 30006d8:	e3a06031 	mov	r6, #49	@ 0x31
 30006dc:	e3e07031 	mvn	r7, #49	@ 0x31
 30006e0:	e59f4e50 	ldr	r4, [pc, #3664]	@ 0x3001538
 30006e4:	e24beb07 	sub	lr, fp, #7168	@ 0x1c00
 30006e8:	e3866c03 	orr	r6, r6, #768	@ 0x300
 30006ec:	e2477c03 	sub	r7, r7, #768	@ 0x300
 30006f0:	e24e5078 	sub	r5, lr, #120	@ 0x78
 30006f4:	e0c32691 	smull	r2, r3, r1, r6
 30006f8:	e1a01822 	lsr	r1, r2, #16
 30006fc:	e1816803 	orr	r6, r1, r3, lsl #16
 3000700:	e0821790 	umull	r1, r2, r0, r7
 3000704:	e0422000 	sub	r2, r2, r0
 3000708:	e1a00fc0 	asr	r0, r0, #31
 300070c:	e0232790 	mla	r3, r0, r7, r2
 3000710:	e59f7e24 	ldr	r7, [pc, #3620]	@ 0x300153c
 3000714:	e1a00821 	lsr	r0, r1, #16
 3000718:	e3a01000 	mov	r1, #0
 300071c:	e3a02000 	mov	r2, #0
 3000720:	e1808803 	orr	r8, r0, r3, lsl #16
 3000724:	e3a03000 	mov	r3, #0
 3000728:	e59da038 	ldr	sl, [sp, #56]	@ 0x38
 300072c:	e0000693 	mul	r0, r3, r6
 3000730:	e58d3040 	str	r3, [sp, #64]	@ 0x40
 3000734:	e0623182 	rsb	r3, r2, r2, lsl #3
 3000738:	e3a0e000 	mov	lr, #0
 300073c:	e1a09103 	lsl	r9, r3, #2
 3000740:	e58d0044 	str	r0, [sp, #68]	@ 0x44
 3000744:	e0853009 	add	r3, r5, r9
 3000748:	e1a00008 	mov	r0, r8
 300074c:	e028749c 	mla	r8, ip, r4, r7
 3000750:	e1a05007 	mov	r5, r7
 3000754:	e2822001 	add	r2, r2, #1
 3000758:	e25aa001 	subs	sl, sl, #1
 300075c:	e289901c 	add	r9, r9, #28
 3000760:	e5c3101c 	strb	r1, [r3, #28]
 3000764:	e5831018 	str	r1, [r3, #24]
 3000768:	e5c31014 	strb	r1, [r3, #20]
 300076c:	e5831010 	str	r1, [r3, #16]
 3000770:	e583100c 	str	r1, [r3, #12]
 3000774:	e3a01001 	mov	r1, #1
 3000778:	e00170a8 	and	r7, r1, r8, lsr #1
 300077c:	e1a01004 	mov	r1, r4
 3000780:	e0877848 	add	r7, r7, r8, asr #16
 3000784:	e0c4c697 	smull	ip, r4, r7, r6
 3000788:	e1a0782c 	lsr	r7, ip, #16
 300078c:	e02c5198 	mla	ip, r8, r1, r5
 3000790:	e1a08000 	mov	r8, r0
 3000794:	e3a00001 	mov	r0, #1
 3000798:	e1877804 	orr	r7, r7, r4, lsl #16
 300079c:	e59d4044 	ldr	r4, [sp, #68]	@ 0x44
 30007a0:	e0847007 	add	r7, r4, r7
 30007a4:	e00040ac 	and	r4, r0, ip, lsr #1
 30007a8:	e084484c 	add	r4, r4, ip, asr #16
 30007ac:	e5837004 	str	r7, [r3, #4]
 30007b0:	e1a07006 	mov	r7, r6
 30007b4:	e0c06498 	smull	r6, r0, r8, r4
 30007b8:	e1a04001 	mov	r4, r1
 30007bc:	e3a01000 	mov	r1, #0
 30007c0:	e1a06826 	lsr	r6, r6, #16
 30007c4:	e1860800 	orr	r0, r6, r0, lsl #16
 30007c8:	e1a06007 	mov	r6, r7
 30007cc:	e1a07005 	mov	r7, r5
 30007d0:	e24b5b07 	sub	r5, fp, #7168	@ 0x1c00
 30007d4:	e08e0000 	add	r0, lr, r0
 30007d8:	e2455078 	sub	r5, r5, #120	@ 0x78
 30007dc:	e08ee008 	add	lr, lr, r8
 30007e0:	e5830008 	str	r0, [r3, #8]
 30007e4:	e24b0b07 	sub	r0, fp, #7168	@ 0x1c00
 30007e8:	e240007c 	sub	r0, r0, #124	@ 0x7c
 30007ec:	e5802004 	str	r2, [r0, #4]
 30007f0:	1affffd3 	bne	0x3000744
 30007f4:	e59d3040 	ldr	r3, [sp, #64]	@ 0x40
 30007f8:	e59d003c 	ldr	r0, [sp, #60]	@ 0x3c
 30007fc:	e2833001 	add	r3, r3, #1
 3000800:	e1530000 	cmp	r3, r0
 3000804:	1affffc7 	bne	0x3000728
 3000808:	e24beb07 	sub	lr, fp, #7168	@ 0x1c00
 300080c:	e24e507c 	sub	r5, lr, #124	@ 0x7c
 3000810:	e585c000 	str	ip, [r5]
 3000814:	e59f7d24 	ldr	r7, [pc, #3364]	@ 0x3001540
 3000818:	e24beb07 	sub	lr, fp, #7168	@ 0x1c00
 300081c:	e3a08067 	mov	r8, #103	@ 0x67
 3000820:	e3a04000 	mov	r4, #0
 3000824:	e3a06d2d 	mov	r6, #2880	@ 0xb40
 3000828:	e24e0078 	sub	r0, lr, #120	@ 0x78
 300082c:	e3888cfe 	orr	r8, r8, #65024	@ 0xfe00
 3000830:	e2800004 	add	r0, r0, #4
 3000834:	e58d0014 	str	r0, [sp, #20]
 3000838:	e2870e5a 	add	r0, r7, #1440	@ 0x5a0
 300083c:	e58d0010 	str	r0, [sp, #16]
 3000840:	e2870d2d 	add	r0, r7, #2880	@ 0xb40
 3000844:	e58d000c 	str	r0, [sp, #12]
 3000848:	e3a00000 	mov	r0, #0
 300084c:	e58d0020 	str	r0, [sp, #32]
 3000850:	ea000008 	b	0x3000878
 3000854:	e59d0020 	ldr	r0, [sp, #32]
 3000858:	e59d801c 	ldr	r8, [sp, #28]
 300085c:	e59f7cdc 	ldr	r7, [pc, #3292]	@ 0x3001540
 3000860:	e3a04000 	mov	r4, #0
 3000864:	e3a06d2d 	mov	r6, #2880	@ 0xb40
 3000868:	e2800001 	add	r0, r0, #1
 300086c:	e35000a0 	cmp	r0, #160	@ 0xa0
 3000870:	e58d0020 	str	r0, [sp, #32]
 3000874:	0a00031c 	beq	0x30014ec
 3000878:	e59d9010 	ldr	r9, [sp, #16]
 300087c:	e1a00007 	mov	r0, r7
 3000880:	e3a02e5a 	mov	r2, #1440	@ 0x5a0
 3000884:	e1a01009 	mov	r1, r9
 3000888:	ebfffddc 	bl	0x3000000
 300088c:	e59d100c 	ldr	r1, [sp, #12]
 3000890:	e1a00009 	mov	r0, r9
 3000894:	e3a02e5a 	mov	r2, #1440	@ 0x5a0
 3000898:	ebfffdd8 	bl	0x3000000
 300089c:	e3a00000 	mov	r0, #0
 30008a0:	e0871000 	add	r1, r7, r0
 30008a4:	e2800006 	add	r0, r0, #6
 30008a8:	e1a140b6 	strh	r4, [r1, r6]!
 30008ac:	e3500e5a 	cmp	r0, #1440	@ 0x5a0
 30008b0:	e1c140b4 	strh	r4, [r1, #4]
 30008b4:	e1c140b2 	strh	r4, [r1, #2]
 30008b8:	1afffff8 	bne	0x30008a0
 30008bc:	e59fac80 	ldr	sl, [pc, #3200]	@ 0x3001544
 30008c0:	e3e00031 	mvn	r0, #49	@ 0x31
 30008c4:	e28dc048 	add	ip, sp, #72	@ 0x48
 30008c8:	e2400c03 	sub	r0, r0, #768	@ 0x300
 30008cc:	e0888000 	add	r8, r8, r0
 30008d0:	e3a00000 	mov	r0, #0
 30008d4:	e58d801c 	str	r8, [sp, #28]
 30008d8:	e58d0038 	str	r0, [sp, #56]	@ 0x38
 30008dc:	ea000063 	b	0x3000a70
 30008e0:	e59d0024 	ldr	r0, [sp, #36]	@ 0x24
 30008e4:	e20000ff 	and	r0, r0, #255	@ 0xff
 30008e8:	eb000318 	bl	0x3001550
 30008ec:	e3a015ee 	mov	r1, #998244352	@ 0x3b800000
 30008f0:	eb000318 	bl	0x3001558
 30008f4:	e3a0851e 	mov	r8, #125829120	@ 0x7800000
 30008f8:	e3888101 	orr	r8, r8, #1073741824	@ 0x40000000
 30008fc:	e1a01008 	mov	r1, r8
 3000900:	eb000314 	bl	0x3001558
 3000904:	e3a014cf 	mov	r1, #-822083584	@ 0xcf000000
 3000908:	e1a04000 	mov	r4, r0
 300090c:	eb000313 	bl	0x3001560
 3000910:	e1a05000 	mov	r5, r0
 3000914:	e1a00004 	mov	r0, r4
 3000918:	eb000312 	bl	0x3001568
 300091c:	e1a06000 	mov	r6, r0
 3000920:	e3550000 	cmp	r5, #0
 3000924:	e1a00004 	mov	r0, r4
 3000928:	e3e014b1 	mvn	r1, #-1325400064	@ 0xb1000000
 300092c:	03a06102 	moveq	r6, #-2147483648	@ 0x80000000
 3000930:	eb00030e 	bl	0x3001570
 3000934:	e3500000 	cmp	r0, #0
 3000938:	e1a00004 	mov	r0, r4
 300093c:	e1a01004 	mov	r1, r4
 3000940:	13e06102 	mvnne	r6, #-2147483648	@ 0x80000000
 3000944:	eb00030b 	bl	0x3001578
 3000948:	e3500000 	cmp	r0, #0
 300094c:	e3a00b3f 	mov	r0, #64512	@ 0xfc00
 3000950:	13a06000 	movne	r6, #0
 3000954:	e00070a6 	and	r7, r0, r6, lsr #1
 3000958:	e59d0030 	ldr	r0, [sp, #48]	@ 0x30
 300095c:	e20000ff 	and	r0, r0, #255	@ 0xff
 3000960:	eb0002fa 	bl	0x3001550
 3000964:	e3a015ee 	mov	r1, #998244352	@ 0x3b800000
 3000968:	eb0002fa 	bl	0x3001558
 300096c:	e1a01008 	mov	r1, r8
 3000970:	eb0002f8 	bl	0x3001558
 3000974:	e3a014cf 	mov	r1, #-822083584	@ 0xcf000000
 3000978:	e1a04000 	mov	r4, r0
 300097c:	eb0002f7 	bl	0x3001560
 3000980:	e1a05000 	mov	r5, r0
 3000984:	e1a00004 	mov	r0, r4
 3000988:	eb0002f6 	bl	0x3001568
 300098c:	e1a06000 	mov	r6, r0
 3000990:	e3550000 	cmp	r5, #0
 3000994:	e1a00004 	mov	r0, r4
 3000998:	e3e014b1 	mvn	r1, #-1325400064	@ 0xb1000000
 300099c:	03a06102 	moveq	r6, #-2147483648	@ 0x80000000
 30009a0:	eb0002f2 	bl	0x3001570
 30009a4:	e3500000 	cmp	r0, #0
 30009a8:	e1a00004 	mov	r0, r4
 30009ac:	e1a01004 	mov	r1, r4
 30009b0:	13e06102 	mvnne	r6, #-2147483648	@ 0x80000000
 30009b4:	eb0002ef 	bl	0x3001578
 30009b8:	e3500000 	cmp	r0, #0
 30009bc:	e3e0001f 	mvn	r0, #31
 30009c0:	13a06000 	movne	r6, #0
 30009c4:	e0000326 	and	r0, r0, r6, lsr #6
 30009c8:	e1807007 	orr	r7, r0, r7
 30009cc:	e59d0034 	ldr	r0, [sp, #52]	@ 0x34
 30009d0:	e20000ff 	and	r0, r0, #255	@ 0xff
 30009d4:	eb0002dd 	bl	0x3001550
 30009d8:	e3a015ee 	mov	r1, #998244352	@ 0x3b800000
 30009dc:	eb0002dd 	bl	0x3001558
 30009e0:	e1a01008 	mov	r1, r8
 30009e4:	eb0002db 	bl	0x3001558
 30009e8:	e3a014cf 	mov	r1, #-822083584	@ 0xcf000000
 30009ec:	e1a04000 	mov	r4, r0
 30009f0:	eb0002da 	bl	0x3001560
 30009f4:	e1a05000 	mov	r5, r0
 30009f8:	e1a00004 	mov	r0, r4
 30009fc:	eb0002d9 	bl	0x3001568
 3000a00:	e1a06000 	mov	r6, r0
 3000a04:	e3550000 	cmp	r5, #0
 3000a08:	e1a00004 	mov	r0, r4
 3000a0c:	e3e014b1 	mvn	r1, #-1325400064	@ 0xb1000000
 3000a10:	03a06102 	moveq	r6, #-2147483648	@ 0x80000000
 3000a14:	eb0002d5 	bl	0x3001570
 3000a18:	e3500000 	cmp	r0, #0
 3000a1c:	e1a00004 	mov	r0, r4
 3000a20:	e1a01004 	mov	r1, r4
 3000a24:	13e06102 	mvnne	r6, #-2147483648	@ 0x80000000
 3000a28:	eb0002d2 	bl	0x3001578
 3000a2c:	e59d1020 	ldr	r1, [sp, #32]
 3000a30:	e3500000 	cmp	r0, #0
 3000a34:	e3a02406 	mov	r2, #100663296	@ 0x6000000
 3000a38:	e24beb07 	sub	lr, fp, #7168	@ 0x1c00
 3000a3c:	e28dc048 	add	ip, sp, #72	@ 0x48
 3000a40:	13a06000 	movne	r6, #0
 3000a44:	e24e507c 	sub	r5, lr, #124	@ 0x7c
 3000a48:	e18705a6 	orr	r0, r7, r6, lsr #11
 3000a4c:	e0611201 	rsb	r1, r1, r1, lsl #4
 3000a50:	e1a01281 	lsl	r1, r1, #5
 3000a54:	e081108a 	add	r1, r1, sl, lsl #1
 3000a58:	e18100b2 	strh	r0, [r1, r2]
 3000a5c:	e59d002c 	ldr	r0, [sp, #44]	@ 0x2c
 3000a60:	e59da040 	ldr	sl, [sp, #64]	@ 0x40
 3000a64:	e35000f0 	cmp	r0, #240	@ 0xf0
 3000a68:	e58d0038 	str	r0, [sp, #56]	@ 0x38
 3000a6c:	0affff78 	beq	0x3000854
 3000a70:	e3a00031 	mov	r0, #49	@ 0x31
 3000a74:	e59de018 	ldr	lr, [sp, #24]
 3000a78:	e59d701c 	ldr	r7, [sp, #28]
 3000a7c:	e3a03000 	mov	r3, #0
 3000a80:	e3a09000 	mov	r9, #0
 3000a84:	e3a04000 	mov	r4, #0
 3000a88:	e3a02000 	mov	r2, #0
 3000a8c:	e3a08008 	mov	r8, #8
 3000a90:	e3800c03 	orr	r0, r0, #768	@ 0x300
 3000a94:	e08aa000 	add	sl, sl, r0
 3000a98:	e5950004 	ldr	r0, [r5, #4]
 3000a9c:	e58da040 	str	sl, [sp, #64]	@ 0x40
 3000aa0:	e3500000 	cmp	r0, #0
 3000aa4:	0a000035 	beq	0x3000b80
 3000aa8:	e59d6014 	ldr	r6, [sp, #20]
 3000aac:	e0600180 	rsb	r0, r0, r0, lsl #3
 3000ab0:	e0860100 	add	r0, r6, r0, lsl #2
 3000ab4:	e58d003c 	str	r0, [sp, #60]	@ 0x3c
 3000ab8:	e54b2064 	strb	r2, [fp, #-100]	@ 0xffffff9c
 3000abc:	e50b2068 	str	r2, [fp, #-104]	@ 0xffffff98
 3000ac0:	e50b206c 	str	r2, [fp, #-108]	@ 0xffffff94
 3000ac4:	e50b2070 	str	r2, [fp, #-112]	@ 0xffffff90
 3000ac8:	e50b2074 	str	r2, [fp, #-116]	@ 0xffffff8c
 3000acc:	e54b205c 	strb	r2, [fp, #-92]	@ 0xffffffa4
 3000ad0:	e50b2060 	str	r2, [fp, #-96]	@ 0xffffffa0
 3000ad4:	e54b2040 	strb	r2, [fp, #-64]	@ 0xffffffc0
 3000ad8:	e50b2044 	str	r2, [fp, #-68]	@ 0xffffffbc
 3000adc:	e54b2048 	strb	r2, [fp, #-72]	@ 0xffffffb8
 3000ae0:	e50b204c 	str	r2, [fp, #-76]	@ 0xffffffb4
 3000ae4:	e8960007 	ldm	r6, {r0, r1, r2}
 3000ae8:	e88d1120 	stm	sp, {r5, r8, ip}
 3000aec:	e58d4044 	str	r4, [sp, #68]	@ 0x44
 3000af0:	e1a0800c 	mov	r8, ip
 3000af4:	e1a04007 	mov	r4, r7
 3000af8:	e0811007 	add	r1, r1, r7
 3000afc:	e2422801 	sub	r2, r2, #65536	@ 0x10000
 3000b00:	e1a07009 	mov	r7, r9
 3000b04:	e1a0900e 	mov	r9, lr
 3000b08:	e50b2050 	str	r2, [fp, #-80]	@ 0xffffffb0
 3000b0c:	e50b1054 	str	r1, [fp, #-84]	@ 0xffffffac
 3000b10:	e1a0100e 	mov	r1, lr
 3000b14:	e3a02005 	mov	r2, #5
 3000b18:	e080000a 	add	r0, r0, sl
 3000b1c:	e1a0a005 	mov	sl, r5
 3000b20:	e1a05003 	mov	r5, r3
 3000b24:	e24b3074 	sub	r3, fp, #116	@ 0x74
 3000b28:	e50b0058 	str	r0, [fp, #-88]	@ 0xffffffa8
 3000b2c:	e24b003c 	sub	r0, fp, #60	@ 0x3c
 3000b30:	eb000292 	bl	0x3001580
 3000b34:	e24b203c 	sub	r2, fp, #60	@ 0x3c
 3000b38:	e1a0e009 	mov	lr, r9
 3000b3c:	e1a09007 	mov	r9, r7
 3000b40:	e1a07004 	mov	r7, r4
 3000b44:	e59d4044 	ldr	r4, [sp, #68]	@ 0x44
 3000b48:	e1a03005 	mov	r3, r5
 3000b4c:	e1a0500a 	mov	r5, sl
 3000b50:	e59da040 	ldr	sl, [sp, #64]	@ 0x40
 3000b54:	e286601c 	add	r6, r6, #28
 3000b58:	e1a0c008 	mov	ip, r8
 3000b5c:	e3a08008 	mov	r8, #8
 3000b60:	e8920007 	ldm	r2, {r0, r1, r2}
 3000b64:	e0823003 	add	r3, r2, r3
 3000b68:	e0819009 	add	r9, r1, r9
 3000b6c:	e3a02000 	mov	r2, #0
 3000b70:	e0804004 	add	r4, r0, r4
 3000b74:	e59d003c 	ldr	r0, [sp, #60]	@ 0x3c
 3000b78:	e1560000 	cmp	r6, r0
 3000b7c:	1affffcd 	bne	0x3000ab8
 3000b80:	e0640684 	rsb	r0, r4, r4, lsl #13
 3000b84:	e58d303c 	str	r3, [sp, #60]	@ 0x3c
 3000b88:	e1a00c20 	lsr	r0, r0, #24
 3000b8c:	eb00026f 	bl	0x3001550
 3000b90:	eb00027c 	bl	0x3001588
 3000b94:	e1a04000 	mov	r4, r0
 3000b98:	e59d0038 	ldr	r0, [sp, #56]	@ 0x38
 3000b9c:	e59fa99c 	ldr	sl, [pc, #2460]	@ 0x3001540
 3000ba0:	e0800080 	add	r0, r0, r0, lsl #1
 3000ba4:	e58d0028 	str	r0, [sp, #40]	@ 0x28
 3000ba8:	e1a00080 	lsl	r0, r0, #1
 3000bac:	e1ba00b0 	ldrh	r0, [sl, r0]!	@ <UNPREDICTABLE>
 3000bb0:	e58da044 	str	sl, [sp, #68]	@ 0x44
 3000bb4:	eb000275 	bl	0x3001590
 3000bb8:	e3a080ff 	mov	r8, #255	@ 0xff
 3000bbc:	e1a05000 	mov	r5, r0
 3000bc0:	e3888cff 	orr	r8, r8, #65280	@ 0xff00
 3000bc4:	e0040008 	and	r0, r4, r8
 3000bc8:	eb000270 	bl	0x3001590
 3000bcc:	e1a01000 	mov	r1, r0
 3000bd0:	e1a00005 	mov	r0, r5
 3000bd4:	eb00026f 	bl	0x3001598
 3000bd8:	eb00026a 	bl	0x3001588
 3000bdc:	e0000008 	and	r0, r0, r8
 3000be0:	eb00026a 	bl	0x3001590
 3000be4:	e3a0187f 	mov	r1, #8323072	@ 0x7f0000
 3000be8:	e3811443 	orr	r1, r1, #1124073472	@ 0x43000000
 3000bec:	eb00026b 	bl	0x30015a0
 3000bf0:	eb000264 	bl	0x3001588
 3000bf4:	e0006008 	and	r6, r0, r8
 3000bf8:	e1a05000 	mov	r5, r0
 3000bfc:	e3560b3f 	cmp	r6, #64512	@ 0xfc00
 3000c00:	1a00000f 	bne	0x3000c44
 3000c04:	e1a00006 	mov	r0, r6
 3000c08:	eb000260 	bl	0x3001590
 3000c0c:	e1a01000 	mov	r1, r0
 3000c10:	eb000264 	bl	0x30015a8
 3000c14:	eb00025b 	bl	0x3001588
 3000c18:	e0000008 	and	r0, r0, r8
 3000c1c:	eb00025b 	bl	0x3001590
 3000c20:	e3a0143f 	mov	r1, #1056964608	@ 0x3f000000
 3000c24:	eb000261 	bl	0x30015b0
 3000c28:	e59da038 	ldr	sl, [sp, #56]	@ 0x38
 3000c2c:	e3500000 	cmp	r0, #0
 3000c30:	1a00003a 	bne	0x3000d20
 3000c34:	e3a000ff 	mov	r0, #255	@ 0xff
 3000c38:	e3800c7f 	orr	r0, r0, #32512	@ 0x7f00
 3000c3c:	e0057000 	and	r7, r5, r0
 3000c40:	ea00002d 	b	0x3000cfc
 3000c44:	e3a000ff 	mov	r0, #255	@ 0xff
 3000c48:	e3800c7f 	orr	r0, r0, #32512	@ 0x7f00
 3000c4c:	e0157000 	ands	r7, r5, r0
 3000c50:	0a000017 	beq	0x3000cb4
 3000c54:	e1560007 	cmp	r6, r7
 3000c58:	e3a00001 	mov	r0, #1
 3000c5c:	01a00008 	moveq	r0, r8
 3000c60:	e080a005 	add	sl, r0, r5
 3000c64:	e1a00006 	mov	r0, r6
 3000c68:	eb000248 	bl	0x3001590
 3000c6c:	e1a04000 	mov	r4, r0
 3000c70:	e00a0008 	and	r0, sl, r8
 3000c74:	eb000245 	bl	0x3001590
 3000c78:	e1a01000 	mov	r1, r0
 3000c7c:	e1a00004 	mov	r0, r4
 3000c80:	eb000248 	bl	0x30015a8
 3000c84:	eb00023f 	bl	0x3001588
 3000c88:	e0000008 	and	r0, r0, r8
 3000c8c:	eb00023f 	bl	0x3001590
 3000c90:	e3a0143f 	mov	r1, #1056964608	@ 0x3f000000
 3000c94:	eb000245 	bl	0x30015b0
 3000c98:	e59da038 	ldr	sl, [sp, #56]	@ 0x38
 3000c9c:	e3500000 	cmp	r0, #0
 3000ca0:	0a000013 	beq	0x3000cf4
 3000ca4:	e1560007 	cmp	r6, r7
 3000ca8:	0a000019 	beq	0x3000d14
 3000cac:	e2850001 	add	r0, r5, #1
 3000cb0:	ea00000d 	b	0x3000cec
 3000cb4:	e1a00006 	mov	r0, r6
 3000cb8:	eb000234 	bl	0x3001590
 3000cbc:	e3a015ce 	mov	r1, #864026624	@ 0x33800000
 3000cc0:	eb000234 	bl	0x3001598
 3000cc4:	eb00022f 	bl	0x3001588
 3000cc8:	e0000008 	and	r0, r0, r8
 3000ccc:	eb00022f 	bl	0x3001590
 3000cd0:	e3a0143f 	mov	r1, #1056964608	@ 0x3f000000
 3000cd4:	eb000235 	bl	0x30015b0
 3000cd8:	e59da038 	ldr	sl, [sp, #56]	@ 0x38
 3000cdc:	e3500000 	cmp	r0, #0
 3000ce0:	e3a00001 	mov	r0, #1
 3000ce4:	e3800902 	orr	r0, r0, #32768	@ 0x8000
 3000ce8:	0a000001 	beq	0x3000cf4
 3000cec:	e1a05000 	mov	r5, r0
 3000cf0:	ea00000a 	b	0x3000d20
 3000cf4:	e3560b1f 	cmp	r6, #31744	@ 0x7c00
 3000cf8:	0a000008 	beq	0x3000d20
 3000cfc:	e3570000 	cmp	r7, #0
 3000d00:	0a000005 	beq	0x3000d1c
 3000d04:	e1570006 	cmp	r7, r6
 3000d08:	1a000001 	bne	0x3000d14
 3000d0c:	e2855001 	add	r5, r5, #1
 3000d10:	ea000002 	b	0x3000d20
 3000d14:	e2455001 	sub	r5, r5, #1
 3000d18:	ea000000 	b	0x3000d20
 3000d1c:	e3a05001 	mov	r5, #1
 3000d20:	e3a020ff 	mov	r2, #255	@ 0xff
 3000d24:	e3822c1f 	orr	r2, r2, #7936	@ 0x1f00
 3000d28:	e0810299 	umull	r0, r1, r9, r2
 3000d2c:	e1a00c20 	lsr	r0, r0, #24
 3000d30:	e1809401 	orr	r9, r0, r1, lsl #8
 3000d34:	e0050008 	and	r0, r5, r8
 3000d38:	eb000214 	bl	0x3001590
 3000d3c:	e3a01000 	mov	r1, #0
 3000d40:	e1a04000 	mov	r4, r0
 3000d44:	eb000205 	bl	0x3001560
 3000d48:	e1a05000 	mov	r5, r0
 3000d4c:	e1a00004 	mov	r0, r4
 3000d50:	eb000218 	bl	0x30015b8
 3000d54:	e3a0787f 	mov	r7, #8323072	@ 0x7f0000
 3000d58:	e1a06000 	mov	r6, r0
 3000d5c:	e3550000 	cmp	r5, #0
 3000d60:	e1a00004 	mov	r0, r4
 3000d64:	e3877443 	orr	r7, r7, #1124073472	@ 0x43000000
 3000d68:	01a06005 	moveq	r6, r5
 3000d6c:	e1a01007 	mov	r1, r7
 3000d70:	eb0001fe 	bl	0x3001570
 3000d74:	e3500000 	cmp	r0, #0
 3000d78:	e20900ff 	and	r0, r9, #255	@ 0xff
 3000d7c:	13a060ff 	movne	r6, #255	@ 0xff
 3000d80:	e58d6034 	str	r6, [sp, #52]	@ 0x34
 3000d84:	eb0001f1 	bl	0x3001550
 3000d88:	eb0001fe 	bl	0x3001588
 3000d8c:	e1a04000 	mov	r4, r0
 3000d90:	e59d0044 	ldr	r0, [sp, #68]	@ 0x44
 3000d94:	e1d000b2 	ldrh	r0, [r0, #2]
 3000d98:	eb0001fc 	bl	0x3001590
 3000d9c:	e1a05000 	mov	r5, r0
 3000da0:	e0040008 	and	r0, r4, r8
 3000da4:	eb0001f9 	bl	0x3001590
 3000da8:	e1a01000 	mov	r1, r0
 3000dac:	e1a00005 	mov	r0, r5
 3000db0:	eb0001f8 	bl	0x3001598
 3000db4:	eb0001f3 	bl	0x3001588
 3000db8:	e0000008 	and	r0, r0, r8
 3000dbc:	eb0001f3 	bl	0x3001590
 3000dc0:	e1a01007 	mov	r1, r7
 3000dc4:	eb0001f5 	bl	0x30015a0
 3000dc8:	eb0001ee 	bl	0x3001588
 3000dcc:	e0006008 	and	r6, r0, r8
 3000dd0:	e1a05000 	mov	r5, r0
 3000dd4:	e3560b3f 	cmp	r6, #64512	@ 0xfc00
 3000dd8:	1a00000f 	bne	0x3000e1c
 3000ddc:	e1a00006 	mov	r0, r6
 3000de0:	eb0001ea 	bl	0x3001590
 3000de4:	e1a01000 	mov	r1, r0
 3000de8:	eb0001ee 	bl	0x30015a8
 3000dec:	eb0001e5 	bl	0x3001588
 3000df0:	e0000008 	and	r0, r0, r8
 3000df4:	eb0001e5 	bl	0x3001590
 3000df8:	e3a0143f 	mov	r1, #1056964608	@ 0x3f000000
 3000dfc:	eb0001eb 	bl	0x30015b0
 3000e00:	e59d303c 	ldr	r3, [sp, #60]	@ 0x3c
 3000e04:	e3500000 	cmp	r0, #0
 3000e08:	1a00003b 	bne	0x3000efc
 3000e0c:	e3a000ff 	mov	r0, #255	@ 0xff
 3000e10:	e3800c7f 	orr	r0, r0, #32512	@ 0x7f00
 3000e14:	e0059000 	and	r9, r5, r0
 3000e18:	ea00002e 	b	0x3000ed8
 3000e1c:	e3a000ff 	mov	r0, #255	@ 0xff
 3000e20:	e3800c7f 	orr	r0, r0, #32512	@ 0x7f00
 3000e24:	e0159000 	ands	r9, r5, r0
 3000e28:	0a000018 	beq	0x3000e90
 3000e2c:	e1560009 	cmp	r6, r9
 3000e30:	e3a00001 	mov	r0, #1
 3000e34:	01a00008 	moveq	r0, r8
 3000e38:	e0804005 	add	r4, r0, r5
 3000e3c:	e1a00006 	mov	r0, r6
 3000e40:	eb0001d2 	bl	0x3001590
 3000e44:	e1a0a000 	mov	sl, r0
 3000e48:	e0040008 	and	r0, r4, r8
 3000e4c:	eb0001cf 	bl	0x3001590
 3000e50:	e1a01000 	mov	r1, r0
 3000e54:	e1a0000a 	mov	r0, sl
 3000e58:	e59da038 	ldr	sl, [sp, #56]	@ 0x38
 3000e5c:	eb0001d1 	bl	0x30015a8
 3000e60:	eb0001c8 	bl	0x3001588
 3000e64:	e0000008 	and	r0, r0, r8
 3000e68:	eb0001c8 	bl	0x3001590
 3000e6c:	e3a0143f 	mov	r1, #1056964608	@ 0x3f000000
 3000e70:	eb0001ce 	bl	0x30015b0
 3000e74:	e59d303c 	ldr	r3, [sp, #60]	@ 0x3c
 3000e78:	e3500000 	cmp	r0, #0
 3000e7c:	0a000013 	beq	0x3000ed0
 3000e80:	e1560009 	cmp	r6, r9
 3000e84:	0a000019 	beq	0x3000ef0
 3000e88:	e2850001 	add	r0, r5, #1
 3000e8c:	ea00000d 	b	0x3000ec8
 3000e90:	e1a00006 	mov	r0, r6
 3000e94:	eb0001bd 	bl	0x3001590
 3000e98:	e3a015ce 	mov	r1, #864026624	@ 0x33800000
 3000e9c:	eb0001bd 	bl	0x3001598
 3000ea0:	eb0001b8 	bl	0x3001588
 3000ea4:	e0000008 	and	r0, r0, r8
 3000ea8:	eb0001b8 	bl	0x3001590
 3000eac:	e3a0143f 	mov	r1, #1056964608	@ 0x3f000000
 3000eb0:	eb0001be 	bl	0x30015b0
 3000eb4:	e59d303c 	ldr	r3, [sp, #60]	@ 0x3c
 3000eb8:	e3500000 	cmp	r0, #0
 3000ebc:	e3a00001 	mov	r0, #1
 3000ec0:	e3800902 	orr	r0, r0, #32768	@ 0x8000
 3000ec4:	0a000001 	beq	0x3000ed0
 3000ec8:	e1a05000 	mov	r5, r0
 3000ecc:	ea00000a 	b	0x3000efc
 3000ed0:	e3560b1f 	cmp	r6, #31744	@ 0x7c00
 3000ed4:	0a000008 	beq	0x3000efc
 3000ed8:	e3590000 	cmp	r9, #0
 3000edc:	0a000005 	beq	0x3000ef8
 3000ee0:	e1590006 	cmp	r9, r6
 3000ee4:	1a000001 	bne	0x3000ef0
 3000ee8:	e2855001 	add	r5, r5, #1
 3000eec:	ea000002 	b	0x3000efc
 3000ef0:	e2455001 	sub	r5, r5, #1
 3000ef4:	ea000000 	b	0x3000efc
 3000ef8:	e3a05001 	mov	r5, #1
 3000efc:	e3a020ff 	mov	r2, #255	@ 0xff
 3000f00:	e3822c1f 	orr	r2, r2, #7936	@ 0x1f00
 3000f04:	e0810293 	umull	r0, r1, r3, r2
 3000f08:	e1a00c20 	lsr	r0, r0, #24
 3000f0c:	e1809401 	orr	r9, r0, r1, lsl #8
 3000f10:	e0050008 	and	r0, r5, r8
 3000f14:	eb00019d 	bl	0x3001590
 3000f18:	e3a01000 	mov	r1, #0
 3000f1c:	e1a04000 	mov	r4, r0
 3000f20:	eb00018e 	bl	0x3001560
 3000f24:	e1a05000 	mov	r5, r0
 3000f28:	e1a00004 	mov	r0, r4
 3000f2c:	eb0001a1 	bl	0x30015b8
 3000f30:	e1a06000 	mov	r6, r0
 3000f34:	e3550000 	cmp	r5, #0
 3000f38:	e1a00004 	mov	r0, r4
 3000f3c:	e1a01007 	mov	r1, r7
 3000f40:	01a06005 	moveq	r6, r5
 3000f44:	eb000189 	bl	0x3001570
 3000f48:	e3500000 	cmp	r0, #0
 3000f4c:	e20900ff 	and	r0, r9, #255	@ 0xff
 3000f50:	13a060ff 	movne	r6, #255	@ 0xff
 3000f54:	e58d6030 	str	r6, [sp, #48]	@ 0x30
 3000f58:	eb00017c 	bl	0x3001550
 3000f5c:	eb000189 	bl	0x3001588
 3000f60:	e1a04000 	mov	r4, r0
 3000f64:	e59d0044 	ldr	r0, [sp, #68]	@ 0x44
 3000f68:	e1d000b4 	ldrh	r0, [r0, #4]
 3000f6c:	eb000187 	bl	0x3001590
 3000f70:	e1a05000 	mov	r5, r0
 3000f74:	e0040008 	and	r0, r4, r8
 3000f78:	eb000184 	bl	0x3001590
 3000f7c:	e1a01000 	mov	r1, r0
 3000f80:	e1a00005 	mov	r0, r5
 3000f84:	eb000183 	bl	0x3001598
 3000f88:	eb00017e 	bl	0x3001588
 3000f8c:	e0000008 	and	r0, r0, r8
 3000f90:	eb00017e 	bl	0x3001590
 3000f94:	e1a01007 	mov	r1, r7
 3000f98:	eb000180 	bl	0x30015a0
 3000f9c:	eb000179 	bl	0x3001588
 3000fa0:	e0006008 	and	r6, r0, r8
 3000fa4:	e1a05000 	mov	r5, r0
 3000fa8:	e3560b3f 	cmp	r6, #64512	@ 0xfc00
 3000fac:	1a00000f 	bne	0x3000ff0
 3000fb0:	e1a00006 	mov	r0, r6
 3000fb4:	eb000175 	bl	0x3001590
 3000fb8:	e1a01000 	mov	r1, r0
 3000fbc:	eb000179 	bl	0x30015a8
 3000fc0:	eb000170 	bl	0x3001588
 3000fc4:	e0000008 	and	r0, r0, r8
 3000fc8:	eb000170 	bl	0x3001590
 3000fcc:	e3a0143f 	mov	r1, #1056964608	@ 0x3f000000
 3000fd0:	eb000176 	bl	0x30015b0
 3000fd4:	e3500000 	cmp	r0, #0
 3000fd8:	e3a07e5a 	mov	r7, #1440	@ 0x5a0
 3000fdc:	1a00003f 	bne	0x30010e0
 3000fe0:	e3a000ff 	mov	r0, #255	@ 0xff
 3000fe4:	e3800c7f 	orr	r0, r0, #32512	@ 0x7f00
 3000fe8:	e0059000 	and	r9, r5, r0
 3000fec:	ea00002d 	b	0x30010a8
 3000ff0:	e3a000ff 	mov	r0, #255	@ 0xff
 3000ff4:	e3a07e5a 	mov	r7, #1440	@ 0x5a0
 3000ff8:	e3800c7f 	orr	r0, r0, #32512	@ 0x7f00
 3000ffc:	e0159000 	ands	r9, r5, r0
 3001000:	0a000017 	beq	0x3001064
 3001004:	e1560009 	cmp	r6, r9
 3001008:	e3a00001 	mov	r0, #1
 300100c:	01a00008 	moveq	r0, r8
 3001010:	e0807005 	add	r7, r0, r5
 3001014:	e1a00006 	mov	r0, r6
 3001018:	eb00015c 	bl	0x3001590
 300101c:	e1a04000 	mov	r4, r0
 3001020:	e0070008 	and	r0, r7, r8
 3001024:	e3a07e5a 	mov	r7, #1440	@ 0x5a0
 3001028:	eb000158 	bl	0x3001590
 300102c:	e1a01000 	mov	r1, r0
 3001030:	e1a00004 	mov	r0, r4
 3001034:	eb00015b 	bl	0x30015a8
 3001038:	eb000152 	bl	0x3001588
 300103c:	e0000008 	and	r0, r0, r8
 3001040:	eb000152 	bl	0x3001590
 3001044:	e3a0143f 	mov	r1, #1056964608	@ 0x3f000000
 3001048:	eb000158 	bl	0x30015b0
 300104c:	e3500000 	cmp	r0, #0
 3001050:	0a000012 	beq	0x30010a0
 3001054:	e1560009 	cmp	r6, r9
 3001058:	0a000018 	beq	0x30010c0
 300105c:	e2850001 	add	r0, r5, #1
 3001060:	ea00000c 	b	0x3001098
 3001064:	e1a00006 	mov	r0, r6
 3001068:	eb000148 	bl	0x3001590
 300106c:	e3a015ce 	mov	r1, #864026624	@ 0x33800000
 3001070:	eb000148 	bl	0x3001598
 3001074:	eb000143 	bl	0x3001588
 3001078:	e0000008 	and	r0, r0, r8
 300107c:	eb000143 	bl	0x3001590
 3001080:	e3a0143f 	mov	r1, #1056964608	@ 0x3f000000
 3001084:	eb000149 	bl	0x30015b0
 3001088:	e3500000 	cmp	r0, #0
 300108c:	e3a00001 	mov	r0, #1
 3001090:	e3800902 	orr	r0, r0, #32768	@ 0x8000
 3001094:	0a000001 	beq	0x30010a0
 3001098:	e1a05000 	mov	r5, r0
 300109c:	ea00000f 	b	0x30010e0
 30010a0:	e3560b1f 	cmp	r6, #31744	@ 0x7c00
 30010a4:	0a00000d 	beq	0x30010e0
 30010a8:	e3590000 	cmp	r9, #0
 30010ac:	0a00000a 	beq	0x30010dc
 30010b0:	e1590006 	cmp	r9, r6
 30010b4:	1a000001 	bne	0x30010c0
 30010b8:	e2855001 	add	r5, r5, #1
 30010bc:	ea000007 	b	0x30010e0
 30010c0:	e2455001 	sub	r5, r5, #1
 30010c4:	ea000005 	b	0x30010e0
 30010c8:	020010e0 	andeq	r1, r0, #224	@ 0xe0
 30010cc:	020010f1 	andeq	r1, r0, #241	@ 0xf1
 30010d0:	0001ffff 	strdeq	pc, [r1], -pc	@ <UNPREDICTABLE>
 30010d4:	00c0ffee 	sbceq	pc, r0, lr, ror #31
 30010d8:	ffcd8000 			@ <UNDEFINED> instruction: 0xffcd8000
 30010dc:	e3a05001 	mov	r5, #1
 30010e0:	e28a0001 	add	r0, sl, #1
 30010e4:	e58d002c 	str	r0, [sp, #44]	@ 0x2c
 30010e8:	e0050008 	and	r0, r5, r8
 30010ec:	eb000127 	bl	0x3001590
 30010f0:	e3a01000 	mov	r1, #0
 30010f4:	e1a04000 	mov	r4, r0
 30010f8:	eb000118 	bl	0x3001560
 30010fc:	e1a06000 	mov	r6, r0
 3001100:	e1a00004 	mov	r0, r4
 3001104:	eb00012b 	bl	0x30015b8
 3001108:	e3a0187f 	mov	r1, #8323072	@ 0x7f0000
 300110c:	e1a05000 	mov	r5, r0
 3001110:	e3560000 	cmp	r6, #0
 3001114:	e1a00004 	mov	r0, r4
 3001118:	e3811443 	orr	r1, r1, #1124073472	@ 0x43000000
 300111c:	01a05006 	moveq	r5, r6
 3001120:	eb000112 	bl	0x3001570
 3001124:	e3500000 	cmp	r0, #0
 3001128:	13a050ff 	movne	r5, #255	@ 0xff
 300112c:	e2050007 	and	r0, r5, #7
 3001130:	e58d5024 	str	r5, [sp, #36]	@ 0x24
 3001134:	eb000105 	bl	0x3001550
 3001138:	eb000112 	bl	0x3001588
 300113c:	e0000008 	and	r0, r0, r8
 3001140:	eb000112 	bl	0x3001590
 3001144:	e3a015f6 	mov	r1, #1031798784	@ 0x3d800000
 3001148:	eb000102 	bl	0x3001558
 300114c:	eb00010d 	bl	0x3001588
 3001150:	e58d0044 	str	r0, [sp, #68]	@ 0x44
 3001154:	e59d0034 	ldr	r0, [sp, #52]	@ 0x34
 3001158:	e2000007 	and	r0, r0, #7
 300115c:	eb0000fb 	bl	0x3001550
 3001160:	eb000108 	bl	0x3001588
 3001164:	e0000008 	and	r0, r0, r8
 3001168:	eb000108 	bl	0x3001590
 300116c:	e3a015f6 	mov	r1, #1031798784	@ 0x3d800000
 3001170:	eb0000f8 	bl	0x3001558
 3001174:	eb000103 	bl	0x3001588
 3001178:	e1a09000 	mov	r9, r0
 300117c:	e59d0030 	ldr	r0, [sp, #48]	@ 0x30
 3001180:	e2000007 	and	r0, r0, #7
 3001184:	eb0000f1 	bl	0x3001550
 3001188:	eb0000fe 	bl	0x3001588
 300118c:	e0000008 	and	r0, r0, r8
 3001190:	eb0000fe 	bl	0x3001590
 3001194:	e3a015f6 	mov	r1, #1031798784	@ 0x3d800000
 3001198:	eb0000ee 	bl	0x3001558
 300119c:	eb0000f9 	bl	0x3001588
 30011a0:	e58d003c 	str	r0, [sp, #60]	@ 0x3c
 30011a4:	e3a000ee 	mov	r0, #238	@ 0xee
 30011a8:	e35a00ef 	cmp	sl, #239	@ 0xef
 30011ac:	e58da038 	str	sl, [sp, #56]	@ 0x38
 30011b0:	0a00003b 	beq	0x30012a4
 30011b4:	e0090008 	and	r0, r9, r8
 30011b8:	eb0000f4 	bl	0x3001590
 30011bc:	e3a0a60e 	mov	sl, #14680064	@ 0xe00000
 30011c0:	e38aa101 	orr	sl, sl, #1073741824	@ 0x40000000
 30011c4:	e1a0100a 	mov	r1, sl
 30011c8:	eb0000e2 	bl	0x3001558
 30011cc:	eb0000ed 	bl	0x3001588
 30011d0:	e1a07000 	mov	r7, r0
 30011d4:	e59d002c 	ldr	r0, [sp, #44]	@ 0x2c
 30011d8:	e59f5360 	ldr	r5, [pc, #864]	@ 0x3001540
 30011dc:	e0800080 	add	r0, r0, r0, lsl #1
 30011e0:	e1a06005 	mov	r6, r5
 30011e4:	e1a00080 	lsl	r0, r0, #1
 30011e8:	e1b600b0 	ldrh	r0, [r6, r0]!	@ <UNPREDICTABLE>
 30011ec:	eb0000e7 	bl	0x3001590
 30011f0:	e1a04000 	mov	r4, r0
 30011f4:	e0070008 	and	r0, r7, r8
 30011f8:	eb0000e4 	bl	0x3001590
 30011fc:	e1a01004 	mov	r1, r4
 3001200:	eb0000e4 	bl	0x3001598
 3001204:	eb0000df 	bl	0x3001588
 3001208:	e1c600b0 	strh	r0, [r6]
 300120c:	e59d003c 	ldr	r0, [sp, #60]	@ 0x3c
 3001210:	e0000008 	and	r0, r0, r8
 3001214:	eb0000dd 	bl	0x3001590
 3001218:	e1a0100a 	mov	r1, sl
 300121c:	eb0000cd 	bl	0x3001558
 3001220:	eb0000d8 	bl	0x3001588
 3001224:	e1a04000 	mov	r4, r0
 3001228:	e1d600b2 	ldrh	r0, [r6, #2]
 300122c:	eb0000d7 	bl	0x3001590
 3001230:	e1a07000 	mov	r7, r0
 3001234:	e0040008 	and	r0, r4, r8
 3001238:	eb0000d4 	bl	0x3001590
 300123c:	e1a01007 	mov	r1, r7
 3001240:	eb0000d4 	bl	0x3001598
 3001244:	eb0000cf 	bl	0x3001588
 3001248:	e1c600b2 	strh	r0, [r6, #2]
 300124c:	e59d0044 	ldr	r0, [sp, #68]	@ 0x44
 3001250:	e0000008 	and	r0, r0, r8
 3001254:	eb0000cd 	bl	0x3001590
 3001258:	e1a0100a 	mov	r1, sl
 300125c:	eb0000bd 	bl	0x3001558
 3001260:	eb0000c8 	bl	0x3001588
 3001264:	e1a04000 	mov	r4, r0
 3001268:	e1d600b4 	ldrh	r0, [r6, #4]
 300126c:	eb0000c7 	bl	0x3001590
 3001270:	e1a07000 	mov	r7, r0
 3001274:	e0040008 	and	r0, r4, r8
 3001278:	eb0000c4 	bl	0x3001590
 300127c:	e1a01007 	mov	r1, r7
 3001280:	eb0000c4 	bl	0x3001598
 3001284:	eb0000bf 	bl	0x3001588
 3001288:	e1c600b4 	strh	r0, [r6, #4]
 300128c:	e59d0038 	ldr	r0, [sp, #56]	@ 0x38
 3001290:	e3500000 	cmp	r0, #0
 3001294:	0a000036 	beq	0x3001374
 3001298:	e59d0038 	ldr	r0, [sp, #56]	@ 0x38
 300129c:	e3a07e5a 	mov	r7, #1440	@ 0x5a0
 30012a0:	e2400001 	sub	r0, r0, #1
 30012a4:	e59f5294 	ldr	r5, [pc, #660]	@ 0x3001540
 30012a8:	e0800080 	add	r0, r0, r0, lsl #1
 30012ac:	e0856080 	add	r6, r5, r0, lsl #1
 30012b0:	e0090008 	and	r0, r9, r8
 30012b4:	eb0000b5 	bl	0x3001590
 30012b8:	e3a0a501 	mov	sl, #4194304	@ 0x400000
 30012bc:	e38aa101 	orr	sl, sl, #1073741824	@ 0x40000000
 30012c0:	e1a0100a 	mov	r1, sl
 30012c4:	eb0000a3 	bl	0x3001558
 30012c8:	eb0000ae 	bl	0x3001588
 30012cc:	e1a04000 	mov	r4, r0
 30012d0:	e1b600b7 	ldrh	r0, [r6, r7]!
 30012d4:	eb0000ad 	bl	0x3001590
 30012d8:	e1a07000 	mov	r7, r0
 30012dc:	e0040008 	and	r0, r4, r8
 30012e0:	eb0000aa 	bl	0x3001590
 30012e4:	e1a01007 	mov	r1, r7
 30012e8:	eb0000aa 	bl	0x3001598
 30012ec:	eb0000a5 	bl	0x3001588
 30012f0:	e1c600b0 	strh	r0, [r6]
 30012f4:	e59d003c 	ldr	r0, [sp, #60]	@ 0x3c
 30012f8:	e0000008 	and	r0, r0, r8
 30012fc:	eb0000a3 	bl	0x3001590
 3001300:	e1a0100a 	mov	r1, sl
 3001304:	eb000093 	bl	0x3001558
 3001308:	eb00009e 	bl	0x3001588
 300130c:	e1a04000 	mov	r4, r0
 3001310:	e1d600b2 	ldrh	r0, [r6, #2]
 3001314:	eb00009d 	bl	0x3001590
 3001318:	e1a07000 	mov	r7, r0
 300131c:	e0040008 	and	r0, r4, r8
 3001320:	eb00009a 	bl	0x3001590
 3001324:	e1a01007 	mov	r1, r7
 3001328:	eb00009a 	bl	0x3001598
 300132c:	eb000095 	bl	0x3001588
 3001330:	e1c600b2 	strh	r0, [r6, #2]
 3001334:	e59d0044 	ldr	r0, [sp, #68]	@ 0x44
 3001338:	e0000008 	and	r0, r0, r8
 300133c:	eb000093 	bl	0x3001590
 3001340:	e1a0100a 	mov	r1, sl
 3001344:	eb000083 	bl	0x3001558
 3001348:	eb00008e 	bl	0x3001588
 300134c:	e1a04000 	mov	r4, r0
 3001350:	e1d600b4 	ldrh	r0, [r6, #4]
 3001354:	eb00008d 	bl	0x3001590
 3001358:	e1a07000 	mov	r7, r0
 300135c:	e0040008 	and	r0, r4, r8
 3001360:	eb00008a 	bl	0x3001590
 3001364:	e1a01007 	mov	r1, r7
 3001368:	eb00008a 	bl	0x3001598
 300136c:	eb000085 	bl	0x3001588
 3001370:	e1c600b4 	strh	r0, [r6, #4]
 3001374:	e59d0028 	ldr	r0, [sp, #40]	@ 0x28
 3001378:	e0099008 	and	r9, r9, r8
 300137c:	e085a080 	add	sl, r5, r0, lsl #1
 3001380:	e1a00009 	mov	r0, r9
 3001384:	eb000081 	bl	0x3001590
 3001388:	e3a0760a 	mov	r7, #10485760	@ 0xa00000
 300138c:	e3877101 	orr	r7, r7, #1073741824	@ 0x40000000
 3001390:	e1a01007 	mov	r1, r7
 3001394:	eb00006f 	bl	0x3001558
 3001398:	eb00007a 	bl	0x3001588
 300139c:	e1a04000 	mov	r4, r0
 30013a0:	e3a00e5a 	mov	r0, #1440	@ 0x5a0
 30013a4:	e1ba00b0 	ldrh	r0, [sl, r0]!	@ <UNPREDICTABLE>
 30013a8:	eb000078 	bl	0x3001590
 30013ac:	e1a06000 	mov	r6, r0
 30013b0:	e0040008 	and	r0, r4, r8
 30013b4:	eb000075 	bl	0x3001590
 30013b8:	e1a01006 	mov	r1, r6
 30013bc:	eb000075 	bl	0x3001598
 30013c0:	eb000070 	bl	0x3001588
 30013c4:	e1ca00b0 	strh	r0, [sl]
 30013c8:	e59d003c 	ldr	r0, [sp, #60]	@ 0x3c
 30013cc:	e0006008 	and	r6, r0, r8
 30013d0:	e1a00006 	mov	r0, r6
 30013d4:	eb00006d 	bl	0x3001590
 30013d8:	e1a01007 	mov	r1, r7
 30013dc:	eb00005d 	bl	0x3001558
 30013e0:	eb000068 	bl	0x3001588
 30013e4:	e1a04000 	mov	r4, r0
 30013e8:	e1da00b2 	ldrh	r0, [sl, #2]
 30013ec:	eb000067 	bl	0x3001590
 30013f0:	e1a05000 	mov	r5, r0
 30013f4:	e0040008 	and	r0, r4, r8
 30013f8:	eb000064 	bl	0x3001590
 30013fc:	e1a01005 	mov	r1, r5
 3001400:	eb000064 	bl	0x3001598
 3001404:	eb00005f 	bl	0x3001588
 3001408:	e1ca00b2 	strh	r0, [sl, #2]
 300140c:	e59d0044 	ldr	r0, [sp, #68]	@ 0x44
 3001410:	e0004008 	and	r4, r0, r8
 3001414:	e1a00004 	mov	r0, r4
 3001418:	eb00005c 	bl	0x3001590
 300141c:	e1a01007 	mov	r1, r7
 3001420:	eb00004c 	bl	0x3001558
 3001424:	eb000057 	bl	0x3001588
 3001428:	e1a05000 	mov	r5, r0
 300142c:	e1da00b4 	ldrh	r0, [sl, #4]
 3001430:	eb000056 	bl	0x3001590
 3001434:	e1a07000 	mov	r7, r0
 3001438:	e0050008 	and	r0, r5, r8
 300143c:	eb000053 	bl	0x3001590
 3001440:	e1a01007 	mov	r1, r7
 3001444:	eb000053 	bl	0x3001598
 3001448:	eb00004e 	bl	0x3001588
 300144c:	e1ca00b4 	strh	r0, [sl, #4]
 3001450:	e59da038 	ldr	sl, [sp, #56]	@ 0x38
 3001454:	e35a00ef 	cmp	sl, #239	@ 0xef
 3001458:	0afffd20 	beq	0x30008e0
 300145c:	e59d002c 	ldr	r0, [sp, #44]	@ 0x2c
 3001460:	e59f10d8 	ldr	r1, [pc, #216]	@ 0x3001540
 3001464:	e0800080 	add	r0, r0, r0, lsl #1
 3001468:	e0817080 	add	r7, r1, r0, lsl #1
 300146c:	e1a00009 	mov	r0, r9
 3001470:	eb000046 	bl	0x3001590
 3001474:	e1a05000 	mov	r5, r0
 3001478:	e3a00e5a 	mov	r0, #1440	@ 0x5a0
 300147c:	e1b700b0 	ldrh	r0, [r7, r0]!	@ <UNPREDICTABLE>
 3001480:	eb000042 	bl	0x3001590
 3001484:	e1a01000 	mov	r1, r0
 3001488:	e1a00005 	mov	r0, r5
 300148c:	eb000041 	bl	0x3001598
 3001490:	eb00003c 	bl	0x3001588
 3001494:	e1c700b0 	strh	r0, [r7]
 3001498:	e1a00006 	mov	r0, r6
 300149c:	eb00003b 	bl	0x3001590
 30014a0:	e1a05000 	mov	r5, r0
 30014a4:	e1d700b2 	ldrh	r0, [r7, #2]
 30014a8:	eb000038 	bl	0x3001590
 30014ac:	e1a01000 	mov	r1, r0
 30014b0:	e1a00005 	mov	r0, r5
 30014b4:	eb000037 	bl	0x3001598
 30014b8:	eb000032 	bl	0x3001588
 30014bc:	e1c700b2 	strh	r0, [r7, #2]
 30014c0:	e1a00004 	mov	r0, r4
 30014c4:	eb000031 	bl	0x3001590
 30014c8:	e1a04000 	mov	r4, r0
 30014cc:	e1d700b4 	ldrh	r0, [r7, #4]
 30014d0:	eb00002e 	bl	0x3001590
 30014d4:	e1a01000 	mov	r1, r0
 30014d8:	e1a00004 	mov	r0, r4
 30014dc:	eb00002d 	bl	0x3001598
 30014e0:	eb000028 	bl	0x3001588
 30014e4:	e1c700b4 	strh	r0, [r7, #4]
 30014e8:	eafffcfc 	b	0x30008e0
 30014ec:	e59d0018 	ldr	r0, [sp, #24]
 30014f0:	e3a010c8 	mov	r1, #200	@ 0xc8
 30014f4:	e3a02004 	mov	r2, #4
 30014f8:	eb000030 	bl	0x30015c0
 30014fc:	e24bd01c 	sub	sp, fp, #28
 3001500:	e8bd4ff0 	pop	{r4, r5, r6, r7, r8, r9, sl, fp, lr}
 3001504:	e12fff1e 	bx	lr
 3001508:	e59f201c 	ldr	r2, [pc, #28]	@ 0x300152c
 300150c:	e3a01801 	mov	r1, #65536	@ 0x10000
 3001510:	eb00002c 	bl	0x30015c8
 3001514:	e3a000c8 	mov	r0, #200	@ 0xc8
 3001518:	eb00002c 	bl	0x30015d0
 300151c:	e59f2010 	ldr	r2, [pc, #16]	@ 0x3001534
 3001520:	e3a01801 	mov	r1, #65536	@ 0x10000
 3001524:	eb000027 	bl	0x30015c8
 3001528:	fffecccd 			@ <UNDEFINED> instruction: 0xfffecccd
 300152c:	080a3714 	stmdaeq	sl, {r2, r4, r8, r9, sl, ip, sp}
 3001530:	080a3734 	stmdaeq	sl, {r2, r4, r5, r8, r9, sl, ip, sp}
 3001534:	080a3724 	stmdaeq	sl, {r2, r5, r8, r9, sl, ip, sp}
 3001538:	01010101 	tsteq	r1, r1, lsl #2
 300153c:	31415927 	cmpcc	r1, r7, lsr #18
 3001540:	02000000 	andeq	r0, r0, #0
 3001544:	fffe8228 			@ <UNDEFINED> instruction: 0xfffe8228
 3001548:	e51ff004 	ldr	pc, [pc, #-4]	@ 0x300154c
 300154c:	0801107c 	stmdaeq	r1, {r2, r3, r4, r5, r6, ip}
 3001550:	e51ff004 	ldr	pc, [pc, #-4]	@ 0x3001554
 3001554:	0801122c 	stmdaeq	r1, {r2, r3, r5, r9, ip}
 3001558:	e51ff004 	ldr	pc, [pc, #-4]	@ 0x300155c
 300155c:	08010388 	stmdaeq	r1, {r3, r7, r8, r9}
 3001560:	e51ff004 	ldr	pc, [pc, #-4]	@ 0x3001564
 3001564:	08011718 	stmdaeq	r1, {r3, r4, r8, r9, sl, ip}
 3001568:	e51ff004 	ldr	pc, [pc, #-4]	@ 0x300156c
 300156c:	08011a9c 	stmdaeq	r1, {r2, r3, r4, r7, r9, fp, ip}
 3001570:	e51ff004 	ldr	pc, [pc, #-4]	@ 0x3001574
 3001574:	080102a0 	stmdaeq	r1, {r5, r7, r9}
 3001578:	e51ff004 	ldr	pc, [pc, #-4]	@ 0x300157c
 300157c:	08011714 	stmdaeq	r1, {r2, r4, r8, r9, sl, ip}
 3001580:	e51ff004 	ldr	pc, [pc, #-4]	@ 0x3001584
 3001584:	0800015c 	stmdaeq	r0, {r2, r3, r4, r6, r8}
 3001588:	e51ff004 	ldr	pc, [pc, #-4]	@ 0x300158c
 300158c:	08011b2c 	stmdaeq	r1, {r2, r3, r5, r8, r9, fp, ip}
 3001590:	e51ff004 	ldr	pc, [pc, #-4]	@ 0x3001594
 3001594:	080102a4 	stmdaeq	r1, {r2, r5, r7, r9}
 3001598:	e51ff004 	ldr	pc, [pc, #-4]	@ 0x300159c
 300159c:	08011710 	stmdaeq	r1, {r4, r8, r9, sl, ip}
 30015a0:	e51ff004 	ldr	pc, [pc, #-4]	@ 0x30015a4
 30015a4:	080116d0 	stmdaeq	r1, {r4, r6, r7, r9, sl, ip}
 30015a8:	e51ff004 	ldr	pc, [pc, #-4]	@ 0x30015ac
 30015ac:	0801165c 	stmdaeq	r1, {r2, r3, r4, r6, r9, sl, ip}
 30015b0:	e51ff004 	ldr	pc, [pc, #-4]	@ 0x30015b4
 30015b4:	08010cf0 	stmdaeq	r1, {r4, r5, r6, r7, sl, fp}
 30015b8:	e51ff004 	ldr	pc, [pc, #-4]	@ 0x30015bc
 30015bc:	08010cf4 	stmdaeq	r1, {r2, r4, r5, r6, r7, sl, fp}
 30015c0:	e51ff004 	ldr	pc, [pc, #-4]	@ 0x30015c4
 30015c4:	08004fec 	stmdaeq	r0, {r2, r3, r5, r6, r7, r8, r9, sl, fp, lr}
 30015c8:	e51ff004 	ldr	pc, [pc, #-4]	@ 0x30015cc
 30015cc:	08006a4c 	stmdaeq	r0, {r2, r3, r6, r9, fp, sp, lr}
 30015d0:	e51ff004 	ldr	pc, [pc, #-4]	@ 0x30015d4
 30015d4:	08005440 	stmdaeq	r0, {r6, sl, ip, lr}
